
NIV2_B_2016.elf:     file format elf32-avr

Sections:
Idx Name          Size      VMA       LMA       File off  Algn
  0 .data         0000087c  00800100  00004d2a  00004dbe  2**0
                  CONTENTS, ALLOC, LOAD, DATA
  1 .text         00004d2a  00000000  00000000  00000094  2**1
                  CONTENTS, ALLOC, LOAD, READONLY, CODE
  2 .bss          0000025e  0080097c  0080097c  0000563a  2**0
                  ALLOC
  3 .comment      00000030  00000000  00000000  0000563a  2**0
                  CONTENTS, READONLY
  4 .note.gnu.avr.deviceinfo 00000040  00000000  00000000  0000566c  2**2
                  CONTENTS, READONLY
  5 .debug_aranges 00000610  00000000  00000000  000056ac  2**0
                  CONTENTS, READONLY, DEBUGGING
  6 .debug_info   0000b909  00000000  00000000  00005cbc  2**0
                  CONTENTS, READONLY, DEBUGGING
  7 .debug_abbrev 00000f11  00000000  00000000  000115c5  2**0
                  CONTENTS, READONLY, DEBUGGING
  8 .debug_line   00004bd8  00000000  00000000  000124d6  2**0
                  CONTENTS, READONLY, DEBUGGING
  9 .debug_frame  00001224  00000000  00000000  000170b0  2**2
                  CONTENTS, READONLY, DEBUGGING
 10 .debug_str    00001084  00000000  00000000  000182d4  2**0
                  CONTENTS, READONLY, DEBUGGING
 11 .debug_loc    00005c15  00000000  00000000  00019358  2**0
                  CONTENTS, READONLY, DEBUGGING
 12 .debug_ranges 000005d0  00000000  00000000  0001ef6d  2**0
                  CONTENTS, READONLY, DEBUGGING

Disassembly of section .text:

00000000 <__vectors>:
       0:	47 c4       	rjmp	.+2190   	; 0x890 <__ctors_end>
       2:	00 00       	nop
       4:	64 c4       	rjmp	.+2248   	; 0x8ce <__bad_interrupt>
       6:	00 00       	nop
       8:	62 c4       	rjmp	.+2244   	; 0x8ce <__bad_interrupt>
       a:	00 00       	nop
       c:	60 c4       	rjmp	.+2240   	; 0x8ce <__bad_interrupt>
       e:	00 00       	nop
      10:	5e c4       	rjmp	.+2236   	; 0x8ce <__bad_interrupt>
      12:	00 00       	nop
      14:	0c 94 01 25 	jmp	0x4a02	; 0x4a02 <__vector_5>
      18:	5a c4       	rjmp	.+2228   	; 0x8ce <__bad_interrupt>
      1a:	00 00       	nop
      1c:	58 c4       	rjmp	.+2224   	; 0x8ce <__bad_interrupt>
      1e:	00 00       	nop
      20:	56 c4       	rjmp	.+2220   	; 0x8ce <__bad_interrupt>
      22:	00 00       	nop
      24:	54 c4       	rjmp	.+2216   	; 0x8ce <__bad_interrupt>
      26:	00 00       	nop
      28:	52 c4       	rjmp	.+2212   	; 0x8ce <__bad_interrupt>
      2a:	00 00       	nop
      2c:	50 c4       	rjmp	.+2208   	; 0x8ce <__bad_interrupt>
      2e:	00 00       	nop
      30:	4e c4       	rjmp	.+2204   	; 0x8ce <__bad_interrupt>
      32:	00 00       	nop
      34:	4c c4       	rjmp	.+2200   	; 0x8ce <__bad_interrupt>
      36:	00 00       	nop
      38:	4a c4       	rjmp	.+2196   	; 0x8ce <__bad_interrupt>
      3a:	00 00       	nop
      3c:	0c 94 d0 24 	jmp	0x49a0	; 0x49a0 <__vector_15>
      40:	46 c4       	rjmp	.+2188   	; 0x8ce <__bad_interrupt>
      42:	00 00       	nop
      44:	44 c4       	rjmp	.+2184   	; 0x8ce <__bad_interrupt>
      46:	00 00       	nop
      48:	42 c4       	rjmp	.+2180   	; 0x8ce <__bad_interrupt>
      4a:	00 00       	nop
      4c:	40 c4       	rjmp	.+2176   	; 0x8ce <__bad_interrupt>
      4e:	00 00       	nop
      50:	0c 94 9f 25 	jmp	0x4b3e	; 0x4b3e <__vector_20>
      54:	3c c4       	rjmp	.+2168   	; 0x8ce <__bad_interrupt>
      56:	00 00       	nop
      58:	3a c4       	rjmp	.+2164   	; 0x8ce <__bad_interrupt>
      5a:	00 00       	nop
      5c:	38 c4       	rjmp	.+2160   	; 0x8ce <__bad_interrupt>
      5e:	00 00       	nop
      60:	36 c4       	rjmp	.+2156   	; 0x8ce <__bad_interrupt>
      62:	00 00       	nop
      64:	34 c4       	rjmp	.+2152   	; 0x8ce <__bad_interrupt>
      66:	00 00       	nop
      68:	32 c4       	rjmp	.+2148   	; 0x8ce <__bad_interrupt>
      6a:	00 00       	nop
      6c:	30 c4       	rjmp	.+2144   	; 0x8ce <__bad_interrupt>
      6e:	00 00       	nop
      70:	2e c4       	rjmp	.+2140   	; 0x8ce <__bad_interrupt>
      72:	00 00       	nop
      74:	2c c4       	rjmp	.+2136   	; 0x8ce <__bad_interrupt>
      76:	00 00       	nop
      78:	2a c4       	rjmp	.+2132   	; 0x8ce <__bad_interrupt>
      7a:	00 00       	nop
      7c:	28 c4       	rjmp	.+2128   	; 0x8ce <__bad_interrupt>
      7e:	00 00       	nop
      80:	26 c4       	rjmp	.+2124   	; 0x8ce <__bad_interrupt>
      82:	00 00       	nop
      84:	24 c4       	rjmp	.+2120   	; 0x8ce <__bad_interrupt>
      86:	00 00       	nop
      88:	22 c4       	rjmp	.+2116   	; 0x8ce <__bad_interrupt>
      8a:	00 00       	nop
      8c:	b2 0f       	add	r27, r18
      8e:	b7 0f       	add	r27, r23
      90:	bc 0f       	add	r27, r28
      92:	c1 0f       	add	r28, r17
      94:	c6 0f       	add	r28, r22
      96:	cb 0f       	add	r28, r27
      98:	d0 0f       	add	r29, r16
      9a:	d5 0f       	add	r29, r21

0000009c <__trampolines_end>:
      9c:	00 00       	nop
      9e:	00 00       	nop
      a0:	00 00       	nop
      a2:	00 5f       	subi	r16, 0xF0	; 240
      a4:	00 00       	nop
      a6:	00 07       	cpc	r16, r16
      a8:	00 07       	cpc	r16, r16
      aa:	00 14       	cp	r0, r0
      ac:	7f 14       	cp	r7, r15
      ae:	7f 14       	cp	r7, r15
      b0:	24 2a       	or	r2, r20
      b2:	7f 2a       	or	r7, r31
      b4:	12 23       	and	r17, r18
      b6:	13 08       	sbc	r1, r3
      b8:	64 62       	ori	r22, 0x24	; 36
      ba:	36 49       	sbci	r19, 0x96	; 150
      bc:	55 22       	and	r5, r21
      be:	50 00       	.word	0x0050	; ????
      c0:	05 03       	mulsu	r16, r21
      c2:	00 00       	nop
      c4:	00 1c       	adc	r0, r0
      c6:	22 41       	sbci	r18, 0x12	; 18
      c8:	00 00       	nop
      ca:	41 22       	and	r4, r17
      cc:	1c 00       	.word	0x001c	; ????
      ce:	08 2a       	or	r0, r24
      d0:	1c 2a       	or	r1, r28
      d2:	08 08       	sbc	r0, r8
      d4:	08 3e       	cpi	r16, 0xE8	; 232
      d6:	08 08       	sbc	r0, r8
      d8:	00 50       	subi	r16, 0x00	; 0
      da:	30 00       	.word	0x0030	; ????
      dc:	00 08       	sbc	r0, r0
      de:	08 08       	sbc	r0, r8
      e0:	08 08       	sbc	r0, r8
      e2:	00 60       	ori	r16, 0x00	; 0
      e4:	60 00       	.word	0x0060	; ????
      e6:	00 20       	and	r0, r0
      e8:	10 08       	sbc	r1, r0
      ea:	04 02       	muls	r16, r20
      ec:	3e 51       	subi	r19, 0x1E	; 30
      ee:	49 45       	sbci	r20, 0x59	; 89
      f0:	3e 00       	.word	0x003e	; ????
      f2:	42 7f       	andi	r20, 0xF2	; 242
      f4:	40 00       	.word	0x0040	; ????
      f6:	42 61       	ori	r20, 0x12	; 18
      f8:	51 49       	sbci	r21, 0x91	; 145
      fa:	46 21       	and	r20, r6
      fc:	41 45       	sbci	r20, 0x51	; 81
      fe:	4b 31       	cpi	r20, 0x1B	; 27
     100:	18 14       	cp	r1, r8
     102:	12 7f       	andi	r17, 0xF2	; 242
     104:	10 27       	eor	r17, r16
     106:	45 45       	sbci	r20, 0x55	; 85
     108:	45 39       	cpi	r20, 0x95	; 149
     10a:	3c 4a       	sbci	r19, 0xAC	; 172
     10c:	49 49       	sbci	r20, 0x99	; 153
     10e:	30 01       	movw	r6, r0
     110:	71 09       	sbc	r23, r1
     112:	05 03       	mulsu	r16, r21
     114:	36 49       	sbci	r19, 0x96	; 150
     116:	49 49       	sbci	r20, 0x99	; 153
     118:	36 06       	cpc	r3, r22
     11a:	49 49       	sbci	r20, 0x99	; 153
     11c:	29 1e       	adc	r2, r25
     11e:	00 36       	cpi	r16, 0x60	; 96
     120:	36 00       	.word	0x0036	; ????
     122:	00 00       	nop
     124:	56 36       	cpi	r21, 0x66	; 102
     126:	00 00       	nop
     128:	00 08       	sbc	r0, r0
     12a:	14 22       	and	r1, r20
     12c:	41 14       	cp	r4, r1
     12e:	14 14       	cp	r1, r4
     130:	14 14       	cp	r1, r4
     132:	41 22       	and	r4, r17
     134:	14 08       	sbc	r1, r4
     136:	00 02       	muls	r16, r16
     138:	01 51       	subi	r16, 0x11	; 17
     13a:	09 06       	cpc	r0, r25
     13c:	32 49       	sbci	r19, 0x92	; 146
     13e:	79 41       	sbci	r23, 0x19	; 25
     140:	3e 7e       	andi	r19, 0xEE	; 238
     142:	11 11       	cpse	r17, r1
     144:	11 7e       	andi	r17, 0xE1	; 225
     146:	7f 49       	sbci	r23, 0x9F	; 159
     148:	49 49       	sbci	r20, 0x99	; 153
     14a:	36 3e       	cpi	r19, 0xE6	; 230
     14c:	41 41       	sbci	r20, 0x11	; 17
     14e:	41 22       	and	r4, r17
     150:	7f 41       	sbci	r23, 0x1F	; 31
     152:	41 22       	and	r4, r17
     154:	1c 7f       	andi	r17, 0xFC	; 252
     156:	49 49       	sbci	r20, 0x99	; 153
     158:	49 41       	sbci	r20, 0x19	; 25
     15a:	7f 09       	sbc	r23, r15
     15c:	09 01       	movw	r0, r18
     15e:	01 3e       	cpi	r16, 0xE1	; 225
     160:	41 41       	sbci	r20, 0x11	; 17
     162:	51 32       	cpi	r21, 0x21	; 33
     164:	7f 08       	sbc	r7, r15
     166:	08 08       	sbc	r0, r8
     168:	7f 00       	.word	0x007f	; ????
     16a:	41 7f       	andi	r20, 0xF1	; 241
     16c:	41 00       	.word	0x0041	; ????
     16e:	20 40       	sbci	r18, 0x00	; 0
     170:	41 3f       	cpi	r20, 0xF1	; 241
     172:	01 7f       	andi	r16, 0xF1	; 241
     174:	08 14       	cp	r0, r8
     176:	22 41       	sbci	r18, 0x12	; 18
     178:	7f 40       	sbci	r23, 0x0F	; 15
     17a:	40 40       	sbci	r20, 0x00	; 0
     17c:	40 7f       	andi	r20, 0xF0	; 240
     17e:	02 04       	cpc	r0, r2
     180:	02 7f       	andi	r16, 0xF2	; 242
     182:	7f 04       	cpc	r7, r15
     184:	08 10       	cpse	r0, r8
     186:	7f 3e       	cpi	r23, 0xEF	; 239
     188:	41 41       	sbci	r20, 0x11	; 17
     18a:	41 3e       	cpi	r20, 0xE1	; 225
     18c:	7f 09       	sbc	r23, r15
     18e:	09 09       	sbc	r16, r9
     190:	06 3e       	cpi	r16, 0xE6	; 230
     192:	41 51       	subi	r20, 0x11	; 17
     194:	21 5e       	subi	r18, 0xE1	; 225
     196:	7f 09       	sbc	r23, r15
     198:	19 29       	or	r17, r9
     19a:	46 46       	sbci	r20, 0x66	; 102
     19c:	49 49       	sbci	r20, 0x99	; 153
     19e:	49 31       	cpi	r20, 0x19	; 25
     1a0:	01 01       	movw	r0, r2
     1a2:	7f 01       	movw	r14, r30
     1a4:	01 3f       	cpi	r16, 0xF1	; 241
     1a6:	40 40       	sbci	r20, 0x00	; 0
     1a8:	40 3f       	cpi	r20, 0xF0	; 240
     1aa:	1f 20       	and	r1, r15
     1ac:	40 20       	and	r4, r0
     1ae:	1f 7f       	andi	r17, 0xFF	; 255
     1b0:	20 18       	sub	r2, r0
     1b2:	20 7f       	andi	r18, 0xF0	; 240
     1b4:	63 14       	cp	r6, r3
     1b6:	08 14       	cp	r0, r8
     1b8:	63 03       	mulsu	r22, r19
     1ba:	04 78       	andi	r16, 0x84	; 132
     1bc:	04 03       	mulsu	r16, r20
     1be:	61 51       	subi	r22, 0x11	; 17
     1c0:	49 45       	sbci	r20, 0x59	; 89
     1c2:	43 00       	.word	0x0043	; ????
     1c4:	00 7f       	andi	r16, 0xF0	; 240
     1c6:	41 41       	sbci	r20, 0x11	; 17
     1c8:	02 04       	cpc	r0, r2
     1ca:	08 10       	cpse	r0, r8
     1cc:	20 41       	sbci	r18, 0x10	; 16
     1ce:	41 7f       	andi	r20, 0xF1	; 241
     1d0:	00 00       	nop
     1d2:	04 02       	muls	r16, r20
     1d4:	01 02       	muls	r16, r17
     1d6:	04 40       	sbci	r16, 0x04	; 4
     1d8:	40 40       	sbci	r20, 0x00	; 0
     1da:	40 40       	sbci	r20, 0x00	; 0
     1dc:	00 01       	movw	r0, r0
     1de:	02 04       	cpc	r0, r2
     1e0:	00 20       	and	r0, r0
     1e2:	54 54       	subi	r21, 0x44	; 68
     1e4:	54 78       	andi	r21, 0x84	; 132
     1e6:	7f 48       	sbci	r23, 0x8F	; 143
     1e8:	44 44       	sbci	r20, 0x44	; 68
     1ea:	38 38       	cpi	r19, 0x88	; 136
     1ec:	44 44       	sbci	r20, 0x44	; 68
     1ee:	44 20       	and	r4, r4
     1f0:	38 44       	sbci	r19, 0x48	; 72
     1f2:	44 48       	sbci	r20, 0x84	; 132
     1f4:	7f 38       	cpi	r23, 0x8F	; 143
     1f6:	54 54       	subi	r21, 0x44	; 68
     1f8:	54 18       	sub	r5, r4
     1fa:	08 7e       	andi	r16, 0xE8	; 232
     1fc:	09 01       	movw	r0, r18
     1fe:	02 08       	sbc	r0, r2
     200:	14 54       	subi	r17, 0x44	; 68
     202:	54 3c       	cpi	r21, 0xC4	; 196
     204:	7f 08       	sbc	r7, r15
     206:	04 04       	cpc	r0, r4
     208:	78 00       	.word	0x0078	; ????
     20a:	44 7d       	andi	r20, 0xD4	; 212
     20c:	40 00       	.word	0x0040	; ????
     20e:	20 40       	sbci	r18, 0x00	; 0
     210:	44 3d       	cpi	r20, 0xD4	; 212
     212:	00 00       	nop
     214:	7f 10       	cpse	r7, r15
     216:	28 44       	sbci	r18, 0x48	; 72
     218:	00 41       	sbci	r16, 0x10	; 16
     21a:	7f 40       	sbci	r23, 0x0F	; 15
     21c:	00 7c       	andi	r16, 0xC0	; 192
     21e:	04 18       	sub	r0, r4
     220:	04 78       	andi	r16, 0x84	; 132
     222:	7c 08       	sbc	r7, r12
     224:	04 04       	cpc	r0, r4
     226:	78 38       	cpi	r23, 0x88	; 136
     228:	44 44       	sbci	r20, 0x44	; 68
     22a:	44 38       	cpi	r20, 0x84	; 132
     22c:	7c 14       	cp	r7, r12
     22e:	14 14       	cp	r1, r4
     230:	08 08       	sbc	r0, r8
     232:	14 14       	cp	r1, r4
     234:	18 7c       	andi	r17, 0xC8	; 200
     236:	7c 08       	sbc	r7, r12
     238:	04 04       	cpc	r0, r4
     23a:	08 48       	sbci	r16, 0x88	; 136
     23c:	54 54       	subi	r21, 0x44	; 68
     23e:	54 20       	and	r5, r4
     240:	04 3f       	cpi	r16, 0xF4	; 244
     242:	44 40       	sbci	r20, 0x04	; 4
     244:	20 3c       	cpi	r18, 0xC0	; 192
     246:	40 40       	sbci	r20, 0x00	; 0
     248:	20 7c       	andi	r18, 0xC0	; 192
     24a:	1c 20       	and	r1, r12
     24c:	40 20       	and	r4, r0
     24e:	1c 3c       	cpi	r17, 0xCC	; 204
     250:	40 30       	cpi	r20, 0x00	; 0
     252:	40 3c       	cpi	r20, 0xC0	; 192
     254:	44 28       	or	r4, r4
     256:	10 28       	or	r1, r0
     258:	44 0c       	add	r4, r4
     25a:	50 50       	subi	r21, 0x00	; 0
     25c:	50 3c       	cpi	r21, 0xC0	; 192
     25e:	44 64       	ori	r20, 0x44	; 68
     260:	54 4c       	sbci	r21, 0xC4	; 196
     262:	44 00       	.word	0x0044	; ????
     264:	08 36       	cpi	r16, 0x68	; 104
     266:	41 00       	.word	0x0041	; ????
     268:	00 00       	nop
     26a:	7f 00       	.word	0x007f	; ????
     26c:	00 00       	nop
     26e:	41 36       	cpi	r20, 0x61	; 97
     270:	08 00       	.word	0x0008	; ????
     272:	08 08       	sbc	r0, r8
     274:	2a 1c       	adc	r2, r10
     276:	08 08       	sbc	r0, r8
     278:	1c 2a       	or	r1, r28
     27a:	08 08       	sbc	r0, r8

0000027c <HELHa_glcd_bmp>:
     27c:	00 00 e0 f0 f0 f0 f0 00 00 00 00 00 00 00 00 00     ................
     28c:	00 f0 f0 f0 f0 f0 f0 00 00 c0 e0 f0 f0 f0 f0 f0     ................
     29c:	f0 f0 f0 f0 f0 f0 f0 f0 f0 f0 f0 f0 00 00 f0 f0     ................
     2ac:	f0 f0 e0 c0 00 00 00 00 00 00 00 00 00 00 00 00     ................
     2bc:	00 00 00 e0 f0 f0 f0 f0 00 00 00 00 00 00 00 00     ................
     2cc:	00 00 f0 f0 f0 f0 f0 f0 00 00 00 00 00 00 00 00     ................
	...
     2e8:	00 00 ff ff ff ff ff 80 80 80 80 80 80 80 80 80     ................
     2f8:	80 ff ff ff ff ff ff 00 00 ff ff ff ff ff ff 81     ................
     308:	81 81 81 81 81 81 81 81 81 01 01 01 00 00 ff ff     ................
     318:	ff ff ff ff 00 00 00 00 00 00 00 00 00 00 00 00     ................
     328:	00 00 00 ff ff ff ff ff 80 80 80 80 80 80 80 80     ................
     338:	80 80 ff ff ff ff ff ff 00 00 80 e0 f0 f8 f8 f8     ................
     348:	7c 7c 7c 7c 7c f8 f8 f8 f0 e0 80 00 00 00 ff ff     |||||...........
     358:	ff ff ff 0f 0f 0f 0f 0f 0f 0f 0f 0f 0f ff ff ff     ................
     368:	ff ff ff 00 00 ff ff ff ff ff ff 0f 0f 0f 0f 0f     ................
     378:	0f 0f 0f 07 01 00 00 00 00 00 ff ff ff ff ff ff     ................
	...
     394:	00 00 00 ff ff ff ff ff 0f 0f 0f 0f 0f 0f 0f 0f     ................
     3a4:	0f 0f ff ff ff ff ff ff 00 00 c0 e1 f1 f1 f9 f8     ................
     3b4:	78 78 78 3c 3c 3e ff ff ff ff ff 00 00 00 ff ff     xxx<<>..........
     3c4:	ff ff ff 00 00 00 00 00 00 00 00 00 00 ff ff ff     ................
     3d4:	ff ff ff 00 00 ff ff ff ff ff ff f8 f8 f8 f8 f8     ................
     3e4:	f8 f8 f8 f8 f8 f8 f8 f8 00 00 ff ff ff ff ff ff     ................
     3f4:	f8 f8 f8 f8 f8 f8 f8 f8 f8 f8 f8 f8 00 00 00 ff     ................
     404:	ff ff ff ff 00 00 00 00 00 00 00 00 00 00 ff ff     ................
     414:	ff ff ff ff 00 00 1f 7f ff ff ff f8 f0 f0 f0 f0     ................
     424:	f8 fe ff ff ff ff ff 00 f8 f8 f8 f8 f8 f8 f8 f8     ................
     434:	f8 f8 f8 f8 f8 f8 f8 f8 f8 f8 f8 f8 f8 f8 f8 f8     ................
     444:	f8 f8 f8 f8 f8 f8 f8 f8 00 00 00 00 00 00 00 00     ................

00000454 <Menu_State>:
     454:	0a 00 00 a5 10 0b 00 00 00 00 14 00 00 f4 10 15     ................
     464:	00 00 00 00 2b 00 00 50 11 2a 00 00 00 00 16 00     ....+..P.*......
     474:	00 fe 11 17 00 00 00 00 2d 00 00 1b 12 2c 00 00     ........-....,..
     484:	00 00 2f 00 00 30 12 2e 00 00 00 00 47 00 00 89     ../..0......G...
     494:	12 46 00 00 00 00 18 00 00 37 13 19 00 00 00 00     .F.......7......
     4a4:	1c 00 00 58 13 1d 00 00 00 00 49 00 00 11 14 48     ...X......I....H
     4b4:	00 00 00 00 4b 00 00 29 14 4a 00 00 00 00 4d 00     ....K..).J....M.
     4c4:	00 41 14 4c 00 00 00 00 4f 00 00 59 14 4e 00 00     .A.L....O..Y.N..
     4d4:	00 00 1e 00 00 71 14 1f 00 00 00 00 51 00 00 ec     .....q......Q...
     4e4:	14 50 00 00 00 00 53 00 00 04 15 52 00 00 00 00     .P....S....R....
     4f4:	55 00 00 1c 15 54 00 00 00 00 20 00 00 34 15 21     U....T.... ..4.!
     504:	00 00 00 00 57 00 00 55 15 56 00 00 00 00 5d 00     ....W..U.V....].
     514:	00 b0 15 5c 00 00 00 00 59 00 00 64 16 58 00 00     ...\....Y..d.X..
     524:	00 00 5f 00 00 c9 16 5e 00 00 00 00 5b 00 00 83     .._....^....[...
     534:	17 5a 00 00 00 00 22 00 00 9f 17 23 00 00 00 00     .Z...."....#....
     544:	31 00 00 cd 17 30 00 00 00 00 6f 00 00 1b 18 6e     1....0....o....n
     554:	00 00 00 00 71 00 00 50 18 70 00 00 00 00 33 00     ....q..P.p....3.
     564:	00 85 18 32 00 00 00 00 3d 00 00 b1 18 3c 00 00     ...2....=....<..
     574:	00 00 61 00 00 16 19 60 00 00 00 00 3f 00 00 d0     ..a....`....?...
     584:	19 3e 00 00 00 00 63 00 00 4b 1a 62 00 00 00 00     .>....c..K.b....
     594:	41 00 00 2b 1b 40 00 00 00 00 65 00 00 a6 1b 64     A..+.@....e....d
     5a4:	00 00 00 00 43 00 00 84 1c 42 00 00 00 00 67 00     ....C....B....g.
     5b4:	00 ff 1c 66 00 00 00 00 45 00 00 dd 1d 44 00 00     ...f....E....D..
     5c4:	00 00 69 00 00 42 1e 68 00 00 00 00 35 00 00 f1     ..i..B.h....5...
     5d4:	1e 34 00 00 00 00 37 00 00 15 1f 36 00 00 00 00     .4....7....6....
     5e4:	6b 00 00 77 1f 6a 00 00 00 00 39 00 00 21 20 38     k..w.j....9..! 8
     5f4:	00 00 00 00 6d 00 00 83 20 6c 00 00 00 00 24 00     ....m... l....$.
     604:	00 2d 21 25 00 00 00 00 27 00 00 2b 22 26 00 00     .-!%....'..+"&..
     614:	00 00 29 00 00 d1 22 28 00 00 00 00 00 00 00 00     ..)..."(........
	...

00000625 <menu_nextstate>:
     625:	0b 02 14 0b 03 16 0b 04 18 15 0c 0a 15 0b 2b 2a     ..............+*
     635:	01 2b 2a 02 2b 2a 03 2b 2a 04 2b 2a 05 2b 2a 06     .+*.+*.+*.+*.+*.
     645:	2b 2a 07 2b 2a 08 2b 2a 09 2b 2a 0a 2b 17 0c 0a     +*.+*.+*.+*.+...
     655:	17 02 2d 17 03 2f 2c 0c 16 2e 0c 16 2e 0b 47 46     ..-../,.......GF
     665:	01 47 46 02 47 46 03 47 46 04 47 46 05 47 46 06     .GF.GF.GF.GF.GF.
     675:	47 46 07 47 46 08 47 46 09 47 46 0a 47 19 0c 0a     GF.GF.GF.GF.G...
     685:	19 02 1c 19 03 1e 19 04 20 19 05 22 19 06 24 1d     ........ .."..$.
     695:	0c 18 1d 02 49 1d 03 4b 1d 04 4d 1d 05 4f 48 0c     ....I..K..M..OH.
     6a5:	1c 4a 0c 1c 4c 0c 1c 4e 0c 1c 1f 0c 18 1f 02 51     .J..L..N.......Q
     6b5:	1f 03 53 1f 04 55 50 0c 1e 52 0c 1e 54 0c 1e 21     ..S..UP..R..T..!
     6c5:	0c 18 21 02 57 21 03 59 21 04 5b 56 0c 20 56 0b     ..!.W!.Y!.[V. V.
     6d5:	5d 5c 01 5d 5c 02 5d 5c 03 5d 5c 04 5d 5c 05 5d     ]\.]\.]\.]\.]\.]
     6e5:	5c 06 5d 5c 07 5d 5c 08 5d 5c 09 5d 5c 0a 5d 58     \.]\.]\.]\.]\.]X
     6f5:	0c 20 58 0b 5f 5e 01 5f 5e 02 5f 5e 03 5f 5e 04     . X._^._^._^._^.
     705:	5f 5e 05 5f 5e 06 5f 5e 07 5f 5e 08 5f 5e 09 5f     _^._^._^._^._^._
     715:	5e 0a 5f 5a 0c 20 23 0c 18 23 02 31 23 03 33 23     ^._Z. #..#.1#.3#
     725:	04 35 30 0c 22 30 02 6f 30 03 71 32 0c 22 32 02     .50."0.o0.q2."2.
     735:	3d 32 03 3f 32 04 41 32 05 43 32 06 45 3c 0c 33     =2.?2.A2.C2.E<.3
     745:	3c 0b 61 60 01 61 60 02 61 60 03 61 60 04 61 60     <.a`.a`.a`.a`.a`
     755:	05 61 60 06 61 60 07 61 60 08 61 60 09 61 60 0a     .a`.a`.a`.a`.a`.
     765:	61 3e 0c 33 3e 0b 63 62 01 63 62 02 63 62 03 63     a>.3>.cb.cb.cb.c
     775:	62 04 63 62 05 63 62 06 63 62 07 63 62 08 63 62     b.cb.cb.cb.cb.cb
     785:	09 63 62 0a 63 40 0c 33 40 0b 65 64 01 65 64 02     .cb.c@.3@.ed.ed.
     795:	65 64 03 65 64 04 65 64 05 65 64 06 65 64 07 65     ed.ed.ed.ed.ed.e
     7a5:	64 08 65 64 09 65 64 0a 65 42 0c 33 42 0b 67 66     d.ed.ed.eB.3B.gf
     7b5:	01 67 66 02 67 66 03 67 66 04 67 66 05 67 66 06     .gf.gf.gf.gf.gf.
     7c5:	67 66 07 67 66 08 67 66 09 67 66 0a 67 44 0c 33     gf.gf.gf.gf.gD.3
     7d5:	44 0b 69 68 01 69 68 02 69 68 03 69 68 04 69 68     D.ih.ih.ih.ih.ih
     7e5:	05 69 68 06 69 68 07 69 68 08 69 68 09 69 68 0a     .ih.ih.ih.ih.ih.
     7f5:	69 34 0c 22 34 02 37 34 03 39 36 0c 35 36 0b 6b     i4."4.74.96.56.k
     805:	6a 01 6b 6a 02 6b 6a 03 6b 6a 04 6b 6a 05 6b 6a     j.kj.kj.kj.kj.kj
     815:	06 6b 6a 07 6b 6a 08 6b 6a 09 6b 6a 0a 6b 38 0c     .kj.kj.kj.kj.k8.
     825:	35 38 0b 6d 6c 01 6d 6c 02 6d 6c 03 6d 6c 04 6d     58.ml.ml.ml.ml.m
     835:	6c 05 6d 6c 06 6d 6c 07 6d 6c 08 6d 6c 09 6d 6c     l.ml.ml.ml.ml.ml
     845:	0a 6d 25 0c 18 25 02 27 25 03 29 26 01 27 26 02     .m%..%.'%.)&.'&.
     855:	27 26 03 27 26 04 27 26 05 27 26 06 27 26 07 27     '&.'&.'&.'&.'&.'
     865:	26 08 27 26 09 27 26 0a 27 28 01 29 28 02 29 28     &.'&.'&.'(.)(.)(
     875:	03 29 28 04 29 28 05 29 28 06 29 28 07 29 28 08     .)(.)(.)(.)(.)(.
     885:	29 28 09 29 28 0a 29 00 00 00 00                    )(.)(.)....

00000890 <__ctors_end>:
     890:	11 24       	eor	r1, r1
     892:	1f be       	out	0x3f, r1	; 63
     894:	cf ef       	ldi	r28, 0xFF	; 255
     896:	d0 e4       	ldi	r29, 0x40	; 64
     898:	de bf       	out	0x3e, r29	; 62
     89a:	cd bf       	out	0x3d, r28	; 61

0000089c <__do_copy_data>:
     89c:	19 e0       	ldi	r17, 0x09	; 9
     89e:	a0 e0       	ldi	r26, 0x00	; 0
     8a0:	b1 e0       	ldi	r27, 0x01	; 1
     8a2:	ea e2       	ldi	r30, 0x2A	; 42
     8a4:	fd e4       	ldi	r31, 0x4D	; 77
     8a6:	00 e0       	ldi	r16, 0x00	; 0
     8a8:	0b bf       	out	0x3b, r16	; 59
     8aa:	02 c0       	rjmp	.+4      	; 0x8b0 <__do_copy_data+0x14>
     8ac:	07 90       	elpm	r0, Z+
     8ae:	0d 92       	st	X+, r0
     8b0:	ac 37       	cpi	r26, 0x7C	; 124
     8b2:	b1 07       	cpc	r27, r17
     8b4:	d9 f7       	brne	.-10     	; 0x8ac <__do_copy_data+0x10>

000008b6 <__do_clear_bss>:
     8b6:	2b e0       	ldi	r18, 0x0B	; 11
     8b8:	ac e7       	ldi	r26, 0x7C	; 124
     8ba:	b9 e0       	ldi	r27, 0x09	; 9
     8bc:	01 c0       	rjmp	.+2      	; 0x8c0 <.do_clear_bss_start>

000008be <.do_clear_bss_loop>:
     8be:	1d 92       	st	X+, r1

000008c0 <.do_clear_bss_start>:
     8c0:	aa 3d       	cpi	r26, 0xDA	; 218
     8c2:	b2 07       	cpc	r27, r18
     8c4:	e1 f7       	brne	.-8      	; 0x8be <.do_clear_bss_loop>
     8c6:	0e 94 3c 10 	call	0x2078	; 0x2078 <main>
     8ca:	0c 94 93 26 	jmp	0x4d26	; 0x4d26 <_exit>

000008ce <__bad_interrupt>:
     8ce:	98 cb       	rjmp	.-2256   	; 0x0 <__vectors>

000008d0 <EEPROM_read_consigne>:
extern unsigned char recurrence_a[90];
extern unsigned char recurrence_b[90];

void EEPROM_read_consigne(void)
{
	EEPROM_read(0,0,3);
     8d0:	43 e0       	ldi	r20, 0x03	; 3
     8d2:	60 e0       	ldi	r22, 0x00	; 0
     8d4:	80 e0       	ldi	r24, 0x00	; 0
     8d6:	ae d3       	rcall	.+1884   	; 0x1034 <EEPROM_read>
	consigne[0]=data_array[0];
     8d8:	ee e6       	ldi	r30, 0x6E	; 110
     8da:	fa e0       	ldi	r31, 0x0A	; 10
     8dc:	a8 e7       	ldi	r26, 0x78	; 120
     8de:	ba e0       	ldi	r27, 0x0A	; 10
     8e0:	8c 91       	ld	r24, X
     8e2:	80 83       	st	Z, r24
	consigne[1]=data_array[1];
     8e4:	11 96       	adiw	r26, 0x01	; 1
     8e6:	8c 91       	ld	r24, X
     8e8:	11 97       	sbiw	r26, 0x01	; 1
     8ea:	81 83       	std	Z+1, r24	; 0x01
	consigne[2]=data_array[2];
     8ec:	12 96       	adiw	r26, 0x02	; 2
     8ee:	8c 91       	ld	r24, X
     8f0:	82 83       	std	Z+2, r24	; 0x02
     8f2:	08 95       	ret

000008f4 <EEPROM_read_out>:
	
}

void EEPROM_read_out(void)
{
	EEPROM_read(0,3,3);
     8f4:	43 e0       	ldi	r20, 0x03	; 3
     8f6:	63 e0       	ldi	r22, 0x03	; 3
     8f8:	80 e0       	ldi	r24, 0x00	; 0
     8fa:	9c d3       	rcall	.+1848   	; 0x1034 <EEPROM_read>
	out[0]=data_array[0];
     8fc:	eb e6       	ldi	r30, 0x6B	; 107
     8fe:	fa e0       	ldi	r31, 0x0A	; 10
     900:	a8 e7       	ldi	r26, 0x78	; 120
     902:	ba e0       	ldi	r27, 0x0A	; 10
     904:	8c 91       	ld	r24, X
     906:	80 83       	st	Z, r24
	out[1]=data_array[1];
     908:	11 96       	adiw	r26, 0x01	; 1
     90a:	8c 91       	ld	r24, X
     90c:	11 97       	sbiw	r26, 0x01	; 1
     90e:	81 83       	std	Z+1, r24	; 0x01
	out[2]=data_array[2];
     910:	12 96       	adiw	r26, 0x02	; 2
     912:	8c 91       	ld	r24, X
     914:	82 83       	std	Z+2, r24	; 0x02
     916:	08 95       	ret

00000918 <EEPROM_read_alarme_high>:
}

void EEPROM_read_alarme_high(void)
{
	EEPROM_read(0,6,3);
     918:	43 e0       	ldi	r20, 0x03	; 3
     91a:	66 e0       	ldi	r22, 0x06	; 6
     91c:	80 e0       	ldi	r24, 0x00	; 0
     91e:	8a d3       	rcall	.+1812   	; 0x1034 <EEPROM_read>
	alarme_high[0]=data_array[0];
     920:	e8 e6       	ldi	r30, 0x68	; 104
     922:	fa e0       	ldi	r31, 0x0A	; 10
     924:	a8 e7       	ldi	r26, 0x78	; 120
     926:	ba e0       	ldi	r27, 0x0A	; 10
     928:	8c 91       	ld	r24, X
     92a:	80 83       	st	Z, r24
	alarme_high[1]=data_array[1];
     92c:	11 96       	adiw	r26, 0x01	; 1
     92e:	8c 91       	ld	r24, X
     930:	11 97       	sbiw	r26, 0x01	; 1
     932:	81 83       	std	Z+1, r24	; 0x01
	alarme_high[2]=data_array[2];
     934:	12 96       	adiw	r26, 0x02	; 2
     936:	8c 91       	ld	r24, X
     938:	82 83       	std	Z+2, r24	; 0x02
     93a:	08 95       	ret

0000093c <EEPROM_read_alarme_low>:
}

void EEPROM_read_alarme_low(void)
{
	EEPROM_read(0,9,3);
     93c:	43 e0       	ldi	r20, 0x03	; 3
     93e:	69 e0       	ldi	r22, 0x09	; 9
     940:	80 e0       	ldi	r24, 0x00	; 0
     942:	78 d3       	rcall	.+1776   	; 0x1034 <EEPROM_read>
	alarme_low[0]=data_array[0];
     944:	e5 e6       	ldi	r30, 0x65	; 101
     946:	fa e0       	ldi	r31, 0x0A	; 10
     948:	a8 e7       	ldi	r26, 0x78	; 120
     94a:	ba e0       	ldi	r27, 0x0A	; 10
     94c:	8c 91       	ld	r24, X
     94e:	80 83       	st	Z, r24
	alarme_low[1]=data_array[1];
     950:	11 96       	adiw	r26, 0x01	; 1
     952:	8c 91       	ld	r24, X
     954:	11 97       	sbiw	r26, 0x01	; 1
     956:	81 83       	std	Z+1, r24	; 0x01
	alarme_low[2]=data_array[2];
     958:	12 96       	adiw	r26, 0x02	; 2
     95a:	8c 91       	ld	r24, X
     95c:	82 83       	std	Z+2, r24	; 0x02
     95e:	08 95       	ret

00000960 <EEPROM_read_hysteresis_high>:
}

void EEPROM_read_hysteresis_high(void)
{
	EEPROM_read(0,12,3);
     960:	43 e0       	ldi	r20, 0x03	; 3
     962:	6c e0       	ldi	r22, 0x0C	; 12
     964:	80 e0       	ldi	r24, 0x00	; 0
     966:	66 d3       	rcall	.+1740   	; 0x1034 <EEPROM_read>
	hysteresis_high[0]=data_array[0];
     968:	ed e4       	ldi	r30, 0x4D	; 77
     96a:	fa e0       	ldi	r31, 0x0A	; 10
     96c:	a8 e7       	ldi	r26, 0x78	; 120
     96e:	ba e0       	ldi	r27, 0x0A	; 10
     970:	8c 91       	ld	r24, X
     972:	80 83       	st	Z, r24
	hysteresis_high[1]=data_array[1];
     974:	11 96       	adiw	r26, 0x01	; 1
     976:	8c 91       	ld	r24, X
     978:	11 97       	sbiw	r26, 0x01	; 1
     97a:	81 83       	std	Z+1, r24	; 0x01
	hysteresis_high[2]=data_array[2];
     97c:	12 96       	adiw	r26, 0x02	; 2
     97e:	8c 91       	ld	r24, X
     980:	82 83       	std	Z+2, r24	; 0x02
     982:	08 95       	ret

00000984 <EEPROM_read_hysteresis_low>:
}

void EEPROM_read_hysteresis_low(void)
{
	EEPROM_read(0,15,3);
     984:	43 e0       	ldi	r20, 0x03	; 3
     986:	6f e0       	ldi	r22, 0x0F	; 15
     988:	80 e0       	ldi	r24, 0x00	; 0
     98a:	54 d3       	rcall	.+1704   	; 0x1034 <EEPROM_read>
	hysteresis_low[0]=data_array[0];
     98c:	ea e4       	ldi	r30, 0x4A	; 74
     98e:	fa e0       	ldi	r31, 0x0A	; 10
     990:	a8 e7       	ldi	r26, 0x78	; 120
     992:	ba e0       	ldi	r27, 0x0A	; 10
     994:	8c 91       	ld	r24, X
     996:	80 83       	st	Z, r24
	hysteresis_low[1]=data_array[1];
     998:	11 96       	adiw	r26, 0x01	; 1
     99a:	8c 91       	ld	r24, X
     99c:	11 97       	sbiw	r26, 0x01	; 1
     99e:	81 83       	std	Z+1, r24	; 0x01
	hysteresis_low[2]=data_array[2];
     9a0:	12 96       	adiw	r26, 0x02	; 2
     9a2:	8c 91       	ld	r24, X
     9a4:	82 83       	std	Z+2, r24	; 0x02
     9a6:	08 95       	ret

000009a8 <EEPROM_read_bp>:
}

void EEPROM_read_bp(void)
{
	EEPROM_read(0,18,3);
     9a8:	43 e0       	ldi	r20, 0x03	; 3
     9aa:	62 e1       	ldi	r22, 0x12	; 18
     9ac:	80 e0       	ldi	r24, 0x00	; 0
     9ae:	42 d3       	rcall	.+1668   	; 0x1034 <EEPROM_read>
	bp[0]=data_array[0];
     9b0:	e2 e6       	ldi	r30, 0x62	; 98
     9b2:	fa e0       	ldi	r31, 0x0A	; 10
     9b4:	a8 e7       	ldi	r26, 0x78	; 120
     9b6:	ba e0       	ldi	r27, 0x0A	; 10
     9b8:	8c 91       	ld	r24, X
     9ba:	80 83       	st	Z, r24
	bp[1]=data_array[1];
     9bc:	11 96       	adiw	r26, 0x01	; 1
     9be:	8c 91       	ld	r24, X
     9c0:	11 97       	sbiw	r26, 0x01	; 1
     9c2:	81 83       	std	Z+1, r24	; 0x01
	bp[2]=data_array[2];
     9c4:	12 96       	adiw	r26, 0x02	; 2
     9c6:	8c 91       	ld	r24, X
     9c8:	82 83       	std	Z+2, r24	; 0x02
     9ca:	08 95       	ret

000009cc <EEPROM_read_ti>:
}

void EEPROM_read_ti(void)
{
	EEPROM_read(0,21,5);
     9cc:	45 e0       	ldi	r20, 0x05	; 5
     9ce:	65 e1       	ldi	r22, 0x15	; 21
     9d0:	80 e0       	ldi	r24, 0x00	; 0
     9d2:	30 d3       	rcall	.+1632   	; 0x1034 <EEPROM_read>
	ti[0]=data_array[0];
     9d4:	ed e5       	ldi	r30, 0x5D	; 93
     9d6:	fa e0       	ldi	r31, 0x0A	; 10
     9d8:	a8 e7       	ldi	r26, 0x78	; 120
     9da:	ba e0       	ldi	r27, 0x0A	; 10
     9dc:	8c 91       	ld	r24, X
     9de:	80 83       	st	Z, r24
	ti[1]=data_array[1];
     9e0:	11 96       	adiw	r26, 0x01	; 1
     9e2:	8c 91       	ld	r24, X
     9e4:	11 97       	sbiw	r26, 0x01	; 1
     9e6:	81 83       	std	Z+1, r24	; 0x01
	ti[2]=data_array[2];
     9e8:	12 96       	adiw	r26, 0x02	; 2
     9ea:	8c 91       	ld	r24, X
     9ec:	12 97       	sbiw	r26, 0x02	; 2
     9ee:	82 83       	std	Z+2, r24	; 0x02
	ti[3]=data_array[3];
     9f0:	13 96       	adiw	r26, 0x03	; 3
     9f2:	8c 91       	ld	r24, X
     9f4:	13 97       	sbiw	r26, 0x03	; 3
     9f6:	83 83       	std	Z+3, r24	; 0x03
	ti[4]=data_array[4];
     9f8:	14 96       	adiw	r26, 0x04	; 4
     9fa:	8c 91       	ld	r24, X
     9fc:	84 83       	std	Z+4, r24	; 0x04
     9fe:	08 95       	ret

00000a00 <EEPROM_read_td>:
}

void EEPROM_read_td(void)
{
	EEPROM_read(0,26,5);
     a00:	45 e0       	ldi	r20, 0x05	; 5
     a02:	6a e1       	ldi	r22, 0x1A	; 26
     a04:	80 e0       	ldi	r24, 0x00	; 0
     a06:	16 d3       	rcall	.+1580   	; 0x1034 <EEPROM_read>
	td[0]=data_array[0];
     a08:	e8 e5       	ldi	r30, 0x58	; 88
     a0a:	fa e0       	ldi	r31, 0x0A	; 10
     a0c:	a8 e7       	ldi	r26, 0x78	; 120
     a0e:	ba e0       	ldi	r27, 0x0A	; 10
     a10:	8c 91       	ld	r24, X
     a12:	80 83       	st	Z, r24
	td[1]=data_array[1];
     a14:	11 96       	adiw	r26, 0x01	; 1
     a16:	8c 91       	ld	r24, X
     a18:	11 97       	sbiw	r26, 0x01	; 1
     a1a:	81 83       	std	Z+1, r24	; 0x01
	td[2]=data_array[2];
     a1c:	12 96       	adiw	r26, 0x02	; 2
     a1e:	8c 91       	ld	r24, X
     a20:	12 97       	sbiw	r26, 0x02	; 2
     a22:	82 83       	std	Z+2, r24	; 0x02
	td[3]=data_array[3];
     a24:	13 96       	adiw	r26, 0x03	; 3
     a26:	8c 91       	ld	r24, X
     a28:	13 97       	sbiw	r26, 0x03	; 3
     a2a:	83 83       	std	Z+3, r24	; 0x03
	td[4]=data_array[4];
     a2c:	14 96       	adiw	r26, 0x04	; 4
     a2e:	8c 91       	ld	r24, X
     a30:	84 83       	std	Z+4, r24	; 0x04
     a32:	08 95       	ret

00000a34 <EEPROM_read_te>:
}

void EEPROM_read_te(void)
{
	EEPROM_read(0,31,5);
     a34:	45 e0       	ldi	r20, 0x05	; 5
     a36:	6f e1       	ldi	r22, 0x1F	; 31
     a38:	80 e0       	ldi	r24, 0x00	; 0
     a3a:	fc d2       	rcall	.+1528   	; 0x1034 <EEPROM_read>
	te[0]=data_array[0];
     a3c:	e3 e5       	ldi	r30, 0x53	; 83
     a3e:	fa e0       	ldi	r31, 0x0A	; 10
     a40:	a8 e7       	ldi	r26, 0x78	; 120
     a42:	ba e0       	ldi	r27, 0x0A	; 10
     a44:	8c 91       	ld	r24, X
     a46:	80 83       	st	Z, r24
	te[1]=data_array[1];
     a48:	11 96       	adiw	r26, 0x01	; 1
     a4a:	8c 91       	ld	r24, X
     a4c:	11 97       	sbiw	r26, 0x01	; 1
     a4e:	81 83       	std	Z+1, r24	; 0x01
	te[2]=data_array[2];
     a50:	12 96       	adiw	r26, 0x02	; 2
     a52:	8c 91       	ld	r24, X
     a54:	12 97       	sbiw	r26, 0x02	; 2
     a56:	82 83       	std	Z+2, r24	; 0x02
	te[3]=data_array[3];
     a58:	13 96       	adiw	r26, 0x03	; 3
     a5a:	8c 91       	ld	r24, X
     a5c:	13 97       	sbiw	r26, 0x03	; 3
     a5e:	83 83       	std	Z+3, r24	; 0x03
	te[4]=data_array[4];
     a60:	14 96       	adiw	r26, 0x04	; 4
     a62:	8c 91       	ld	r24, X
     a64:	84 83       	std	Z+4, r24	; 0x04
     a66:	08 95       	ret

00000a68 <EEPROM_read_out0>:
}

void EEPROM_read_out0(void)
{
	EEPROM_read(0,36,3);
     a68:	43 e0       	ldi	r20, 0x03	; 3
     a6a:	64 e2       	ldi	r22, 0x24	; 36
     a6c:	80 e0       	ldi	r24, 0x00	; 0
     a6e:	e2 d2       	rcall	.+1476   	; 0x1034 <EEPROM_read>
	out0[0]=data_array[0];
     a70:	e0 e5       	ldi	r30, 0x50	; 80
     a72:	fa e0       	ldi	r31, 0x0A	; 10
     a74:	a8 e7       	ldi	r26, 0x78	; 120
     a76:	ba e0       	ldi	r27, 0x0A	; 10
     a78:	8c 91       	ld	r24, X
     a7a:	80 83       	st	Z, r24
	out0[1]=data_array[1];
     a7c:	11 96       	adiw	r26, 0x01	; 1
     a7e:	8c 91       	ld	r24, X
     a80:	11 97       	sbiw	r26, 0x01	; 1
     a82:	81 83       	std	Z+1, r24	; 0x01
	out0[2]=data_array[2];
     a84:	12 96       	adiw	r26, 0x02	; 2
     a86:	8c 91       	ld	r24, X
     a88:	82 83       	std	Z+2, r24	; 0x02
     a8a:	08 95       	ret

00000a8c <EEPROM_read_recurrence_a>:
}

void EEPROM_read_recurrence_a(void)
{
	EEPROM_read(0,128,89);
     a8c:	49 e5       	ldi	r20, 0x59	; 89
     a8e:	60 e8       	ldi	r22, 0x80	; 128
     a90:	80 e0       	ldi	r24, 0x00	; 0
     a92:	d0 d2       	rcall	.+1440   	; 0x1034 <EEPROM_read>
	recurrence_a[0]=data_array[0];
     a94:	e0 ef       	ldi	r30, 0xF0	; 240
     a96:	f9 e0       	ldi	r31, 0x09	; 9
     a98:	a8 e7       	ldi	r26, 0x78	; 120
     a9a:	ba e0       	ldi	r27, 0x0A	; 10
     a9c:	8c 91       	ld	r24, X
     a9e:	80 83       	st	Z, r24
	recurrence_a[1]=data_array[1];
     aa0:	11 96       	adiw	r26, 0x01	; 1
     aa2:	8c 91       	ld	r24, X
     aa4:	11 97       	sbiw	r26, 0x01	; 1
     aa6:	81 83       	std	Z+1, r24	; 0x01
	recurrence_a[2]=data_array[2];
     aa8:	12 96       	adiw	r26, 0x02	; 2
     aaa:	8c 91       	ld	r24, X
     aac:	12 97       	sbiw	r26, 0x02	; 2
     aae:	82 83       	std	Z+2, r24	; 0x02
	recurrence_a[3]=data_array[3];
     ab0:	13 96       	adiw	r26, 0x03	; 3
     ab2:	8c 91       	ld	r24, X
     ab4:	13 97       	sbiw	r26, 0x03	; 3
     ab6:	83 83       	std	Z+3, r24	; 0x03
	recurrence_a[4]=data_array[4];
     ab8:	14 96       	adiw	r26, 0x04	; 4
     aba:	8c 91       	ld	r24, X
     abc:	14 97       	sbiw	r26, 0x04	; 4
     abe:	84 83       	std	Z+4, r24	; 0x04
	recurrence_a[5]=data_array[5];
     ac0:	15 96       	adiw	r26, 0x05	; 5
     ac2:	8c 91       	ld	r24, X
     ac4:	15 97       	sbiw	r26, 0x05	; 5
     ac6:	85 83       	std	Z+5, r24	; 0x05
	recurrence_a[6]=data_array[6];
     ac8:	16 96       	adiw	r26, 0x06	; 6
     aca:	8c 91       	ld	r24, X
     acc:	16 97       	sbiw	r26, 0x06	; 6
     ace:	86 83       	std	Z+6, r24	; 0x06
	recurrence_a[7]=data_array[7];
     ad0:	17 96       	adiw	r26, 0x07	; 7
     ad2:	8c 91       	ld	r24, X
     ad4:	17 97       	sbiw	r26, 0x07	; 7
     ad6:	87 83       	std	Z+7, r24	; 0x07
	recurrence_a[8]=data_array[8];
     ad8:	18 96       	adiw	r26, 0x08	; 8
     ada:	8c 91       	ld	r24, X
     adc:	18 97       	sbiw	r26, 0x08	; 8
     ade:	80 87       	std	Z+8, r24	; 0x08
	recurrence_a[9]=data_array[9];
     ae0:	19 96       	adiw	r26, 0x09	; 9
     ae2:	8c 91       	ld	r24, X
     ae4:	19 97       	sbiw	r26, 0x09	; 9
     ae6:	81 87       	std	Z+9, r24	; 0x09
	recurrence_a[10]=data_array[10];
     ae8:	1a 96       	adiw	r26, 0x0a	; 10
     aea:	8c 91       	ld	r24, X
     aec:	1a 97       	sbiw	r26, 0x0a	; 10
     aee:	82 87       	std	Z+10, r24	; 0x0a
	recurrence_a[11]=data_array[11];
     af0:	1b 96       	adiw	r26, 0x0b	; 11
     af2:	8c 91       	ld	r24, X
     af4:	1b 97       	sbiw	r26, 0x0b	; 11
     af6:	83 87       	std	Z+11, r24	; 0x0b
	recurrence_a[12]=data_array[12];
     af8:	1c 96       	adiw	r26, 0x0c	; 12
     afa:	8c 91       	ld	r24, X
     afc:	1c 97       	sbiw	r26, 0x0c	; 12
     afe:	84 87       	std	Z+12, r24	; 0x0c
	recurrence_a[13]=data_array[13];
     b00:	1d 96       	adiw	r26, 0x0d	; 13
     b02:	8c 91       	ld	r24, X
     b04:	1d 97       	sbiw	r26, 0x0d	; 13
     b06:	85 87       	std	Z+13, r24	; 0x0d
	
	recurrence_a[14]=data_array[14];
     b08:	1e 96       	adiw	r26, 0x0e	; 14
     b0a:	8c 91       	ld	r24, X
     b0c:	1e 97       	sbiw	r26, 0x0e	; 14
     b0e:	86 87       	std	Z+14, r24	; 0x0e
	recurrence_a[15]=data_array[15];
     b10:	1f 96       	adiw	r26, 0x0f	; 15
     b12:	8c 91       	ld	r24, X
     b14:	1f 97       	sbiw	r26, 0x0f	; 15
     b16:	87 87       	std	Z+15, r24	; 0x0f
	recurrence_a[16]=data_array[16];
     b18:	50 96       	adiw	r26, 0x10	; 16
     b1a:	8c 91       	ld	r24, X
     b1c:	50 97       	sbiw	r26, 0x10	; 16
     b1e:	80 8b       	std	Z+16, r24	; 0x10
	recurrence_a[17]=data_array[17];
     b20:	51 96       	adiw	r26, 0x11	; 17
     b22:	8c 91       	ld	r24, X
     b24:	51 97       	sbiw	r26, 0x11	; 17
     b26:	81 8b       	std	Z+17, r24	; 0x11
	recurrence_a[18]=data_array[18];
     b28:	52 96       	adiw	r26, 0x12	; 18
     b2a:	8c 91       	ld	r24, X
     b2c:	52 97       	sbiw	r26, 0x12	; 18
     b2e:	82 8b       	std	Z+18, r24	; 0x12
	recurrence_a[19]=data_array[19];
     b30:	53 96       	adiw	r26, 0x13	; 19
     b32:	8c 91       	ld	r24, X
     b34:	53 97       	sbiw	r26, 0x13	; 19
     b36:	83 8b       	std	Z+19, r24	; 0x13
	recurrence_a[20]=data_array[20];
     b38:	54 96       	adiw	r26, 0x14	; 20
     b3a:	8c 91       	ld	r24, X
     b3c:	54 97       	sbiw	r26, 0x14	; 20
     b3e:	84 8b       	std	Z+20, r24	; 0x14
	recurrence_a[21]=data_array[21];
     b40:	55 96       	adiw	r26, 0x15	; 21
     b42:	8c 91       	ld	r24, X
     b44:	55 97       	sbiw	r26, 0x15	; 21
     b46:	85 8b       	std	Z+21, r24	; 0x15
	recurrence_a[22]=data_array[22];
     b48:	56 96       	adiw	r26, 0x16	; 22
     b4a:	8c 91       	ld	r24, X
     b4c:	56 97       	sbiw	r26, 0x16	; 22
     b4e:	86 8b       	std	Z+22, r24	; 0x16
	recurrence_a[23]=data_array[23];
     b50:	57 96       	adiw	r26, 0x17	; 23
     b52:	8c 91       	ld	r24, X
     b54:	57 97       	sbiw	r26, 0x17	; 23
     b56:	87 8b       	std	Z+23, r24	; 0x17
	recurrence_a[24]=data_array[24];
     b58:	58 96       	adiw	r26, 0x18	; 24
     b5a:	8c 91       	ld	r24, X
     b5c:	58 97       	sbiw	r26, 0x18	; 24
     b5e:	80 8f       	std	Z+24, r24	; 0x18
	recurrence_a[25]=data_array[25];
     b60:	59 96       	adiw	r26, 0x19	; 25
     b62:	8c 91       	ld	r24, X
     b64:	59 97       	sbiw	r26, 0x19	; 25
     b66:	81 8f       	std	Z+25, r24	; 0x19
	recurrence_a[26]=data_array[26];
     b68:	5a 96       	adiw	r26, 0x1a	; 26
     b6a:	8c 91       	ld	r24, X
     b6c:	5a 97       	sbiw	r26, 0x1a	; 26
     b6e:	82 8f       	std	Z+26, r24	; 0x1a
	recurrence_a[27]=data_array[27];
     b70:	5b 96       	adiw	r26, 0x1b	; 27
     b72:	8c 91       	ld	r24, X
     b74:	5b 97       	sbiw	r26, 0x1b	; 27
     b76:	83 8f       	std	Z+27, r24	; 0x1b
	
	recurrence_a[28]=data_array[28];
     b78:	5c 96       	adiw	r26, 0x1c	; 28
     b7a:	8c 91       	ld	r24, X
     b7c:	5c 97       	sbiw	r26, 0x1c	; 28
     b7e:	84 8f       	std	Z+28, r24	; 0x1c
	recurrence_a[29]=data_array[29];
     b80:	5d 96       	adiw	r26, 0x1d	; 29
     b82:	8c 91       	ld	r24, X
     b84:	5d 97       	sbiw	r26, 0x1d	; 29
     b86:	85 8f       	std	Z+29, r24	; 0x1d
	recurrence_a[30]=data_array[30];
     b88:	5e 96       	adiw	r26, 0x1e	; 30
     b8a:	8c 91       	ld	r24, X
     b8c:	5e 97       	sbiw	r26, 0x1e	; 30
     b8e:	86 8f       	std	Z+30, r24	; 0x1e
	recurrence_a[31]=data_array[31];
     b90:	5f 96       	adiw	r26, 0x1f	; 31
     b92:	8c 91       	ld	r24, X
     b94:	5f 97       	sbiw	r26, 0x1f	; 31
     b96:	87 8f       	std	Z+31, r24	; 0x1f
	recurrence_a[32]=data_array[32];
     b98:	90 96       	adiw	r26, 0x20	; 32
     b9a:	8c 91       	ld	r24, X
     b9c:	90 97       	sbiw	r26, 0x20	; 32
     b9e:	80 a3       	std	Z+32, r24	; 0x20
	recurrence_a[33]=data_array[33];
     ba0:	91 96       	adiw	r26, 0x21	; 33
     ba2:	8c 91       	ld	r24, X
     ba4:	91 97       	sbiw	r26, 0x21	; 33
     ba6:	81 a3       	std	Z+33, r24	; 0x21
	recurrence_a[34]=data_array[34];
     ba8:	92 96       	adiw	r26, 0x22	; 34
     baa:	8c 91       	ld	r24, X
     bac:	92 97       	sbiw	r26, 0x22	; 34
     bae:	82 a3       	std	Z+34, r24	; 0x22
	recurrence_a[35]=data_array[35];
     bb0:	93 96       	adiw	r26, 0x23	; 35
     bb2:	8c 91       	ld	r24, X
     bb4:	93 97       	sbiw	r26, 0x23	; 35
     bb6:	83 a3       	std	Z+35, r24	; 0x23
	recurrence_a[36]=data_array[36];
     bb8:	94 96       	adiw	r26, 0x24	; 36
     bba:	8c 91       	ld	r24, X
     bbc:	94 97       	sbiw	r26, 0x24	; 36
     bbe:	84 a3       	std	Z+36, r24	; 0x24
	recurrence_a[37]=data_array[37];
     bc0:	95 96       	adiw	r26, 0x25	; 37
     bc2:	8c 91       	ld	r24, X
     bc4:	95 97       	sbiw	r26, 0x25	; 37
     bc6:	85 a3       	std	Z+37, r24	; 0x25
	recurrence_a[38]=data_array[38];
     bc8:	96 96       	adiw	r26, 0x26	; 38
     bca:	8c 91       	ld	r24, X
     bcc:	96 97       	sbiw	r26, 0x26	; 38
     bce:	86 a3       	std	Z+38, r24	; 0x26
	recurrence_a[39]=data_array[39];
     bd0:	97 96       	adiw	r26, 0x27	; 39
     bd2:	8c 91       	ld	r24, X
     bd4:	97 97       	sbiw	r26, 0x27	; 39
     bd6:	87 a3       	std	Z+39, r24	; 0x27
	recurrence_a[40]=data_array[40];
     bd8:	98 96       	adiw	r26, 0x28	; 40
     bda:	8c 91       	ld	r24, X
     bdc:	98 97       	sbiw	r26, 0x28	; 40
     bde:	80 a7       	std	Z+40, r24	; 0x28
	recurrence_a[41]=data_array[41];
     be0:	99 96       	adiw	r26, 0x29	; 41
     be2:	8c 91       	ld	r24, X
     be4:	99 97       	sbiw	r26, 0x29	; 41
     be6:	81 a7       	std	Z+41, r24	; 0x29
	
	recurrence_a[42]=data_array[42];
     be8:	9a 96       	adiw	r26, 0x2a	; 42
     bea:	8c 91       	ld	r24, X
     bec:	9a 97       	sbiw	r26, 0x2a	; 42
     bee:	82 a7       	std	Z+42, r24	; 0x2a
	recurrence_a[43]=data_array[43];
     bf0:	9b 96       	adiw	r26, 0x2b	; 43
     bf2:	8c 91       	ld	r24, X
     bf4:	9b 97       	sbiw	r26, 0x2b	; 43
     bf6:	83 a7       	std	Z+43, r24	; 0x2b
	recurrence_a[44]=data_array[44];
     bf8:	9c 96       	adiw	r26, 0x2c	; 44
     bfa:	8c 91       	ld	r24, X
     bfc:	9c 97       	sbiw	r26, 0x2c	; 44
     bfe:	84 a7       	std	Z+44, r24	; 0x2c
	recurrence_a[45]=data_array[45];
     c00:	9d 96       	adiw	r26, 0x2d	; 45
     c02:	8c 91       	ld	r24, X
     c04:	9d 97       	sbiw	r26, 0x2d	; 45
     c06:	85 a7       	std	Z+45, r24	; 0x2d
	recurrence_a[46]=data_array[46];
     c08:	9e 96       	adiw	r26, 0x2e	; 46
     c0a:	8c 91       	ld	r24, X
     c0c:	9e 97       	sbiw	r26, 0x2e	; 46
     c0e:	86 a7       	std	Z+46, r24	; 0x2e
	recurrence_a[47]=data_array[47];
     c10:	9f 96       	adiw	r26, 0x2f	; 47
     c12:	8c 91       	ld	r24, X
     c14:	9f 97       	sbiw	r26, 0x2f	; 47
     c16:	87 a7       	std	Z+47, r24	; 0x2f
	recurrence_a[48]=data_array[48];
     c18:	d0 96       	adiw	r26, 0x30	; 48
     c1a:	8c 91       	ld	r24, X
     c1c:	d0 97       	sbiw	r26, 0x30	; 48
     c1e:	80 ab       	std	Z+48, r24	; 0x30
	recurrence_a[49]=data_array[49];
     c20:	d1 96       	adiw	r26, 0x31	; 49
     c22:	8c 91       	ld	r24, X
     c24:	d1 97       	sbiw	r26, 0x31	; 49
     c26:	81 ab       	std	Z+49, r24	; 0x31
	recurrence_a[50]=data_array[50];
     c28:	d2 96       	adiw	r26, 0x32	; 50
     c2a:	8c 91       	ld	r24, X
     c2c:	d2 97       	sbiw	r26, 0x32	; 50
     c2e:	82 ab       	std	Z+50, r24	; 0x32
	recurrence_a[51]=data_array[51];
     c30:	d3 96       	adiw	r26, 0x33	; 51
     c32:	8c 91       	ld	r24, X
     c34:	d3 97       	sbiw	r26, 0x33	; 51
     c36:	83 ab       	std	Z+51, r24	; 0x33
	recurrence_a[52]=data_array[52];
     c38:	d4 96       	adiw	r26, 0x34	; 52
     c3a:	8c 91       	ld	r24, X
     c3c:	d4 97       	sbiw	r26, 0x34	; 52
     c3e:	84 ab       	std	Z+52, r24	; 0x34
	recurrence_a[53]=data_array[53];
     c40:	d5 96       	adiw	r26, 0x35	; 53
     c42:	8c 91       	ld	r24, X
     c44:	d5 97       	sbiw	r26, 0x35	; 53
     c46:	85 ab       	std	Z+53, r24	; 0x35
	recurrence_a[54]=data_array[54];
     c48:	d6 96       	adiw	r26, 0x36	; 54
     c4a:	8c 91       	ld	r24, X
     c4c:	d6 97       	sbiw	r26, 0x36	; 54
     c4e:	86 ab       	std	Z+54, r24	; 0x36
	recurrence_a[55]=data_array[55];
     c50:	d7 96       	adiw	r26, 0x37	; 55
     c52:	8c 91       	ld	r24, X
     c54:	d7 97       	sbiw	r26, 0x37	; 55
     c56:	87 ab       	std	Z+55, r24	; 0x37
	
	recurrence_a[56]=data_array[56];
     c58:	d8 96       	adiw	r26, 0x38	; 56
     c5a:	8c 91       	ld	r24, X
     c5c:	d8 97       	sbiw	r26, 0x38	; 56
     c5e:	80 af       	std	Z+56, r24	; 0x38
	recurrence_a[57]=data_array[57];
     c60:	d9 96       	adiw	r26, 0x39	; 57
     c62:	8c 91       	ld	r24, X
     c64:	d9 97       	sbiw	r26, 0x39	; 57
     c66:	81 af       	std	Z+57, r24	; 0x39
	recurrence_a[58]=data_array[58];
     c68:	da 96       	adiw	r26, 0x3a	; 58
     c6a:	8c 91       	ld	r24, X
     c6c:	da 97       	sbiw	r26, 0x3a	; 58
     c6e:	82 af       	std	Z+58, r24	; 0x3a
	recurrence_a[59]=data_array[59];
     c70:	db 96       	adiw	r26, 0x3b	; 59
     c72:	8c 91       	ld	r24, X
     c74:	db 97       	sbiw	r26, 0x3b	; 59
     c76:	83 af       	std	Z+59, r24	; 0x3b
	recurrence_a[60]=data_array[60];
     c78:	dc 96       	adiw	r26, 0x3c	; 60
     c7a:	8c 91       	ld	r24, X
     c7c:	84 af       	std	Z+60, r24	; 0x3c
	recurrence_a[61]=data_array[61];
     c7e:	80 91 b5 0a 	lds	r24, 0x0AB5	; 0x800ab5 <data_array+0x3d>
     c82:	80 93 2d 0a 	sts	0x0A2D, r24	; 0x800a2d <recurrence_a+0x3d>
	recurrence_a[62]=data_array[62];
     c86:	80 91 b6 0a 	lds	r24, 0x0AB6	; 0x800ab6 <data_array+0x3e>
     c8a:	80 93 2e 0a 	sts	0x0A2E, r24	; 0x800a2e <recurrence_a+0x3e>
	recurrence_a[63]=data_array[63];
     c8e:	80 91 b7 0a 	lds	r24, 0x0AB7	; 0x800ab7 <data_array+0x3f>
     c92:	80 93 2f 0a 	sts	0x0A2F, r24	; 0x800a2f <recurrence_a+0x3f>
	recurrence_a[64]=data_array[64];
     c96:	80 91 b8 0a 	lds	r24, 0x0AB8	; 0x800ab8 <data_array+0x40>
     c9a:	80 93 30 0a 	sts	0x0A30, r24	; 0x800a30 <recurrence_a+0x40>
	recurrence_a[65]=data_array[65];
     c9e:	80 91 b9 0a 	lds	r24, 0x0AB9	; 0x800ab9 <data_array+0x41>
     ca2:	80 93 31 0a 	sts	0x0A31, r24	; 0x800a31 <recurrence_a+0x41>
	recurrence_a[66]=data_array[66];
     ca6:	80 91 ba 0a 	lds	r24, 0x0ABA	; 0x800aba <data_array+0x42>
     caa:	80 93 32 0a 	sts	0x0A32, r24	; 0x800a32 <recurrence_a+0x42>
	recurrence_a[67]=data_array[67];
     cae:	80 91 bb 0a 	lds	r24, 0x0ABB	; 0x800abb <data_array+0x43>
     cb2:	80 93 33 0a 	sts	0x0A33, r24	; 0x800a33 <recurrence_a+0x43>
	recurrence_a[68]=data_array[68];
     cb6:	80 91 bc 0a 	lds	r24, 0x0ABC	; 0x800abc <data_array+0x44>
     cba:	80 93 34 0a 	sts	0x0A34, r24	; 0x800a34 <recurrence_a+0x44>
	recurrence_a[69]=data_array[69];
     cbe:	80 91 bd 0a 	lds	r24, 0x0ABD	; 0x800abd <data_array+0x45>
     cc2:	80 93 35 0a 	sts	0x0A35, r24	; 0x800a35 <recurrence_a+0x45>
	
	recurrence_a[70]=data_array[70];
     cc6:	80 91 be 0a 	lds	r24, 0x0ABE	; 0x800abe <data_array+0x46>
     cca:	80 93 36 0a 	sts	0x0A36, r24	; 0x800a36 <recurrence_a+0x46>
	recurrence_a[71]=data_array[71];
     cce:	80 91 bf 0a 	lds	r24, 0x0ABF	; 0x800abf <data_array+0x47>
     cd2:	80 93 37 0a 	sts	0x0A37, r24	; 0x800a37 <recurrence_a+0x47>
	recurrence_a[72]=data_array[72];
     cd6:	80 91 c0 0a 	lds	r24, 0x0AC0	; 0x800ac0 <data_array+0x48>
     cda:	80 93 38 0a 	sts	0x0A38, r24	; 0x800a38 <recurrence_a+0x48>
	recurrence_a[73]=data_array[73];
     cde:	80 91 c1 0a 	lds	r24, 0x0AC1	; 0x800ac1 <data_array+0x49>
     ce2:	80 93 39 0a 	sts	0x0A39, r24	; 0x800a39 <recurrence_a+0x49>
	recurrence_a[74]=data_array[74];
     ce6:	80 91 c2 0a 	lds	r24, 0x0AC2	; 0x800ac2 <data_array+0x4a>
     cea:	80 93 3a 0a 	sts	0x0A3A, r24	; 0x800a3a <recurrence_a+0x4a>
	recurrence_a[75]=data_array[75];
     cee:	80 91 c3 0a 	lds	r24, 0x0AC3	; 0x800ac3 <data_array+0x4b>
     cf2:	80 93 3b 0a 	sts	0x0A3B, r24	; 0x800a3b <recurrence_a+0x4b>
	recurrence_a[76]=data_array[76];
     cf6:	80 91 c4 0a 	lds	r24, 0x0AC4	; 0x800ac4 <data_array+0x4c>
     cfa:	80 93 3c 0a 	sts	0x0A3C, r24	; 0x800a3c <recurrence_a+0x4c>
	recurrence_a[77]=data_array[77];
     cfe:	80 91 c5 0a 	lds	r24, 0x0AC5	; 0x800ac5 <data_array+0x4d>
     d02:	80 93 3d 0a 	sts	0x0A3D, r24	; 0x800a3d <recurrence_a+0x4d>
	recurrence_a[78]=data_array[78];
     d06:	80 91 c6 0a 	lds	r24, 0x0AC6	; 0x800ac6 <data_array+0x4e>
     d0a:	80 93 3e 0a 	sts	0x0A3E, r24	; 0x800a3e <recurrence_a+0x4e>
	recurrence_a[79]=data_array[79];
     d0e:	80 91 c7 0a 	lds	r24, 0x0AC7	; 0x800ac7 <data_array+0x4f>
     d12:	80 93 3f 0a 	sts	0x0A3F, r24	; 0x800a3f <recurrence_a+0x4f>
	recurrence_a[80]=data_array[80];
     d16:	80 91 c8 0a 	lds	r24, 0x0AC8	; 0x800ac8 <data_array+0x50>
     d1a:	80 93 40 0a 	sts	0x0A40, r24	; 0x800a40 <recurrence_a+0x50>
	recurrence_a[81]=data_array[81];
     d1e:	80 91 c9 0a 	lds	r24, 0x0AC9	; 0x800ac9 <data_array+0x51>
     d22:	80 93 41 0a 	sts	0x0A41, r24	; 0x800a41 <recurrence_a+0x51>
	recurrence_a[82]=data_array[82];
     d26:	80 91 ca 0a 	lds	r24, 0x0ACA	; 0x800aca <data_array+0x52>
     d2a:	80 93 42 0a 	sts	0x0A42, r24	; 0x800a42 <recurrence_a+0x52>
	recurrence_a[83]=data_array[83];
     d2e:	80 91 cb 0a 	lds	r24, 0x0ACB	; 0x800acb <data_array+0x53>
     d32:	80 93 43 0a 	sts	0x0A43, r24	; 0x800a43 <recurrence_a+0x53>
	
	recurrence_a[84]=data_array[84];
     d36:	80 91 cc 0a 	lds	r24, 0x0ACC	; 0x800acc <data_array+0x54>
     d3a:	80 93 44 0a 	sts	0x0A44, r24	; 0x800a44 <recurrence_a+0x54>
	recurrence_a[85]=data_array[85];
     d3e:	80 91 cd 0a 	lds	r24, 0x0ACD	; 0x800acd <data_array+0x55>
     d42:	80 93 45 0a 	sts	0x0A45, r24	; 0x800a45 <recurrence_a+0x55>
	recurrence_a[86]=data_array[86];
     d46:	80 91 ce 0a 	lds	r24, 0x0ACE	; 0x800ace <data_array+0x56>
     d4a:	80 93 46 0a 	sts	0x0A46, r24	; 0x800a46 <recurrence_a+0x56>
	recurrence_a[87]=data_array[87];
     d4e:	80 91 cf 0a 	lds	r24, 0x0ACF	; 0x800acf <data_array+0x57>
     d52:	80 93 47 0a 	sts	0x0A47, r24	; 0x800a47 <recurrence_a+0x57>
	recurrence_a[88]=data_array[88];
     d56:	80 91 d0 0a 	lds	r24, 0x0AD0	; 0x800ad0 <data_array+0x58>
     d5a:	80 93 48 0a 	sts	0x0A48, r24	; 0x800a48 <recurrence_a+0x58>
     d5e:	08 95       	ret

00000d60 <EEPROM_read_recurrence_b>:
	
}

void EEPROM_read_recurrence_b(void)
{
	EEPROM_read(1,0,89);
     d60:	49 e5       	ldi	r20, 0x59	; 89
     d62:	60 e0       	ldi	r22, 0x00	; 0
     d64:	81 e0       	ldi	r24, 0x01	; 1
     d66:	66 d1       	rcall	.+716    	; 0x1034 <EEPROM_read>
	recurrence_b[0]=data_array[0];
     d68:	e6 e9       	ldi	r30, 0x96	; 150
     d6a:	f9 e0       	ldi	r31, 0x09	; 9
     d6c:	a8 e7       	ldi	r26, 0x78	; 120
     d6e:	ba e0       	ldi	r27, 0x0A	; 10
     d70:	8c 91       	ld	r24, X
     d72:	80 83       	st	Z, r24
	recurrence_b[1]=data_array[1];
     d74:	11 96       	adiw	r26, 0x01	; 1
     d76:	8c 91       	ld	r24, X
     d78:	11 97       	sbiw	r26, 0x01	; 1
     d7a:	81 83       	std	Z+1, r24	; 0x01
	recurrence_b[2]=data_array[2];
     d7c:	12 96       	adiw	r26, 0x02	; 2
     d7e:	8c 91       	ld	r24, X
     d80:	12 97       	sbiw	r26, 0x02	; 2
     d82:	82 83       	std	Z+2, r24	; 0x02
	recurrence_b[3]=data_array[3];
     d84:	13 96       	adiw	r26, 0x03	; 3
     d86:	8c 91       	ld	r24, X
     d88:	13 97       	sbiw	r26, 0x03	; 3
     d8a:	83 83       	std	Z+3, r24	; 0x03
	recurrence_b[4]=data_array[4];
     d8c:	14 96       	adiw	r26, 0x04	; 4
     d8e:	8c 91       	ld	r24, X
     d90:	14 97       	sbiw	r26, 0x04	; 4
     d92:	84 83       	std	Z+4, r24	; 0x04
	recurrence_b[5]=data_array[5];
     d94:	15 96       	adiw	r26, 0x05	; 5
     d96:	8c 91       	ld	r24, X
     d98:	15 97       	sbiw	r26, 0x05	; 5
     d9a:	85 83       	std	Z+5, r24	; 0x05
	recurrence_b[6]=data_array[6];
     d9c:	16 96       	adiw	r26, 0x06	; 6
     d9e:	8c 91       	ld	r24, X
     da0:	16 97       	sbiw	r26, 0x06	; 6
     da2:	86 83       	std	Z+6, r24	; 0x06
	recurrence_b[7]=data_array[7];
     da4:	17 96       	adiw	r26, 0x07	; 7
     da6:	8c 91       	ld	r24, X
     da8:	17 97       	sbiw	r26, 0x07	; 7
     daa:	87 83       	std	Z+7, r24	; 0x07
	recurrence_b[8]=data_array[8];
     dac:	18 96       	adiw	r26, 0x08	; 8
     dae:	8c 91       	ld	r24, X
     db0:	18 97       	sbiw	r26, 0x08	; 8
     db2:	80 87       	std	Z+8, r24	; 0x08
	recurrence_b[9]=data_array[9];
     db4:	19 96       	adiw	r26, 0x09	; 9
     db6:	8c 91       	ld	r24, X
     db8:	19 97       	sbiw	r26, 0x09	; 9
     dba:	81 87       	std	Z+9, r24	; 0x09
	recurrence_b[10]=data_array[10];
     dbc:	1a 96       	adiw	r26, 0x0a	; 10
     dbe:	8c 91       	ld	r24, X
     dc0:	1a 97       	sbiw	r26, 0x0a	; 10
     dc2:	82 87       	std	Z+10, r24	; 0x0a
	recurrence_b[11]=data_array[11];
     dc4:	1b 96       	adiw	r26, 0x0b	; 11
     dc6:	8c 91       	ld	r24, X
     dc8:	1b 97       	sbiw	r26, 0x0b	; 11
     dca:	83 87       	std	Z+11, r24	; 0x0b
	recurrence_b[12]=data_array[12];
     dcc:	1c 96       	adiw	r26, 0x0c	; 12
     dce:	8c 91       	ld	r24, X
     dd0:	1c 97       	sbiw	r26, 0x0c	; 12
     dd2:	84 87       	std	Z+12, r24	; 0x0c
	recurrence_b[13]=data_array[13];
     dd4:	1d 96       	adiw	r26, 0x0d	; 13
     dd6:	8c 91       	ld	r24, X
     dd8:	1d 97       	sbiw	r26, 0x0d	; 13
     dda:	85 87       	std	Z+13, r24	; 0x0d
	
	recurrence_b[14]=data_array[14];
     ddc:	1e 96       	adiw	r26, 0x0e	; 14
     dde:	8c 91       	ld	r24, X
     de0:	1e 97       	sbiw	r26, 0x0e	; 14
     de2:	86 87       	std	Z+14, r24	; 0x0e
	recurrence_b[15]=data_array[15];
     de4:	1f 96       	adiw	r26, 0x0f	; 15
     de6:	8c 91       	ld	r24, X
     de8:	1f 97       	sbiw	r26, 0x0f	; 15
     dea:	87 87       	std	Z+15, r24	; 0x0f
	recurrence_b[16]=data_array[16];
     dec:	50 96       	adiw	r26, 0x10	; 16
     dee:	8c 91       	ld	r24, X
     df0:	50 97       	sbiw	r26, 0x10	; 16
     df2:	80 8b       	std	Z+16, r24	; 0x10
	recurrence_b[17]=data_array[17];
     df4:	51 96       	adiw	r26, 0x11	; 17
     df6:	8c 91       	ld	r24, X
     df8:	51 97       	sbiw	r26, 0x11	; 17
     dfa:	81 8b       	std	Z+17, r24	; 0x11
	recurrence_b[18]=data_array[18];
     dfc:	52 96       	adiw	r26, 0x12	; 18
     dfe:	8c 91       	ld	r24, X
     e00:	52 97       	sbiw	r26, 0x12	; 18
     e02:	82 8b       	std	Z+18, r24	; 0x12
	recurrence_b[19]=data_array[19];
     e04:	53 96       	adiw	r26, 0x13	; 19
     e06:	8c 91       	ld	r24, X
     e08:	53 97       	sbiw	r26, 0x13	; 19
     e0a:	83 8b       	std	Z+19, r24	; 0x13
	recurrence_b[20]=data_array[20];
     e0c:	54 96       	adiw	r26, 0x14	; 20
     e0e:	8c 91       	ld	r24, X
     e10:	54 97       	sbiw	r26, 0x14	; 20
     e12:	84 8b       	std	Z+20, r24	; 0x14
	recurrence_b[21]=data_array[21];
     e14:	55 96       	adiw	r26, 0x15	; 21
     e16:	8c 91       	ld	r24, X
     e18:	55 97       	sbiw	r26, 0x15	; 21
     e1a:	85 8b       	std	Z+21, r24	; 0x15
	recurrence_b[22]=data_array[22];
     e1c:	56 96       	adiw	r26, 0x16	; 22
     e1e:	8c 91       	ld	r24, X
     e20:	56 97       	sbiw	r26, 0x16	; 22
     e22:	86 8b       	std	Z+22, r24	; 0x16
	recurrence_b[23]=data_array[23];
     e24:	57 96       	adiw	r26, 0x17	; 23
     e26:	8c 91       	ld	r24, X
     e28:	57 97       	sbiw	r26, 0x17	; 23
     e2a:	87 8b       	std	Z+23, r24	; 0x17
	recurrence_b[24]=data_array[24];
     e2c:	58 96       	adiw	r26, 0x18	; 24
     e2e:	8c 91       	ld	r24, X
     e30:	58 97       	sbiw	r26, 0x18	; 24
     e32:	80 8f       	std	Z+24, r24	; 0x18
	recurrence_b[25]=data_array[25];
     e34:	59 96       	adiw	r26, 0x19	; 25
     e36:	8c 91       	ld	r24, X
     e38:	59 97       	sbiw	r26, 0x19	; 25
     e3a:	81 8f       	std	Z+25, r24	; 0x19
	recurrence_b[26]=data_array[26];
     e3c:	5a 96       	adiw	r26, 0x1a	; 26
     e3e:	8c 91       	ld	r24, X
     e40:	5a 97       	sbiw	r26, 0x1a	; 26
     e42:	82 8f       	std	Z+26, r24	; 0x1a
	recurrence_b[27]=data_array[27];
     e44:	5b 96       	adiw	r26, 0x1b	; 27
     e46:	8c 91       	ld	r24, X
     e48:	5b 97       	sbiw	r26, 0x1b	; 27
     e4a:	83 8f       	std	Z+27, r24	; 0x1b
	
	recurrence_b[28]=data_array[28];
     e4c:	5c 96       	adiw	r26, 0x1c	; 28
     e4e:	8c 91       	ld	r24, X
     e50:	5c 97       	sbiw	r26, 0x1c	; 28
     e52:	84 8f       	std	Z+28, r24	; 0x1c
	recurrence_b[29]=data_array[29];
     e54:	5d 96       	adiw	r26, 0x1d	; 29
     e56:	8c 91       	ld	r24, X
     e58:	5d 97       	sbiw	r26, 0x1d	; 29
     e5a:	85 8f       	std	Z+29, r24	; 0x1d
	recurrence_b[30]=data_array[30];
     e5c:	5e 96       	adiw	r26, 0x1e	; 30
     e5e:	8c 91       	ld	r24, X
     e60:	5e 97       	sbiw	r26, 0x1e	; 30
     e62:	86 8f       	std	Z+30, r24	; 0x1e
	recurrence_b[31]=data_array[31];
     e64:	5f 96       	adiw	r26, 0x1f	; 31
     e66:	8c 91       	ld	r24, X
     e68:	5f 97       	sbiw	r26, 0x1f	; 31
     e6a:	87 8f       	std	Z+31, r24	; 0x1f
	recurrence_b[32]=data_array[32];
     e6c:	90 96       	adiw	r26, 0x20	; 32
     e6e:	8c 91       	ld	r24, X
     e70:	90 97       	sbiw	r26, 0x20	; 32
     e72:	80 a3       	std	Z+32, r24	; 0x20
	recurrence_b[33]=data_array[33];
     e74:	91 96       	adiw	r26, 0x21	; 33
     e76:	8c 91       	ld	r24, X
     e78:	91 97       	sbiw	r26, 0x21	; 33
     e7a:	81 a3       	std	Z+33, r24	; 0x21
	recurrence_b[34]=data_array[34];
     e7c:	92 96       	adiw	r26, 0x22	; 34
     e7e:	8c 91       	ld	r24, X
     e80:	92 97       	sbiw	r26, 0x22	; 34
     e82:	82 a3       	std	Z+34, r24	; 0x22
	recurrence_b[35]=data_array[35];
     e84:	93 96       	adiw	r26, 0x23	; 35
     e86:	8c 91       	ld	r24, X
     e88:	93 97       	sbiw	r26, 0x23	; 35
     e8a:	83 a3       	std	Z+35, r24	; 0x23
	recurrence_b[36]=data_array[36];
     e8c:	94 96       	adiw	r26, 0x24	; 36
     e8e:	8c 91       	ld	r24, X
     e90:	94 97       	sbiw	r26, 0x24	; 36
     e92:	84 a3       	std	Z+36, r24	; 0x24
	recurrence_b[37]=data_array[37];
     e94:	95 96       	adiw	r26, 0x25	; 37
     e96:	8c 91       	ld	r24, X
     e98:	95 97       	sbiw	r26, 0x25	; 37
     e9a:	85 a3       	std	Z+37, r24	; 0x25
	recurrence_b[38]=data_array[38];
     e9c:	96 96       	adiw	r26, 0x26	; 38
     e9e:	8c 91       	ld	r24, X
     ea0:	96 97       	sbiw	r26, 0x26	; 38
     ea2:	86 a3       	std	Z+38, r24	; 0x26
	recurrence_b[39]=data_array[39];
     ea4:	97 96       	adiw	r26, 0x27	; 39
     ea6:	8c 91       	ld	r24, X
     ea8:	97 97       	sbiw	r26, 0x27	; 39
     eaa:	87 a3       	std	Z+39, r24	; 0x27
	recurrence_b[40]=data_array[40];
     eac:	98 96       	adiw	r26, 0x28	; 40
     eae:	8c 91       	ld	r24, X
     eb0:	98 97       	sbiw	r26, 0x28	; 40
     eb2:	80 a7       	std	Z+40, r24	; 0x28
	recurrence_b[41]=data_array[41];
     eb4:	99 96       	adiw	r26, 0x29	; 41
     eb6:	8c 91       	ld	r24, X
     eb8:	99 97       	sbiw	r26, 0x29	; 41
     eba:	81 a7       	std	Z+41, r24	; 0x29
	
	recurrence_b[42]=data_array[42];
     ebc:	9a 96       	adiw	r26, 0x2a	; 42
     ebe:	8c 91       	ld	r24, X
     ec0:	9a 97       	sbiw	r26, 0x2a	; 42
     ec2:	82 a7       	std	Z+42, r24	; 0x2a
	recurrence_b[43]=data_array[43];
     ec4:	9b 96       	adiw	r26, 0x2b	; 43
     ec6:	8c 91       	ld	r24, X
     ec8:	9b 97       	sbiw	r26, 0x2b	; 43
     eca:	83 a7       	std	Z+43, r24	; 0x2b
	recurrence_b[44]=data_array[44];
     ecc:	9c 96       	adiw	r26, 0x2c	; 44
     ece:	8c 91       	ld	r24, X
     ed0:	9c 97       	sbiw	r26, 0x2c	; 44
     ed2:	84 a7       	std	Z+44, r24	; 0x2c
	recurrence_b[45]=data_array[45];
     ed4:	9d 96       	adiw	r26, 0x2d	; 45
     ed6:	8c 91       	ld	r24, X
     ed8:	9d 97       	sbiw	r26, 0x2d	; 45
     eda:	85 a7       	std	Z+45, r24	; 0x2d
	recurrence_b[46]=data_array[46];
     edc:	9e 96       	adiw	r26, 0x2e	; 46
     ede:	8c 91       	ld	r24, X
     ee0:	9e 97       	sbiw	r26, 0x2e	; 46
     ee2:	86 a7       	std	Z+46, r24	; 0x2e
	recurrence_b[47]=data_array[47];
     ee4:	9f 96       	adiw	r26, 0x2f	; 47
     ee6:	8c 91       	ld	r24, X
     ee8:	9f 97       	sbiw	r26, 0x2f	; 47
     eea:	87 a7       	std	Z+47, r24	; 0x2f
	recurrence_b[48]=data_array[48];
     eec:	d0 96       	adiw	r26, 0x30	; 48
     eee:	8c 91       	ld	r24, X
     ef0:	d0 97       	sbiw	r26, 0x30	; 48
     ef2:	80 ab       	std	Z+48, r24	; 0x30
	recurrence_b[49]=data_array[49];
     ef4:	d1 96       	adiw	r26, 0x31	; 49
     ef6:	8c 91       	ld	r24, X
     ef8:	d1 97       	sbiw	r26, 0x31	; 49
     efa:	81 ab       	std	Z+49, r24	; 0x31
	recurrence_b[50]=data_array[50];
     efc:	d2 96       	adiw	r26, 0x32	; 50
     efe:	8c 91       	ld	r24, X
     f00:	d2 97       	sbiw	r26, 0x32	; 50
     f02:	82 ab       	std	Z+50, r24	; 0x32
	recurrence_b[51]=data_array[51];
     f04:	d3 96       	adiw	r26, 0x33	; 51
     f06:	8c 91       	ld	r24, X
     f08:	d3 97       	sbiw	r26, 0x33	; 51
     f0a:	83 ab       	std	Z+51, r24	; 0x33
	recurrence_b[52]=data_array[52];
     f0c:	d4 96       	adiw	r26, 0x34	; 52
     f0e:	8c 91       	ld	r24, X
     f10:	d4 97       	sbiw	r26, 0x34	; 52
     f12:	84 ab       	std	Z+52, r24	; 0x34
	recurrence_b[53]=data_array[53];
     f14:	d5 96       	adiw	r26, 0x35	; 53
     f16:	8c 91       	ld	r24, X
     f18:	d5 97       	sbiw	r26, 0x35	; 53
     f1a:	85 ab       	std	Z+53, r24	; 0x35
	recurrence_b[54]=data_array[54];
     f1c:	d6 96       	adiw	r26, 0x36	; 54
     f1e:	8c 91       	ld	r24, X
     f20:	d6 97       	sbiw	r26, 0x36	; 54
     f22:	86 ab       	std	Z+54, r24	; 0x36
	recurrence_b[55]=data_array[55];
     f24:	d7 96       	adiw	r26, 0x37	; 55
     f26:	8c 91       	ld	r24, X
     f28:	d7 97       	sbiw	r26, 0x37	; 55
     f2a:	87 ab       	std	Z+55, r24	; 0x37
	
	recurrence_b[56]=data_array[56];
     f2c:	d8 96       	adiw	r26, 0x38	; 56
     f2e:	8c 91       	ld	r24, X
     f30:	d8 97       	sbiw	r26, 0x38	; 56
     f32:	80 af       	std	Z+56, r24	; 0x38
	recurrence_b[57]=data_array[57];
     f34:	d9 96       	adiw	r26, 0x39	; 57
     f36:	8c 91       	ld	r24, X
     f38:	d9 97       	sbiw	r26, 0x39	; 57
     f3a:	81 af       	std	Z+57, r24	; 0x39
	recurrence_b[58]=data_array[58];
     f3c:	da 96       	adiw	r26, 0x3a	; 58
     f3e:	8c 91       	ld	r24, X
     f40:	da 97       	sbiw	r26, 0x3a	; 58
     f42:	82 af       	std	Z+58, r24	; 0x3a
	recurrence_b[59]=data_array[59];
     f44:	db 96       	adiw	r26, 0x3b	; 59
     f46:	8c 91       	ld	r24, X
     f48:	db 97       	sbiw	r26, 0x3b	; 59
     f4a:	83 af       	std	Z+59, r24	; 0x3b
	recurrence_b[60]=data_array[60];
     f4c:	dc 96       	adiw	r26, 0x3c	; 60
     f4e:	8c 91       	ld	r24, X
     f50:	84 af       	std	Z+60, r24	; 0x3c
	recurrence_b[61]=data_array[61];
     f52:	80 91 b5 0a 	lds	r24, 0x0AB5	; 0x800ab5 <data_array+0x3d>
     f56:	80 93 d3 09 	sts	0x09D3, r24	; 0x8009d3 <recurrence_b+0x3d>
	recurrence_b[62]=data_array[62];
     f5a:	80 91 b6 0a 	lds	r24, 0x0AB6	; 0x800ab6 <data_array+0x3e>
     f5e:	80 93 d4 09 	sts	0x09D4, r24	; 0x8009d4 <recurrence_b+0x3e>
	recurrence_b[63]=data_array[63];
     f62:	80 91 b7 0a 	lds	r24, 0x0AB7	; 0x800ab7 <data_array+0x3f>
     f66:	80 93 d5 09 	sts	0x09D5, r24	; 0x8009d5 <recurrence_b+0x3f>
	recurrence_b[64]=data_array[64];
     f6a:	80 91 b8 0a 	lds	r24, 0x0AB8	; 0x800ab8 <data_array+0x40>
     f6e:	80 93 d6 09 	sts	0x09D6, r24	; 0x8009d6 <recurrence_b+0x40>
	recurrence_b[65]=data_array[65];
     f72:	80 91 b9 0a 	lds	r24, 0x0AB9	; 0x800ab9 <data_array+0x41>
     f76:	80 93 d7 09 	sts	0x09D7, r24	; 0x8009d7 <recurrence_b+0x41>
	recurrence_b[66]=data_array[66];
     f7a:	80 91 ba 0a 	lds	r24, 0x0ABA	; 0x800aba <data_array+0x42>
     f7e:	80 93 d8 09 	sts	0x09D8, r24	; 0x8009d8 <recurrence_b+0x42>
	recurrence_b[67]=data_array[67];
     f82:	80 91 bb 0a 	lds	r24, 0x0ABB	; 0x800abb <data_array+0x43>
     f86:	80 93 d9 09 	sts	0x09D9, r24	; 0x8009d9 <recurrence_b+0x43>
	recurrence_b[68]=data_array[68];
     f8a:	80 91 bc 0a 	lds	r24, 0x0ABC	; 0x800abc <data_array+0x44>
     f8e:	80 93 da 09 	sts	0x09DA, r24	; 0x8009da <recurrence_b+0x44>
	recurrence_b[69]=data_array[69];
     f92:	80 91 bd 0a 	lds	r24, 0x0ABD	; 0x800abd <data_array+0x45>
     f96:	80 93 db 09 	sts	0x09DB, r24	; 0x8009db <recurrence_b+0x45>
	
	recurrence_b[70]=data_array[70];
     f9a:	80 91 be 0a 	lds	r24, 0x0ABE	; 0x800abe <data_array+0x46>
     f9e:	80 93 dc 09 	sts	0x09DC, r24	; 0x8009dc <recurrence_b+0x46>
	recurrence_b[71]=data_array[71];
     fa2:	80 91 bf 0a 	lds	r24, 0x0ABF	; 0x800abf <data_array+0x47>
     fa6:	80 93 dd 09 	sts	0x09DD, r24	; 0x8009dd <recurrence_b+0x47>
	recurrence_b[72]=data_array[72];
     faa:	80 91 c0 0a 	lds	r24, 0x0AC0	; 0x800ac0 <data_array+0x48>
     fae:	80 93 de 09 	sts	0x09DE, r24	; 0x8009de <recurrence_b+0x48>
	recurrence_b[73]=data_array[73];
     fb2:	80 91 c1 0a 	lds	r24, 0x0AC1	; 0x800ac1 <data_array+0x49>
     fb6:	80 93 df 09 	sts	0x09DF, r24	; 0x8009df <recurrence_b+0x49>
	recurrence_b[74]=data_array[74];
     fba:	80 91 c2 0a 	lds	r24, 0x0AC2	; 0x800ac2 <data_array+0x4a>
     fbe:	80 93 e0 09 	sts	0x09E0, r24	; 0x8009e0 <recurrence_b+0x4a>
	recurrence_b[75]=data_array[75];
     fc2:	80 91 c3 0a 	lds	r24, 0x0AC3	; 0x800ac3 <data_array+0x4b>
     fc6:	80 93 e1 09 	sts	0x09E1, r24	; 0x8009e1 <recurrence_b+0x4b>
	recurrence_b[76]=data_array[76];
     fca:	80 91 c4 0a 	lds	r24, 0x0AC4	; 0x800ac4 <data_array+0x4c>
     fce:	80 93 e2 09 	sts	0x09E2, r24	; 0x8009e2 <recurrence_b+0x4c>
	recurrence_b[77]=data_array[77];
     fd2:	80 91 c5 0a 	lds	r24, 0x0AC5	; 0x800ac5 <data_array+0x4d>
     fd6:	80 93 e3 09 	sts	0x09E3, r24	; 0x8009e3 <recurrence_b+0x4d>
	recurrence_b[78]=data_array[78];
     fda:	80 91 c6 0a 	lds	r24, 0x0AC6	; 0x800ac6 <data_array+0x4e>
     fde:	80 93 e4 09 	sts	0x09E4, r24	; 0x8009e4 <recurrence_b+0x4e>
	recurrence_b[79]=data_array[79];
     fe2:	80 91 c7 0a 	lds	r24, 0x0AC7	; 0x800ac7 <data_array+0x4f>
     fe6:	80 93 e5 09 	sts	0x09E5, r24	; 0x8009e5 <recurrence_b+0x4f>
	recurrence_b[80]=data_array[80];
     fea:	80 91 c8 0a 	lds	r24, 0x0AC8	; 0x800ac8 <data_array+0x50>
     fee:	80 93 e6 09 	sts	0x09E6, r24	; 0x8009e6 <recurrence_b+0x50>
	recurrence_b[81]=data_array[81];
     ff2:	80 91 c9 0a 	lds	r24, 0x0AC9	; 0x800ac9 <data_array+0x51>
     ff6:	80 93 e7 09 	sts	0x09E7, r24	; 0x8009e7 <recurrence_b+0x51>
	recurrence_b[82]=data_array[82];
     ffa:	80 91 ca 0a 	lds	r24, 0x0ACA	; 0x800aca <data_array+0x52>
     ffe:	80 93 e8 09 	sts	0x09E8, r24	; 0x8009e8 <recurrence_b+0x52>
	recurrence_b[83]=data_array[83];
    1002:	80 91 cb 0a 	lds	r24, 0x0ACB	; 0x800acb <data_array+0x53>
    1006:	80 93 e9 09 	sts	0x09E9, r24	; 0x8009e9 <recurrence_b+0x53>
	
	recurrence_b[84]=data_array[84];
    100a:	80 91 cc 0a 	lds	r24, 0x0ACC	; 0x800acc <data_array+0x54>
    100e:	80 93 ea 09 	sts	0x09EA, r24	; 0x8009ea <recurrence_b+0x54>
	recurrence_b[85]=data_array[85];
    1012:	80 91 cd 0a 	lds	r24, 0x0ACD	; 0x800acd <data_array+0x55>
    1016:	80 93 eb 09 	sts	0x09EB, r24	; 0x8009eb <recurrence_b+0x55>
	recurrence_b[86]=data_array[86];
    101a:	80 91 ce 0a 	lds	r24, 0x0ACE	; 0x800ace <data_array+0x56>
    101e:	80 93 ec 09 	sts	0x09EC, r24	; 0x8009ec <recurrence_b+0x56>
	recurrence_b[87]=data_array[87];
    1022:	80 91 cf 0a 	lds	r24, 0x0ACF	; 0x800acf <data_array+0x57>
    1026:	80 93 ed 09 	sts	0x09ED, r24	; 0x8009ed <recurrence_b+0x57>
	recurrence_b[88]=data_array[88];
    102a:	80 91 d0 0a 	lds	r24, 0x0AD0	; 0x800ad0 <data_array+0x58>
    102e:	80 93 ee 09 	sts	0x09EE, r24	; 0x8009ee <recurrence_b+0x58>
    1032:	08 95       	ret

00001034 <EEPROM_read>:
unsigned char data_array[160];
//******************************************************************
//Function to read given number of bytes from EEPROM 
//******************************************************************
unsigned char EEPROM_read(unsigned char highAddress, unsigned char lowAddress, unsigned char totalChar)
{
    1034:	af 92       	push	r10
    1036:	bf 92       	push	r11
    1038:	cf 92       	push	r12
    103a:	df 92       	push	r13
    103c:	ef 92       	push	r14
    103e:	ff 92       	push	r15
    1040:	0f 93       	push	r16
    1042:	1f 93       	push	r17
    1044:	cf 93       	push	r28
    1046:	df 93       	push	r29
    1048:	c8 2f       	mov	r28, r24
    104a:	d6 2f       	mov	r29, r22
    104c:	c4 2e       	mov	r12, r20
   unsigned char errorStatus, i, data;
   
   errorStatus = i2c_start();
    104e:	b0 d4       	rcall	.+2400   	; 0x19b0 <i2c_start>
   if(errorStatus == 1)
    1050:	81 30       	cpi	r24, 0x01	; 1
    1052:	39 f4       	brne	.+14     	; 0x1062 <EEPROM_read+0x2e>
   {
	 Usart_Tx_String("i2c start failed..");
    1054:	8a e0       	ldi	r24, 0x0A	; 10
    1056:	91 e0       	ldi	r25, 0x01	; 1
    1058:	0e 94 36 26 	call	0x4c6c	; 0x4c6c <Usart_Tx_String>
   	 i2c_stop();
    105c:	16 d5       	rcall	.+2604   	; 0x1a8a <i2c_stop>
	 return(1);
    105e:	81 e0       	ldi	r24, 0x01	; 1
    1060:	70 c0       	rjmp	.+224    	; 0x1142 <EEPROM_read+0x10e>
   } 
   
   errorStatus = i2c_sendAddress(EEPROM_W);
    1062:	80 ea       	ldi	r24, 0xA0	; 160
    1064:	c5 d4       	rcall	.+2442   	; 0x19f0 <i2c_sendAddress>
   
   if(errorStatus == 1)
    1066:	81 30       	cpi	r24, 0x01	; 1
    1068:	39 f4       	brne	.+14     	; 0x1078 <EEPROM_read+0x44>
   {
	 Usart_Tx_String("EEPROM sendAddress1 failed..");
    106a:	8d e1       	ldi	r24, 0x1D	; 29
    106c:	91 e0       	ldi	r25, 0x01	; 1
    106e:	0e 94 36 26 	call	0x4c6c	; 0x4c6c <Usart_Tx_String>
	 i2c_stop();
    1072:	0b d5       	rcall	.+2582   	; 0x1a8a <i2c_stop>
	 return(1);
    1074:	81 e0       	ldi	r24, 0x01	; 1
    1076:	65 c0       	rjmp	.+202    	; 0x1142 <EEPROM_read+0x10e>
   } 
   
   errorStatus = i2c_sendData(highAddress);
    1078:	8c 2f       	mov	r24, r28
    107a:	d1 d4       	rcall	.+2466   	; 0x1a1e <i2c_sendData>
   if(errorStatus == 1)
    107c:	81 30       	cpi	r24, 0x01	; 1
    107e:	39 f4       	brne	.+14     	; 0x108e <EEPROM_read+0x5a>
   {
	 Usart_Tx_String("EEPROM write-1 failed..");
    1080:	8a e3       	ldi	r24, 0x3A	; 58
    1082:	91 e0       	ldi	r25, 0x01	; 1
    1084:	0e 94 36 26 	call	0x4c6c	; 0x4c6c <Usart_Tx_String>
	 i2c_stop();
    1088:	00 d5       	rcall	.+2560   	; 0x1a8a <i2c_stop>
	 return(1);
    108a:	81 e0       	ldi	r24, 0x01	; 1
    108c:	5a c0       	rjmp	.+180    	; 0x1142 <EEPROM_read+0x10e>
   } 
   
 
   errorStatus = i2c_sendData(lowAddress);
    108e:	8d 2f       	mov	r24, r29
    1090:	c6 d4       	rcall	.+2444   	; 0x1a1e <i2c_sendData>
   if(errorStatus == 1)
    1092:	81 30       	cpi	r24, 0x01	; 1
    1094:	39 f4       	brne	.+14     	; 0x10a4 <EEPROM_read+0x70>
   {
	 Usart_Tx_String("EEPROM write-2 failed..");
    1096:	82 e5       	ldi	r24, 0x52	; 82
    1098:	91 e0       	ldi	r25, 0x01	; 1
    109a:	0e 94 36 26 	call	0x4c6c	; 0x4c6c <Usart_Tx_String>
	 i2c_stop();
    109e:	f5 d4       	rcall	.+2538   	; 0x1a8a <i2c_stop>
	 return(1);
    10a0:	81 e0       	ldi	r24, 0x01	; 1
    10a2:	4f c0       	rjmp	.+158    	; 0x1142 <EEPROM_read+0x10e>
   } 
   
   errorStatus = i2c_repeatStart();
    10a4:	95 d4       	rcall	.+2346   	; 0x19d0 <i2c_repeatStart>
   if(errorStatus == 1)
    10a6:	81 30       	cpi	r24, 0x01	; 1
    10a8:	39 f4       	brne	.+14     	; 0x10b8 <EEPROM_read+0x84>
   {
	 Usart_Tx_String("i2c repeat-start failed..");
    10aa:	8a e6       	ldi	r24, 0x6A	; 106
    10ac:	91 e0       	ldi	r25, 0x01	; 1
    10ae:	0e 94 36 26 	call	0x4c6c	; 0x4c6c <Usart_Tx_String>
	 i2c_stop();
    10b2:	eb d4       	rcall	.+2518   	; 0x1a8a <i2c_stop>
	 return(1);
    10b4:	81 e0       	ldi	r24, 0x01	; 1
    10b6:	45 c0       	rjmp	.+138    	; 0x1142 <EEPROM_read+0x10e>
   } 
   
   errorStatus = i2c_sendAddress(EEPROM_R);
    10b8:	81 ea       	ldi	r24, 0xA1	; 161
    10ba:	9a d4       	rcall	.+2356   	; 0x19f0 <i2c_sendAddress>
   if(errorStatus == 1)
    10bc:	81 30       	cpi	r24, 0x01	; 1
    10be:	19 f0       	breq	.+6      	; 0x10c6 <EEPROM_read+0x92>
	 Usart_Tx_String("EEPROM sendAddress2 failed..");
	 i2c_stop();
	 return(1);
   } 
   
   for(i=0;i<totalChar;i++)
    10c0:	c1 10       	cpse	r12, r1
    10c2:	08 c0       	rjmp	.+16     	; 0x10d4 <EEPROM_read+0xa0>
    10c4:	3c c0       	rjmp	.+120    	; 0x113e <EEPROM_read+0x10a>
   } 
   
   errorStatus = i2c_sendAddress(EEPROM_R);
   if(errorStatus == 1)
   {
	 Usart_Tx_String("EEPROM sendAddress2 failed..");
    10c6:	84 e8       	ldi	r24, 0x84	; 132
    10c8:	91 e0       	ldi	r25, 0x01	; 1
    10ca:	0e 94 36 26 	call	0x4c6c	; 0x4c6c <Usart_Tx_String>
	 i2c_stop();
    10ce:	dd d4       	rcall	.+2490   	; 0x1a8a <i2c_stop>
	 return(1);
    10d0:	81 e0       	ldi	r24, 0x01	; 1
    10d2:	37 c0       	rjmp	.+110    	; 0x1142 <EEPROM_read+0x10e>
    10d4:	0f 2e       	mov	r0, r31
    10d6:	f8 e7       	ldi	r31, 0x78	; 120
    10d8:	ef 2e       	mov	r14, r31
    10da:	fa e0       	ldi	r31, 0x0A	; 10
    10dc:	ff 2e       	mov	r15, r31
    10de:	f0 2d       	mov	r31, r0
    10e0:	aa 24       	eor	r10, r10
    10e2:	aa 94       	dec	r10
    10e4:	ac 0c       	add	r10, r12
    10e6:	b1 2c       	mov	r11, r1
    10e8:	8f ef       	ldi	r24, 0xFF	; 255
    10ea:	a8 1a       	sub	r10, r24
    10ec:	b8 0a       	sbc	r11, r24
   } 
   
   for(i=0;i<totalChar;i++)
    10ee:	c0 e0       	ldi	r28, 0x00	; 0
    10f0:	d0 e0       	ldi	r29, 0x00	; 0
   {
      if(i == (totalChar-1))  	 //no Acknowledge after receiving the last byte
    10f2:	d1 2c       	mov	r13, r1
    10f4:	e1 e0       	ldi	r30, 0x01	; 1
    10f6:	ce 1a       	sub	r12, r30
    10f8:	d1 08       	sbc	r13, r1
    10fa:	0c 2f       	mov	r16, r28
    10fc:	cc 15       	cp	r28, r12
    10fe:	dd 05       	cpc	r29, r13
    1100:	19 f4       	brne	.+6      	; 0x1108 <EEPROM_read+0xd4>
	   	  data = i2c_receiveData_NACK();
    1102:	b1 d4       	rcall	.+2402   	; 0x1a66 <i2c_receiveData_NACK>
    1104:	18 2f       	mov	r17, r24
    1106:	02 c0       	rjmp	.+4      	; 0x110c <EEPROM_read+0xd8>
	  else
	  	  data = i2c_receiveData_ACK();
    1108:	9c d4       	rcall	.+2360   	; 0x1a42 <i2c_receiveData_ACK>
    110a:	18 2f       	mov	r17, r24
		  
   	  if(data == ERROR_CODE)
    110c:	1e 37       	cpi	r17, 0x7E	; 126
    110e:	39 f4       	brne	.+14     	; 0x111e <EEPROM_read+0xea>
   	  {
			Usart_Tx_String("EEPROM receive failed..");
    1110:	81 ea       	ldi	r24, 0xA1	; 161
    1112:	91 e0       	ldi	r25, 0x01	; 1
    1114:	0e 94 36 26 	call	0x4c6c	; 0x4c6c <Usart_Tx_String>
			i2c_stop();
    1118:	b8 d4       	rcall	.+2416   	; 0x1a8a <i2c_stop>
	   		return(1);
    111a:	81 e0       	ldi	r24, 0x01	; 1
    111c:	12 c0       	rjmp	.+36     	; 0x1142 <EEPROM_read+0x10e>
   	  }
	   
	   if((i%16) == 0) 
    111e:	0f 70       	andi	r16, 0x0F	; 15
    1120:	21 f4       	brne	.+8      	; 0x112a <EEPROM_read+0xf6>
	   Usart_Tx_String("EEPROM ROUTINE _data: \n");
    1122:	89 eb       	ldi	r24, 0xB9	; 185
    1124:	91 e0       	ldi	r25, 0x01	; 1
    1126:	0e 94 36 26 	call	0x4c6c	; 0x4c6c <Usart_Tx_String>
	   Usart_Tx(data);
    112a:	81 2f       	mov	r24, r17
    112c:	0e 94 2f 26 	call	0x4c5e	; 0x4c5e <Usart_Tx>
	   data_array[i]=data;
    1130:	f7 01       	movw	r30, r14
    1132:	11 93       	st	Z+, r17
    1134:	7f 01       	movw	r14, r30
    1136:	21 96       	adiw	r28, 0x01	; 1
	 Usart_Tx_String("EEPROM sendAddress2 failed..");
	 i2c_stop();
	 return(1);
   } 
   
   for(i=0;i<totalChar;i++)
    1138:	ca 15       	cp	r28, r10
    113a:	db 05       	cpc	r29, r11
    113c:	f1 f6       	brne	.-68     	; 0x10fa <EEPROM_read+0xc6>
	   Usart_Tx(data);
	   data_array[i]=data;
	   
   }
   
   i2c_stop();
    113e:	a5 d4       	rcall	.+2378   	; 0x1a8a <i2c_stop>
   
   return(0);
    1140:	80 e0       	ldi	r24, 0x00	; 0
}
    1142:	df 91       	pop	r29
    1144:	cf 91       	pop	r28
    1146:	1f 91       	pop	r17
    1148:	0f 91       	pop	r16
    114a:	ff 90       	pop	r15
    114c:	ef 90       	pop	r14
    114e:	df 90       	pop	r13
    1150:	cf 90       	pop	r12
    1152:	bf 90       	pop	r11
    1154:	af 90       	pop	r10
    1156:	08 95       	ret

00001158 <EEPROM_write>:
//******************************************************************
//Function to write a character to EEPROM 
//******************************************************************
unsigned char EEPROM_write(unsigned char highAddress, unsigned char lowAddress, unsigned char numberofbytes)
{
    1158:	ef 92       	push	r14
    115a:	ff 92       	push	r15
    115c:	1f 93       	push	r17
    115e:	cf 93       	push	r28
    1160:	df 93       	push	r29
    1162:	c8 2f       	mov	r28, r24
    1164:	d6 2f       	mov	r29, r22
    1166:	e4 2e       	mov	r14, r20
   unsigned char errorStatus, i; //data;
   
   errorStatus = i2c_start();
    1168:	23 d4       	rcall	.+2118   	; 0x19b0 <i2c_start>
   if(errorStatus == 1)
    116a:	81 30       	cpi	r24, 0x01	; 1
    116c:	39 f4       	brne	.+14     	; 0x117c <EEPROM_write+0x24>
   {
	 Usart_Tx_String("i2c start failed..");
    116e:	8a e0       	ldi	r24, 0x0A	; 10
    1170:	91 e0       	ldi	r25, 0x01	; 1
    1172:	0e 94 36 26 	call	0x4c6c	; 0x4c6c <Usart_Tx_String>
   	 i2c_stop();
    1176:	89 d4       	rcall	.+2322   	; 0x1a8a <i2c_stop>
	 return(1);
    1178:	81 e0       	ldi	r24, 0x01	; 1
    117a:	46 c0       	rjmp	.+140    	; 0x1208 <EEPROM_write+0xb0>
   } 
   
   errorStatus = i2c_sendAddress(EEPROM_W);
    117c:	80 ea       	ldi	r24, 0xA0	; 160
    117e:	38 d4       	rcall	.+2160   	; 0x19f0 <i2c_sendAddress>
   
   if(errorStatus == 1)
    1180:	81 30       	cpi	r24, 0x01	; 1
    1182:	39 f4       	brne	.+14     	; 0x1192 <EEPROM_write+0x3a>
   {
	 Usart_Tx_String("EEPROM sendAddress1 failed..");
    1184:	8d e1       	ldi	r24, 0x1D	; 29
    1186:	91 e0       	ldi	r25, 0x01	; 1
    1188:	0e 94 36 26 	call	0x4c6c	; 0x4c6c <Usart_Tx_String>
	 i2c_stop();
    118c:	7e d4       	rcall	.+2300   	; 0x1a8a <i2c_stop>
	 return(1);
    118e:	81 e0       	ldi	r24, 0x01	; 1
    1190:	3b c0       	rjmp	.+118    	; 0x1208 <EEPROM_write+0xb0>
   } 
   
   errorStatus = i2c_sendData(highAddress);
    1192:	8c 2f       	mov	r24, r28
    1194:	44 d4       	rcall	.+2184   	; 0x1a1e <i2c_sendData>
   if(errorStatus == 1)
    1196:	81 30       	cpi	r24, 0x01	; 1
    1198:	39 f4       	brne	.+14     	; 0x11a8 <EEPROM_write+0x50>
   {
	 Usart_Tx_String("EEPROM write-1 failed..");
    119a:	8a e3       	ldi	r24, 0x3A	; 58
    119c:	91 e0       	ldi	r25, 0x01	; 1
    119e:	0e 94 36 26 	call	0x4c6c	; 0x4c6c <Usart_Tx_String>
	 i2c_stop();
    11a2:	73 d4       	rcall	.+2278   	; 0x1a8a <i2c_stop>
	 return(1);
    11a4:	81 e0       	ldi	r24, 0x01	; 1
    11a6:	30 c0       	rjmp	.+96     	; 0x1208 <EEPROM_write+0xb0>
   } 
   
 
   errorStatus = i2c_sendData(lowAddress);
    11a8:	8d 2f       	mov	r24, r29
    11aa:	39 d4       	rcall	.+2162   	; 0x1a1e <i2c_sendData>
   if(errorStatus == 1)
    11ac:	81 30       	cpi	r24, 0x01	; 1
    11ae:	19 f0       	breq	.+6      	; 0x11b6 <EEPROM_write+0x5e>
	 Usart_Tx_String("EEPROM write-2 failed..");
	 i2c_stop();
	 return(1);
   } 
   
   for(i=0;i<numberofbytes;i++){
    11b0:	e1 10       	cpse	r14, r1
    11b2:	08 c0       	rjmp	.+16     	; 0x11c4 <EEPROM_write+0x6c>
    11b4:	23 c0       	rjmp	.+70     	; 0x11fc <EEPROM_write+0xa4>
   
 
   errorStatus = i2c_sendData(lowAddress);
   if(errorStatus == 1)
   {
	 Usart_Tx_String("EEPROM write-2 failed..");
    11b6:	82 e5       	ldi	r24, 0x52	; 82
    11b8:	91 e0       	ldi	r25, 0x01	; 1
    11ba:	0e 94 36 26 	call	0x4c6c	; 0x4c6c <Usart_Tx_String>
	 i2c_stop();
    11be:	65 d4       	rcall	.+2250   	; 0x1a8a <i2c_stop>
	 return(1);
    11c0:	81 e0       	ldi	r24, 0x01	; 1
    11c2:	22 c0       	rjmp	.+68     	; 0x1208 <EEPROM_write+0xb0>
    11c4:	c8 e7       	ldi	r28, 0x78	; 120
    11c6:	da e0       	ldi	r29, 0x0A	; 10
    11c8:	ea 94       	dec	r14
    11ca:	8e 2d       	mov	r24, r14
    11cc:	90 e0       	ldi	r25, 0x00	; 0
    11ce:	9c 01       	movw	r18, r24
    11d0:	27 58       	subi	r18, 0x87	; 135
    11d2:	35 4f       	sbci	r19, 0xF5	; 245
    11d4:	79 01       	movw	r14, r18
   } 
   
   for(i=0;i<numberofbytes;i++){
   
	  errorStatus = i2c_sendData(data_array[i]);
    11d6:	89 91       	ld	r24, Y+
    11d8:	22 d4       	rcall	.+2116   	; 0x1a1e <i2c_sendData>
    11da:	18 2f       	mov	r17, r24
	  Usart_Tx_String("EEPROM write data Successful..");
    11dc:	81 ed       	ldi	r24, 0xD1	; 209
    11de:	91 e0       	ldi	r25, 0x01	; 1
    11e0:	0e 94 36 26 	call	0x4c6c	; 0x4c6c <Usart_Tx_String>
   	  if(errorStatus == 1)
    11e4:	11 30       	cpi	r17, 0x01	; 1
    11e6:	39 f4       	brne	.+14     	; 0x11f6 <EEPROM_write+0x9e>
   	  {
			Usart_Tx_String("EEPROM write data failed..");
    11e8:	80 ef       	ldi	r24, 0xF0	; 240
    11ea:	91 e0       	ldi	r25, 0x01	; 1
    11ec:	0e 94 36 26 	call	0x4c6c	; 0x4c6c <Usart_Tx_String>
			i2c_stop();
    11f0:	4c d4       	rcall	.+2200   	; 0x1a8a <i2c_stop>
	   		return(1);
    11f2:	81 e0       	ldi	r24, 0x01	; 1
    11f4:	09 c0       	rjmp	.+18     	; 0x1208 <EEPROM_write+0xb0>
	 Usart_Tx_String("EEPROM write-2 failed..");
	 i2c_stop();
	 return(1);
   } 
   
   for(i=0;i<numberofbytes;i++){
    11f6:	ce 15       	cp	r28, r14
    11f8:	df 05       	cpc	r29, r15
    11fa:	69 f7       	brne	.-38     	; 0x11d6 <EEPROM_write+0x7e>
	   		return(1);
   	  }
   
   }
   
   i2c_stop();
    11fc:	46 d4       	rcall	.+2188   	; 0x1a8a <i2c_stop>
   Usart_Tx_String("EEPROM write data SUCESSFUL..\n");
    11fe:	8b e0       	ldi	r24, 0x0B	; 11
    1200:	92 e0       	ldi	r25, 0x02	; 2
    1202:	0e 94 36 26 	call	0x4c6c	; 0x4c6c <Usart_Tx_String>
   return(0);
    1206:	80 e0       	ldi	r24, 0x00	; 0
}
    1208:	df 91       	pop	r29
    120a:	cf 91       	pop	r28
    120c:	1f 91       	pop	r17
    120e:	ff 90       	pop	r15
    1210:	ef 90       	pop	r14
    1212:	08 95       	ret

00001214 <EEPROM_save_consigne>:
extern unsigned char recurrence_a[90];
extern unsigned char recurrence_b[90];

void EEPROM_save_consigne(void)
{
	data_array[0]=consigne[0];
    1214:	e8 e7       	ldi	r30, 0x78	; 120
    1216:	fa e0       	ldi	r31, 0x0A	; 10
    1218:	ae e6       	ldi	r26, 0x6E	; 110
    121a:	ba e0       	ldi	r27, 0x0A	; 10
    121c:	8c 91       	ld	r24, X
    121e:	80 83       	st	Z, r24
	data_array[1]=consigne[1];
    1220:	11 96       	adiw	r26, 0x01	; 1
    1222:	8c 91       	ld	r24, X
    1224:	11 97       	sbiw	r26, 0x01	; 1
    1226:	81 83       	std	Z+1, r24	; 0x01
	data_array[2]=consigne[2];
    1228:	12 96       	adiw	r26, 0x02	; 2
    122a:	8c 91       	ld	r24, X
    122c:	82 83       	std	Z+2, r24	; 0x02
	EEPROM_write(0,0,3);
    122e:	43 e0       	ldi	r20, 0x03	; 3
    1230:	60 e0       	ldi	r22, 0x00	; 0
    1232:	80 e0       	ldi	r24, 0x00	; 0
    1234:	91 cf       	rjmp	.-222    	; 0x1158 <EEPROM_write>
    1236:	08 95       	ret

00001238 <EEPROM_save_out>:
}

void EEPROM_save_out(void)
{
	data_array[0]=out[0];
    1238:	e8 e7       	ldi	r30, 0x78	; 120
    123a:	fa e0       	ldi	r31, 0x0A	; 10
    123c:	ab e6       	ldi	r26, 0x6B	; 107
    123e:	ba e0       	ldi	r27, 0x0A	; 10
    1240:	8c 91       	ld	r24, X
    1242:	80 83       	st	Z, r24
	data_array[1]=out[1];
    1244:	11 96       	adiw	r26, 0x01	; 1
    1246:	8c 91       	ld	r24, X
    1248:	11 97       	sbiw	r26, 0x01	; 1
    124a:	81 83       	std	Z+1, r24	; 0x01
	data_array[2]=out[2];
    124c:	12 96       	adiw	r26, 0x02	; 2
    124e:	8c 91       	ld	r24, X
    1250:	82 83       	std	Z+2, r24	; 0x02
	EEPROM_write(0,3,3);
    1252:	43 e0       	ldi	r20, 0x03	; 3
    1254:	63 e0       	ldi	r22, 0x03	; 3
    1256:	80 e0       	ldi	r24, 0x00	; 0
    1258:	7f cf       	rjmp	.-258    	; 0x1158 <EEPROM_write>
    125a:	08 95       	ret

0000125c <EEPROM_save_alarme_high>:
}

void EEPROM_save_alarme_high(void)
{
	data_array[0]=alarme_high[0];
    125c:	e8 e7       	ldi	r30, 0x78	; 120
    125e:	fa e0       	ldi	r31, 0x0A	; 10
    1260:	a8 e6       	ldi	r26, 0x68	; 104
    1262:	ba e0       	ldi	r27, 0x0A	; 10
    1264:	8c 91       	ld	r24, X
    1266:	80 83       	st	Z, r24
	data_array[1]=alarme_high[1];
    1268:	11 96       	adiw	r26, 0x01	; 1
    126a:	8c 91       	ld	r24, X
    126c:	11 97       	sbiw	r26, 0x01	; 1
    126e:	81 83       	std	Z+1, r24	; 0x01
	data_array[2]=alarme_high[2];
    1270:	12 96       	adiw	r26, 0x02	; 2
    1272:	8c 91       	ld	r24, X
    1274:	82 83       	std	Z+2, r24	; 0x02
	EEPROM_write(0,6,3);
    1276:	43 e0       	ldi	r20, 0x03	; 3
    1278:	66 e0       	ldi	r22, 0x06	; 6
    127a:	80 e0       	ldi	r24, 0x00	; 0
    127c:	6d cf       	rjmp	.-294    	; 0x1158 <EEPROM_write>
    127e:	08 95       	ret

00001280 <EEPROM_save_alarme_low>:
}

void EEPROM_save_alarme_low(void)
{
	data_array[0]=alarme_low[0];
    1280:	e8 e7       	ldi	r30, 0x78	; 120
    1282:	fa e0       	ldi	r31, 0x0A	; 10
    1284:	a5 e6       	ldi	r26, 0x65	; 101
    1286:	ba e0       	ldi	r27, 0x0A	; 10
    1288:	8c 91       	ld	r24, X
    128a:	80 83       	st	Z, r24
	data_array[1]=alarme_low[1];
    128c:	11 96       	adiw	r26, 0x01	; 1
    128e:	8c 91       	ld	r24, X
    1290:	11 97       	sbiw	r26, 0x01	; 1
    1292:	81 83       	std	Z+1, r24	; 0x01
	data_array[2]=alarme_low[2];
    1294:	12 96       	adiw	r26, 0x02	; 2
    1296:	8c 91       	ld	r24, X
    1298:	82 83       	std	Z+2, r24	; 0x02
	EEPROM_write(0,9,3);
    129a:	43 e0       	ldi	r20, 0x03	; 3
    129c:	69 e0       	ldi	r22, 0x09	; 9
    129e:	80 e0       	ldi	r24, 0x00	; 0
    12a0:	5b cf       	rjmp	.-330    	; 0x1158 <EEPROM_write>
    12a2:	08 95       	ret

000012a4 <EEPROM_save_hysteresis_high>:
}

void EEPROM_save_hysteresis_high(void)
{
	data_array[0]=hysteresis_high[0];
    12a4:	e8 e7       	ldi	r30, 0x78	; 120
    12a6:	fa e0       	ldi	r31, 0x0A	; 10
    12a8:	ad e4       	ldi	r26, 0x4D	; 77
    12aa:	ba e0       	ldi	r27, 0x0A	; 10
    12ac:	8c 91       	ld	r24, X
    12ae:	80 83       	st	Z, r24
	data_array[1]=hysteresis_high[1];
    12b0:	11 96       	adiw	r26, 0x01	; 1
    12b2:	8c 91       	ld	r24, X
    12b4:	11 97       	sbiw	r26, 0x01	; 1
    12b6:	81 83       	std	Z+1, r24	; 0x01
	data_array[2]=hysteresis_high[2];
    12b8:	12 96       	adiw	r26, 0x02	; 2
    12ba:	8c 91       	ld	r24, X
    12bc:	82 83       	std	Z+2, r24	; 0x02
	EEPROM_write(0,12,3);
    12be:	43 e0       	ldi	r20, 0x03	; 3
    12c0:	6c e0       	ldi	r22, 0x0C	; 12
    12c2:	80 e0       	ldi	r24, 0x00	; 0
    12c4:	49 cf       	rjmp	.-366    	; 0x1158 <EEPROM_write>
    12c6:	08 95       	ret

000012c8 <EEPROM_save_hysteresis_low>:
}

void EEPROM_save_hysteresis_low(void)
{
	data_array[0]=hysteresis_low[0];
    12c8:	e8 e7       	ldi	r30, 0x78	; 120
    12ca:	fa e0       	ldi	r31, 0x0A	; 10
    12cc:	aa e4       	ldi	r26, 0x4A	; 74
    12ce:	ba e0       	ldi	r27, 0x0A	; 10
    12d0:	8c 91       	ld	r24, X
    12d2:	80 83       	st	Z, r24
	data_array[1]=hysteresis_low[1];
    12d4:	11 96       	adiw	r26, 0x01	; 1
    12d6:	8c 91       	ld	r24, X
    12d8:	11 97       	sbiw	r26, 0x01	; 1
    12da:	81 83       	std	Z+1, r24	; 0x01
	data_array[2]=hysteresis_low[2];
    12dc:	12 96       	adiw	r26, 0x02	; 2
    12de:	8c 91       	ld	r24, X
    12e0:	82 83       	std	Z+2, r24	; 0x02
	EEPROM_write(0,15,3);
    12e2:	43 e0       	ldi	r20, 0x03	; 3
    12e4:	6f e0       	ldi	r22, 0x0F	; 15
    12e6:	80 e0       	ldi	r24, 0x00	; 0
    12e8:	37 cf       	rjmp	.-402    	; 0x1158 <EEPROM_write>
    12ea:	08 95       	ret

000012ec <EEPROM_save_bp>:
}

void EEPROM_save_bp(void)
{
	data_array[0]=bp[0];
    12ec:	e8 e7       	ldi	r30, 0x78	; 120
    12ee:	fa e0       	ldi	r31, 0x0A	; 10
    12f0:	a2 e6       	ldi	r26, 0x62	; 98
    12f2:	ba e0       	ldi	r27, 0x0A	; 10
    12f4:	8c 91       	ld	r24, X
    12f6:	80 83       	st	Z, r24
	data_array[1]=bp[1];
    12f8:	11 96       	adiw	r26, 0x01	; 1
    12fa:	8c 91       	ld	r24, X
    12fc:	11 97       	sbiw	r26, 0x01	; 1
    12fe:	81 83       	std	Z+1, r24	; 0x01
	data_array[2]=bp[2];
    1300:	12 96       	adiw	r26, 0x02	; 2
    1302:	8c 91       	ld	r24, X
    1304:	82 83       	std	Z+2, r24	; 0x02
	EEPROM_write(0,18,3);
    1306:	43 e0       	ldi	r20, 0x03	; 3
    1308:	62 e1       	ldi	r22, 0x12	; 18
    130a:	80 e0       	ldi	r24, 0x00	; 0
    130c:	25 cf       	rjmp	.-438    	; 0x1158 <EEPROM_write>
    130e:	08 95       	ret

00001310 <EEPROM_save_ti>:
}

void EEPROM_save_ti(void)
{
	data_array[0]=ti[0];
    1310:	e8 e7       	ldi	r30, 0x78	; 120
    1312:	fa e0       	ldi	r31, 0x0A	; 10
    1314:	ad e5       	ldi	r26, 0x5D	; 93
    1316:	ba e0       	ldi	r27, 0x0A	; 10
    1318:	8c 91       	ld	r24, X
    131a:	80 83       	st	Z, r24
	data_array[1]=ti[1];
    131c:	11 96       	adiw	r26, 0x01	; 1
    131e:	8c 91       	ld	r24, X
    1320:	11 97       	sbiw	r26, 0x01	; 1
    1322:	81 83       	std	Z+1, r24	; 0x01
	data_array[2]=ti[2];
    1324:	12 96       	adiw	r26, 0x02	; 2
    1326:	8c 91       	ld	r24, X
    1328:	12 97       	sbiw	r26, 0x02	; 2
    132a:	82 83       	std	Z+2, r24	; 0x02
	data_array[3]=ti[3];
    132c:	13 96       	adiw	r26, 0x03	; 3
    132e:	8c 91       	ld	r24, X
    1330:	13 97       	sbiw	r26, 0x03	; 3
    1332:	83 83       	std	Z+3, r24	; 0x03
	data_array[4]=ti[4];
    1334:	14 96       	adiw	r26, 0x04	; 4
    1336:	8c 91       	ld	r24, X
    1338:	84 83       	std	Z+4, r24	; 0x04
	EEPROM_write(0,21,5);
    133a:	45 e0       	ldi	r20, 0x05	; 5
    133c:	65 e1       	ldi	r22, 0x15	; 21
    133e:	80 e0       	ldi	r24, 0x00	; 0
    1340:	0b cf       	rjmp	.-490    	; 0x1158 <EEPROM_write>
    1342:	08 95       	ret

00001344 <EEPROM_save_td>:
}

void EEPROM_save_td(void)
{
	data_array[0]=td[0];
    1344:	e8 e7       	ldi	r30, 0x78	; 120
    1346:	fa e0       	ldi	r31, 0x0A	; 10
    1348:	a8 e5       	ldi	r26, 0x58	; 88
    134a:	ba e0       	ldi	r27, 0x0A	; 10
    134c:	8c 91       	ld	r24, X
    134e:	80 83       	st	Z, r24
	data_array[1]=td[1];
    1350:	11 96       	adiw	r26, 0x01	; 1
    1352:	8c 91       	ld	r24, X
    1354:	11 97       	sbiw	r26, 0x01	; 1
    1356:	81 83       	std	Z+1, r24	; 0x01
	data_array[2]=td[2];
    1358:	12 96       	adiw	r26, 0x02	; 2
    135a:	8c 91       	ld	r24, X
    135c:	12 97       	sbiw	r26, 0x02	; 2
    135e:	82 83       	std	Z+2, r24	; 0x02
	data_array[3]=td[3];
    1360:	13 96       	adiw	r26, 0x03	; 3
    1362:	8c 91       	ld	r24, X
    1364:	13 97       	sbiw	r26, 0x03	; 3
    1366:	83 83       	std	Z+3, r24	; 0x03
	data_array[4]=td[4];
    1368:	14 96       	adiw	r26, 0x04	; 4
    136a:	8c 91       	ld	r24, X
    136c:	84 83       	std	Z+4, r24	; 0x04
	EEPROM_write(0,26,5);
    136e:	45 e0       	ldi	r20, 0x05	; 5
    1370:	6a e1       	ldi	r22, 0x1A	; 26
    1372:	80 e0       	ldi	r24, 0x00	; 0
    1374:	f1 ce       	rjmp	.-542    	; 0x1158 <EEPROM_write>
    1376:	08 95       	ret

00001378 <EEPROM_save_te>:
}

void EEPROM_save_te(void)
{
	data_array[0]=te[0];
    1378:	e8 e7       	ldi	r30, 0x78	; 120
    137a:	fa e0       	ldi	r31, 0x0A	; 10
    137c:	a3 e5       	ldi	r26, 0x53	; 83
    137e:	ba e0       	ldi	r27, 0x0A	; 10
    1380:	8c 91       	ld	r24, X
    1382:	80 83       	st	Z, r24
	data_array[1]=te[1];
    1384:	11 96       	adiw	r26, 0x01	; 1
    1386:	8c 91       	ld	r24, X
    1388:	11 97       	sbiw	r26, 0x01	; 1
    138a:	81 83       	std	Z+1, r24	; 0x01
	data_array[2]=te[2];
    138c:	12 96       	adiw	r26, 0x02	; 2
    138e:	8c 91       	ld	r24, X
    1390:	12 97       	sbiw	r26, 0x02	; 2
    1392:	82 83       	std	Z+2, r24	; 0x02
	data_array[3]=te[3];
    1394:	13 96       	adiw	r26, 0x03	; 3
    1396:	8c 91       	ld	r24, X
    1398:	13 97       	sbiw	r26, 0x03	; 3
    139a:	83 83       	std	Z+3, r24	; 0x03
	data_array[4]=te[4];
    139c:	14 96       	adiw	r26, 0x04	; 4
    139e:	8c 91       	ld	r24, X
    13a0:	84 83       	std	Z+4, r24	; 0x04
	EEPROM_write(0,31,5);
    13a2:	45 e0       	ldi	r20, 0x05	; 5
    13a4:	6f e1       	ldi	r22, 0x1F	; 31
    13a6:	80 e0       	ldi	r24, 0x00	; 0
    13a8:	d7 ce       	rjmp	.-594    	; 0x1158 <EEPROM_write>
    13aa:	08 95       	ret

000013ac <EEPROM_save_out0>:
}

void EEPROM_save_out0(void)
{
	data_array[0]=out0[0];
    13ac:	e8 e7       	ldi	r30, 0x78	; 120
    13ae:	fa e0       	ldi	r31, 0x0A	; 10
    13b0:	a0 e5       	ldi	r26, 0x50	; 80
    13b2:	ba e0       	ldi	r27, 0x0A	; 10
    13b4:	8c 91       	ld	r24, X
    13b6:	80 83       	st	Z, r24
	data_array[1]=out0[1];
    13b8:	11 96       	adiw	r26, 0x01	; 1
    13ba:	8c 91       	ld	r24, X
    13bc:	11 97       	sbiw	r26, 0x01	; 1
    13be:	81 83       	std	Z+1, r24	; 0x01
	data_array[2]=out0[2];
    13c0:	12 96       	adiw	r26, 0x02	; 2
    13c2:	8c 91       	ld	r24, X
    13c4:	82 83       	std	Z+2, r24	; 0x02
	EEPROM_write(0,36,3);
    13c6:	43 e0       	ldi	r20, 0x03	; 3
    13c8:	64 e2       	ldi	r22, 0x24	; 36
    13ca:	80 e0       	ldi	r24, 0x00	; 0
    13cc:	c5 ce       	rjmp	.-630    	; 0x1158 <EEPROM_write>
    13ce:	08 95       	ret

000013d0 <EEPROM_save_recurrence_a>:
}

void EEPROM_save_recurrence_a(void)
{
	data_array[0]=recurrence_a[0];
    13d0:	e8 e7       	ldi	r30, 0x78	; 120
    13d2:	fa e0       	ldi	r31, 0x0A	; 10
    13d4:	a0 ef       	ldi	r26, 0xF0	; 240
    13d6:	b9 e0       	ldi	r27, 0x09	; 9
    13d8:	8c 91       	ld	r24, X
    13da:	80 83       	st	Z, r24
	data_array[1]=recurrence_a[1];
    13dc:	11 96       	adiw	r26, 0x01	; 1
    13de:	8c 91       	ld	r24, X
    13e0:	11 97       	sbiw	r26, 0x01	; 1
    13e2:	81 83       	std	Z+1, r24	; 0x01
	data_array[2]=recurrence_a[2];
    13e4:	12 96       	adiw	r26, 0x02	; 2
    13e6:	8c 91       	ld	r24, X
    13e8:	12 97       	sbiw	r26, 0x02	; 2
    13ea:	82 83       	std	Z+2, r24	; 0x02
	data_array[3]=recurrence_a[3];
    13ec:	13 96       	adiw	r26, 0x03	; 3
    13ee:	8c 91       	ld	r24, X
    13f0:	13 97       	sbiw	r26, 0x03	; 3
    13f2:	83 83       	std	Z+3, r24	; 0x03
	data_array[4]=recurrence_a[4];
    13f4:	14 96       	adiw	r26, 0x04	; 4
    13f6:	8c 91       	ld	r24, X
    13f8:	14 97       	sbiw	r26, 0x04	; 4
    13fa:	84 83       	std	Z+4, r24	; 0x04
	data_array[5]=recurrence_a[5];
    13fc:	15 96       	adiw	r26, 0x05	; 5
    13fe:	8c 91       	ld	r24, X
    1400:	15 97       	sbiw	r26, 0x05	; 5
    1402:	85 83       	std	Z+5, r24	; 0x05
	data_array[6]=recurrence_a[6];
    1404:	16 96       	adiw	r26, 0x06	; 6
    1406:	8c 91       	ld	r24, X
    1408:	16 97       	sbiw	r26, 0x06	; 6
    140a:	86 83       	std	Z+6, r24	; 0x06
	data_array[7]=recurrence_a[7];
    140c:	17 96       	adiw	r26, 0x07	; 7
    140e:	8c 91       	ld	r24, X
    1410:	17 97       	sbiw	r26, 0x07	; 7
    1412:	87 83       	std	Z+7, r24	; 0x07
	data_array[8]=recurrence_a[8];
    1414:	18 96       	adiw	r26, 0x08	; 8
    1416:	8c 91       	ld	r24, X
    1418:	18 97       	sbiw	r26, 0x08	; 8
    141a:	80 87       	std	Z+8, r24	; 0x08
	data_array[9]=recurrence_a[9];
    141c:	19 96       	adiw	r26, 0x09	; 9
    141e:	8c 91       	ld	r24, X
    1420:	19 97       	sbiw	r26, 0x09	; 9
    1422:	81 87       	std	Z+9, r24	; 0x09
	data_array[10]=recurrence_a[10];
    1424:	1a 96       	adiw	r26, 0x0a	; 10
    1426:	8c 91       	ld	r24, X
    1428:	1a 97       	sbiw	r26, 0x0a	; 10
    142a:	82 87       	std	Z+10, r24	; 0x0a
	data_array[11]=recurrence_a[11];
    142c:	1b 96       	adiw	r26, 0x0b	; 11
    142e:	8c 91       	ld	r24, X
    1430:	1b 97       	sbiw	r26, 0x0b	; 11
    1432:	83 87       	std	Z+11, r24	; 0x0b
	data_array[12]=recurrence_a[12];
    1434:	1c 96       	adiw	r26, 0x0c	; 12
    1436:	8c 91       	ld	r24, X
    1438:	1c 97       	sbiw	r26, 0x0c	; 12
    143a:	84 87       	std	Z+12, r24	; 0x0c
	data_array[13]=recurrence_a[13];
    143c:	1d 96       	adiw	r26, 0x0d	; 13
    143e:	8c 91       	ld	r24, X
    1440:	1d 97       	sbiw	r26, 0x0d	; 13
    1442:	85 87       	std	Z+13, r24	; 0x0d
	
	data_array[14]=recurrence_a[14];
    1444:	1e 96       	adiw	r26, 0x0e	; 14
    1446:	8c 91       	ld	r24, X
    1448:	1e 97       	sbiw	r26, 0x0e	; 14
    144a:	86 87       	std	Z+14, r24	; 0x0e
	data_array[15]=recurrence_a[15];
    144c:	1f 96       	adiw	r26, 0x0f	; 15
    144e:	8c 91       	ld	r24, X
    1450:	1f 97       	sbiw	r26, 0x0f	; 15
    1452:	87 87       	std	Z+15, r24	; 0x0f
	data_array[16]=recurrence_a[16];
    1454:	50 96       	adiw	r26, 0x10	; 16
    1456:	8c 91       	ld	r24, X
    1458:	50 97       	sbiw	r26, 0x10	; 16
    145a:	80 8b       	std	Z+16, r24	; 0x10
	data_array[17]=recurrence_a[17];
    145c:	51 96       	adiw	r26, 0x11	; 17
    145e:	8c 91       	ld	r24, X
    1460:	51 97       	sbiw	r26, 0x11	; 17
    1462:	81 8b       	std	Z+17, r24	; 0x11
	data_array[18]=recurrence_a[18];
    1464:	52 96       	adiw	r26, 0x12	; 18
    1466:	8c 91       	ld	r24, X
    1468:	52 97       	sbiw	r26, 0x12	; 18
    146a:	82 8b       	std	Z+18, r24	; 0x12
	data_array[19]=recurrence_a[19];
    146c:	53 96       	adiw	r26, 0x13	; 19
    146e:	8c 91       	ld	r24, X
    1470:	53 97       	sbiw	r26, 0x13	; 19
    1472:	83 8b       	std	Z+19, r24	; 0x13
	data_array[20]=recurrence_a[20];
    1474:	54 96       	adiw	r26, 0x14	; 20
    1476:	8c 91       	ld	r24, X
    1478:	54 97       	sbiw	r26, 0x14	; 20
    147a:	84 8b       	std	Z+20, r24	; 0x14
	data_array[21]=recurrence_a[21];
    147c:	55 96       	adiw	r26, 0x15	; 21
    147e:	8c 91       	ld	r24, X
    1480:	55 97       	sbiw	r26, 0x15	; 21
    1482:	85 8b       	std	Z+21, r24	; 0x15
	data_array[22]=recurrence_a[22];
    1484:	56 96       	adiw	r26, 0x16	; 22
    1486:	8c 91       	ld	r24, X
    1488:	56 97       	sbiw	r26, 0x16	; 22
    148a:	86 8b       	std	Z+22, r24	; 0x16
	data_array[23]=recurrence_a[23];
    148c:	57 96       	adiw	r26, 0x17	; 23
    148e:	8c 91       	ld	r24, X
    1490:	57 97       	sbiw	r26, 0x17	; 23
    1492:	87 8b       	std	Z+23, r24	; 0x17
	data_array[24]=recurrence_a[24];
    1494:	58 96       	adiw	r26, 0x18	; 24
    1496:	8c 91       	ld	r24, X
    1498:	58 97       	sbiw	r26, 0x18	; 24
    149a:	80 8f       	std	Z+24, r24	; 0x18
	data_array[25]=recurrence_a[25];
    149c:	59 96       	adiw	r26, 0x19	; 25
    149e:	8c 91       	ld	r24, X
    14a0:	59 97       	sbiw	r26, 0x19	; 25
    14a2:	81 8f       	std	Z+25, r24	; 0x19
	data_array[26]=recurrence_a[26];
    14a4:	5a 96       	adiw	r26, 0x1a	; 26
    14a6:	8c 91       	ld	r24, X
    14a8:	5a 97       	sbiw	r26, 0x1a	; 26
    14aa:	82 8f       	std	Z+26, r24	; 0x1a
	data_array[27]=recurrence_a[27];
    14ac:	5b 96       	adiw	r26, 0x1b	; 27
    14ae:	8c 91       	ld	r24, X
    14b0:	5b 97       	sbiw	r26, 0x1b	; 27
    14b2:	83 8f       	std	Z+27, r24	; 0x1b
	
	data_array[28]=recurrence_a[28];
    14b4:	5c 96       	adiw	r26, 0x1c	; 28
    14b6:	8c 91       	ld	r24, X
    14b8:	5c 97       	sbiw	r26, 0x1c	; 28
    14ba:	84 8f       	std	Z+28, r24	; 0x1c
	data_array[29]=recurrence_a[29];
    14bc:	5d 96       	adiw	r26, 0x1d	; 29
    14be:	8c 91       	ld	r24, X
    14c0:	5d 97       	sbiw	r26, 0x1d	; 29
    14c2:	85 8f       	std	Z+29, r24	; 0x1d
	data_array[30]=recurrence_a[30];
    14c4:	5e 96       	adiw	r26, 0x1e	; 30
    14c6:	8c 91       	ld	r24, X
    14c8:	5e 97       	sbiw	r26, 0x1e	; 30
    14ca:	86 8f       	std	Z+30, r24	; 0x1e
	data_array[31]=recurrence_a[31];
    14cc:	5f 96       	adiw	r26, 0x1f	; 31
    14ce:	8c 91       	ld	r24, X
    14d0:	5f 97       	sbiw	r26, 0x1f	; 31
    14d2:	87 8f       	std	Z+31, r24	; 0x1f
	data_array[32]=recurrence_a[32];
    14d4:	90 96       	adiw	r26, 0x20	; 32
    14d6:	8c 91       	ld	r24, X
    14d8:	90 97       	sbiw	r26, 0x20	; 32
    14da:	80 a3       	std	Z+32, r24	; 0x20
	data_array[33]=recurrence_a[33];
    14dc:	91 96       	adiw	r26, 0x21	; 33
    14de:	8c 91       	ld	r24, X
    14e0:	91 97       	sbiw	r26, 0x21	; 33
    14e2:	81 a3       	std	Z+33, r24	; 0x21
	data_array[34]=recurrence_a[34];
    14e4:	92 96       	adiw	r26, 0x22	; 34
    14e6:	8c 91       	ld	r24, X
    14e8:	92 97       	sbiw	r26, 0x22	; 34
    14ea:	82 a3       	std	Z+34, r24	; 0x22
	data_array[35]=recurrence_a[35];
    14ec:	93 96       	adiw	r26, 0x23	; 35
    14ee:	8c 91       	ld	r24, X
    14f0:	93 97       	sbiw	r26, 0x23	; 35
    14f2:	83 a3       	std	Z+35, r24	; 0x23
	data_array[36]=recurrence_a[36];
    14f4:	94 96       	adiw	r26, 0x24	; 36
    14f6:	8c 91       	ld	r24, X
    14f8:	94 97       	sbiw	r26, 0x24	; 36
    14fa:	84 a3       	std	Z+36, r24	; 0x24
	data_array[37]=recurrence_a[37];
    14fc:	95 96       	adiw	r26, 0x25	; 37
    14fe:	8c 91       	ld	r24, X
    1500:	95 97       	sbiw	r26, 0x25	; 37
    1502:	85 a3       	std	Z+37, r24	; 0x25
	data_array[38]=recurrence_a[38];
    1504:	96 96       	adiw	r26, 0x26	; 38
    1506:	8c 91       	ld	r24, X
    1508:	96 97       	sbiw	r26, 0x26	; 38
    150a:	86 a3       	std	Z+38, r24	; 0x26
	data_array[39]=recurrence_a[39];
    150c:	97 96       	adiw	r26, 0x27	; 39
    150e:	8c 91       	ld	r24, X
    1510:	97 97       	sbiw	r26, 0x27	; 39
    1512:	87 a3       	std	Z+39, r24	; 0x27
	data_array[40]=recurrence_a[40];
    1514:	98 96       	adiw	r26, 0x28	; 40
    1516:	8c 91       	ld	r24, X
    1518:	98 97       	sbiw	r26, 0x28	; 40
    151a:	80 a7       	std	Z+40, r24	; 0x28
	data_array[41]=recurrence_a[41];
    151c:	99 96       	adiw	r26, 0x29	; 41
    151e:	8c 91       	ld	r24, X
    1520:	99 97       	sbiw	r26, 0x29	; 41
    1522:	81 a7       	std	Z+41, r24	; 0x29
	
	data_array[42]=recurrence_a[42];
    1524:	9a 96       	adiw	r26, 0x2a	; 42
    1526:	8c 91       	ld	r24, X
    1528:	9a 97       	sbiw	r26, 0x2a	; 42
    152a:	82 a7       	std	Z+42, r24	; 0x2a
	data_array[43]=recurrence_a[43];
    152c:	9b 96       	adiw	r26, 0x2b	; 43
    152e:	8c 91       	ld	r24, X
    1530:	9b 97       	sbiw	r26, 0x2b	; 43
    1532:	83 a7       	std	Z+43, r24	; 0x2b
	data_array[44]=recurrence_a[44];
    1534:	9c 96       	adiw	r26, 0x2c	; 44
    1536:	8c 91       	ld	r24, X
    1538:	9c 97       	sbiw	r26, 0x2c	; 44
    153a:	84 a7       	std	Z+44, r24	; 0x2c
	data_array[45]=recurrence_a[45];
    153c:	9d 96       	adiw	r26, 0x2d	; 45
    153e:	8c 91       	ld	r24, X
    1540:	9d 97       	sbiw	r26, 0x2d	; 45
    1542:	85 a7       	std	Z+45, r24	; 0x2d
	data_array[46]=recurrence_a[46];
    1544:	9e 96       	adiw	r26, 0x2e	; 46
    1546:	8c 91       	ld	r24, X
    1548:	9e 97       	sbiw	r26, 0x2e	; 46
    154a:	86 a7       	std	Z+46, r24	; 0x2e
	data_array[47]=recurrence_a[47];
    154c:	9f 96       	adiw	r26, 0x2f	; 47
    154e:	8c 91       	ld	r24, X
    1550:	9f 97       	sbiw	r26, 0x2f	; 47
    1552:	87 a7       	std	Z+47, r24	; 0x2f
	data_array[48]=recurrence_a[48];
    1554:	d0 96       	adiw	r26, 0x30	; 48
    1556:	8c 91       	ld	r24, X
    1558:	d0 97       	sbiw	r26, 0x30	; 48
    155a:	80 ab       	std	Z+48, r24	; 0x30
	data_array[49]=recurrence_a[49];
    155c:	d1 96       	adiw	r26, 0x31	; 49
    155e:	8c 91       	ld	r24, X
    1560:	d1 97       	sbiw	r26, 0x31	; 49
    1562:	81 ab       	std	Z+49, r24	; 0x31
	data_array[50]=recurrence_a[50];
    1564:	d2 96       	adiw	r26, 0x32	; 50
    1566:	8c 91       	ld	r24, X
    1568:	d2 97       	sbiw	r26, 0x32	; 50
    156a:	82 ab       	std	Z+50, r24	; 0x32
	data_array[51]=recurrence_a[51];
    156c:	d3 96       	adiw	r26, 0x33	; 51
    156e:	8c 91       	ld	r24, X
    1570:	d3 97       	sbiw	r26, 0x33	; 51
    1572:	83 ab       	std	Z+51, r24	; 0x33
	data_array[52]=recurrence_a[52];
    1574:	d4 96       	adiw	r26, 0x34	; 52
    1576:	8c 91       	ld	r24, X
    1578:	d4 97       	sbiw	r26, 0x34	; 52
    157a:	84 ab       	std	Z+52, r24	; 0x34
	data_array[53]=recurrence_a[53];
    157c:	d5 96       	adiw	r26, 0x35	; 53
    157e:	8c 91       	ld	r24, X
    1580:	d5 97       	sbiw	r26, 0x35	; 53
    1582:	85 ab       	std	Z+53, r24	; 0x35
	data_array[54]=recurrence_a[54];
    1584:	d6 96       	adiw	r26, 0x36	; 54
    1586:	8c 91       	ld	r24, X
    1588:	d6 97       	sbiw	r26, 0x36	; 54
    158a:	86 ab       	std	Z+54, r24	; 0x36
	data_array[55]=recurrence_a[55];
    158c:	d7 96       	adiw	r26, 0x37	; 55
    158e:	8c 91       	ld	r24, X
    1590:	d7 97       	sbiw	r26, 0x37	; 55
    1592:	87 ab       	std	Z+55, r24	; 0x37
	
	data_array[56]=recurrence_a[56];
    1594:	d8 96       	adiw	r26, 0x38	; 56
    1596:	8c 91       	ld	r24, X
    1598:	d8 97       	sbiw	r26, 0x38	; 56
    159a:	80 af       	std	Z+56, r24	; 0x38
	data_array[57]=recurrence_a[57];
    159c:	d9 96       	adiw	r26, 0x39	; 57
    159e:	8c 91       	ld	r24, X
    15a0:	d9 97       	sbiw	r26, 0x39	; 57
    15a2:	81 af       	std	Z+57, r24	; 0x39
	data_array[58]=recurrence_a[58];
    15a4:	da 96       	adiw	r26, 0x3a	; 58
    15a6:	8c 91       	ld	r24, X
    15a8:	da 97       	sbiw	r26, 0x3a	; 58
    15aa:	82 af       	std	Z+58, r24	; 0x3a
	data_array[59]=recurrence_a[59];
    15ac:	db 96       	adiw	r26, 0x3b	; 59
    15ae:	8c 91       	ld	r24, X
    15b0:	db 97       	sbiw	r26, 0x3b	; 59
    15b2:	83 af       	std	Z+59, r24	; 0x3b
	data_array[60]=recurrence_a[60];
    15b4:	dc 96       	adiw	r26, 0x3c	; 60
    15b6:	8c 91       	ld	r24, X
    15b8:	84 af       	std	Z+60, r24	; 0x3c
	data_array[61]=recurrence_a[61];
    15ba:	80 91 2d 0a 	lds	r24, 0x0A2D	; 0x800a2d <recurrence_a+0x3d>
    15be:	80 93 b5 0a 	sts	0x0AB5, r24	; 0x800ab5 <data_array+0x3d>
	data_array[62]=recurrence_a[62];
    15c2:	80 91 2e 0a 	lds	r24, 0x0A2E	; 0x800a2e <recurrence_a+0x3e>
    15c6:	80 93 b6 0a 	sts	0x0AB6, r24	; 0x800ab6 <data_array+0x3e>
	data_array[63]=recurrence_a[63];
    15ca:	80 91 2f 0a 	lds	r24, 0x0A2F	; 0x800a2f <recurrence_a+0x3f>
    15ce:	80 93 b7 0a 	sts	0x0AB7, r24	; 0x800ab7 <data_array+0x3f>
	data_array[64]=recurrence_a[64];
    15d2:	80 91 30 0a 	lds	r24, 0x0A30	; 0x800a30 <recurrence_a+0x40>
    15d6:	80 93 b8 0a 	sts	0x0AB8, r24	; 0x800ab8 <data_array+0x40>
	data_array[65]=recurrence_a[65];
    15da:	80 91 31 0a 	lds	r24, 0x0A31	; 0x800a31 <recurrence_a+0x41>
    15de:	80 93 b9 0a 	sts	0x0AB9, r24	; 0x800ab9 <data_array+0x41>
	data_array[66]=recurrence_a[66];
    15e2:	80 91 32 0a 	lds	r24, 0x0A32	; 0x800a32 <recurrence_a+0x42>
    15e6:	80 93 ba 0a 	sts	0x0ABA, r24	; 0x800aba <data_array+0x42>
	data_array[67]=recurrence_a[67];
    15ea:	80 91 33 0a 	lds	r24, 0x0A33	; 0x800a33 <recurrence_a+0x43>
    15ee:	80 93 bb 0a 	sts	0x0ABB, r24	; 0x800abb <data_array+0x43>
	data_array[68]=recurrence_a[68];
    15f2:	80 91 34 0a 	lds	r24, 0x0A34	; 0x800a34 <recurrence_a+0x44>
    15f6:	80 93 bc 0a 	sts	0x0ABC, r24	; 0x800abc <data_array+0x44>
	data_array[69]=recurrence_a[69];
    15fa:	80 91 35 0a 	lds	r24, 0x0A35	; 0x800a35 <recurrence_a+0x45>
    15fe:	80 93 bd 0a 	sts	0x0ABD, r24	; 0x800abd <data_array+0x45>
	
	data_array[70]=recurrence_a[70];
    1602:	80 91 36 0a 	lds	r24, 0x0A36	; 0x800a36 <recurrence_a+0x46>
    1606:	80 93 be 0a 	sts	0x0ABE, r24	; 0x800abe <data_array+0x46>
	data_array[71]=recurrence_a[71];
    160a:	80 91 37 0a 	lds	r24, 0x0A37	; 0x800a37 <recurrence_a+0x47>
    160e:	80 93 bf 0a 	sts	0x0ABF, r24	; 0x800abf <data_array+0x47>
	data_array[72]=recurrence_a[72];
    1612:	80 91 38 0a 	lds	r24, 0x0A38	; 0x800a38 <recurrence_a+0x48>
    1616:	80 93 c0 0a 	sts	0x0AC0, r24	; 0x800ac0 <data_array+0x48>
	data_array[73]=recurrence_a[73];
    161a:	80 91 39 0a 	lds	r24, 0x0A39	; 0x800a39 <recurrence_a+0x49>
    161e:	80 93 c1 0a 	sts	0x0AC1, r24	; 0x800ac1 <data_array+0x49>
	data_array[74]=recurrence_a[74];
    1622:	80 91 3a 0a 	lds	r24, 0x0A3A	; 0x800a3a <recurrence_a+0x4a>
    1626:	80 93 c2 0a 	sts	0x0AC2, r24	; 0x800ac2 <data_array+0x4a>
	data_array[75]=recurrence_a[75];
    162a:	80 91 3b 0a 	lds	r24, 0x0A3B	; 0x800a3b <recurrence_a+0x4b>
    162e:	80 93 c3 0a 	sts	0x0AC3, r24	; 0x800ac3 <data_array+0x4b>
	data_array[76]=recurrence_a[76];
    1632:	80 91 3c 0a 	lds	r24, 0x0A3C	; 0x800a3c <recurrence_a+0x4c>
    1636:	80 93 c4 0a 	sts	0x0AC4, r24	; 0x800ac4 <data_array+0x4c>
	data_array[77]=recurrence_a[77];
    163a:	80 91 3d 0a 	lds	r24, 0x0A3D	; 0x800a3d <recurrence_a+0x4d>
    163e:	80 93 c5 0a 	sts	0x0AC5, r24	; 0x800ac5 <data_array+0x4d>
	data_array[78]=recurrence_a[78];
    1642:	80 91 3e 0a 	lds	r24, 0x0A3E	; 0x800a3e <recurrence_a+0x4e>
    1646:	80 93 c6 0a 	sts	0x0AC6, r24	; 0x800ac6 <data_array+0x4e>
	data_array[79]=recurrence_a[79];
    164a:	80 91 3f 0a 	lds	r24, 0x0A3F	; 0x800a3f <recurrence_a+0x4f>
    164e:	80 93 c7 0a 	sts	0x0AC7, r24	; 0x800ac7 <data_array+0x4f>
	data_array[80]=recurrence_a[80];
    1652:	80 91 40 0a 	lds	r24, 0x0A40	; 0x800a40 <recurrence_a+0x50>
    1656:	80 93 c8 0a 	sts	0x0AC8, r24	; 0x800ac8 <data_array+0x50>
	data_array[81]=recurrence_a[81];
    165a:	80 91 41 0a 	lds	r24, 0x0A41	; 0x800a41 <recurrence_a+0x51>
    165e:	80 93 c9 0a 	sts	0x0AC9, r24	; 0x800ac9 <data_array+0x51>
	data_array[82]=recurrence_a[82];
    1662:	80 91 42 0a 	lds	r24, 0x0A42	; 0x800a42 <recurrence_a+0x52>
    1666:	80 93 ca 0a 	sts	0x0ACA, r24	; 0x800aca <data_array+0x52>
	data_array[83]=recurrence_a[83];
    166a:	80 91 43 0a 	lds	r24, 0x0A43	; 0x800a43 <recurrence_a+0x53>
    166e:	80 93 cb 0a 	sts	0x0ACB, r24	; 0x800acb <data_array+0x53>
	
	data_array[84]=recurrence_a[84];
    1672:	80 91 44 0a 	lds	r24, 0x0A44	; 0x800a44 <recurrence_a+0x54>
    1676:	80 93 cc 0a 	sts	0x0ACC, r24	; 0x800acc <data_array+0x54>
	data_array[85]=recurrence_a[85];
    167a:	80 91 45 0a 	lds	r24, 0x0A45	; 0x800a45 <recurrence_a+0x55>
    167e:	80 93 cd 0a 	sts	0x0ACD, r24	; 0x800acd <data_array+0x55>
	data_array[86]=recurrence_a[86];
    1682:	80 91 46 0a 	lds	r24, 0x0A46	; 0x800a46 <recurrence_a+0x56>
    1686:	80 93 ce 0a 	sts	0x0ACE, r24	; 0x800ace <data_array+0x56>
	data_array[87]=recurrence_a[87];
    168a:	80 91 47 0a 	lds	r24, 0x0A47	; 0x800a47 <recurrence_a+0x57>
    168e:	80 93 cf 0a 	sts	0x0ACF, r24	; 0x800acf <data_array+0x57>
	data_array[88]=recurrence_a[88];
    1692:	80 91 48 0a 	lds	r24, 0x0A48	; 0x800a48 <recurrence_a+0x58>
    1696:	80 93 d0 0a 	sts	0x0AD0, r24	; 0x800ad0 <data_array+0x58>
	
	EEPROM_write(0,128,89);
    169a:	49 e5       	ldi	r20, 0x59	; 89
    169c:	60 e8       	ldi	r22, 0x80	; 128
    169e:	80 e0       	ldi	r24, 0x00	; 0
    16a0:	5b cd       	rjmp	.-1354   	; 0x1158 <EEPROM_write>
    16a2:	08 95       	ret

000016a4 <EEPROM_save_recurrence_b>:
}

void EEPROM_save_recurrence_b(void)
{
	data_array[0]=recurrence_b[0];
    16a4:	e8 e7       	ldi	r30, 0x78	; 120
    16a6:	fa e0       	ldi	r31, 0x0A	; 10
    16a8:	a6 e9       	ldi	r26, 0x96	; 150
    16aa:	b9 e0       	ldi	r27, 0x09	; 9
    16ac:	8c 91       	ld	r24, X
    16ae:	80 83       	st	Z, r24
	data_array[1]=recurrence_b[1];
    16b0:	11 96       	adiw	r26, 0x01	; 1
    16b2:	8c 91       	ld	r24, X
    16b4:	11 97       	sbiw	r26, 0x01	; 1
    16b6:	81 83       	std	Z+1, r24	; 0x01
	data_array[2]=recurrence_b[2];
    16b8:	12 96       	adiw	r26, 0x02	; 2
    16ba:	8c 91       	ld	r24, X
    16bc:	12 97       	sbiw	r26, 0x02	; 2
    16be:	82 83       	std	Z+2, r24	; 0x02
	data_array[3]=recurrence_b[3];
    16c0:	13 96       	adiw	r26, 0x03	; 3
    16c2:	8c 91       	ld	r24, X
    16c4:	13 97       	sbiw	r26, 0x03	; 3
    16c6:	83 83       	std	Z+3, r24	; 0x03
	data_array[4]=recurrence_b[4];
    16c8:	14 96       	adiw	r26, 0x04	; 4
    16ca:	8c 91       	ld	r24, X
    16cc:	14 97       	sbiw	r26, 0x04	; 4
    16ce:	84 83       	std	Z+4, r24	; 0x04
	data_array[5]=recurrence_b[5];
    16d0:	15 96       	adiw	r26, 0x05	; 5
    16d2:	8c 91       	ld	r24, X
    16d4:	15 97       	sbiw	r26, 0x05	; 5
    16d6:	85 83       	std	Z+5, r24	; 0x05
	data_array[6]=recurrence_b[6];
    16d8:	16 96       	adiw	r26, 0x06	; 6
    16da:	8c 91       	ld	r24, X
    16dc:	16 97       	sbiw	r26, 0x06	; 6
    16de:	86 83       	std	Z+6, r24	; 0x06
	data_array[7]=recurrence_b[7];
    16e0:	17 96       	adiw	r26, 0x07	; 7
    16e2:	8c 91       	ld	r24, X
    16e4:	17 97       	sbiw	r26, 0x07	; 7
    16e6:	87 83       	std	Z+7, r24	; 0x07
	data_array[8]=recurrence_b[8];
    16e8:	18 96       	adiw	r26, 0x08	; 8
    16ea:	8c 91       	ld	r24, X
    16ec:	18 97       	sbiw	r26, 0x08	; 8
    16ee:	80 87       	std	Z+8, r24	; 0x08
	data_array[9]=recurrence_b[9];
    16f0:	19 96       	adiw	r26, 0x09	; 9
    16f2:	8c 91       	ld	r24, X
    16f4:	19 97       	sbiw	r26, 0x09	; 9
    16f6:	81 87       	std	Z+9, r24	; 0x09
	data_array[10]=recurrence_b[10];
    16f8:	1a 96       	adiw	r26, 0x0a	; 10
    16fa:	8c 91       	ld	r24, X
    16fc:	1a 97       	sbiw	r26, 0x0a	; 10
    16fe:	82 87       	std	Z+10, r24	; 0x0a
	data_array[11]=recurrence_b[11];
    1700:	1b 96       	adiw	r26, 0x0b	; 11
    1702:	8c 91       	ld	r24, X
    1704:	1b 97       	sbiw	r26, 0x0b	; 11
    1706:	83 87       	std	Z+11, r24	; 0x0b
	data_array[12]=recurrence_b[12];
    1708:	1c 96       	adiw	r26, 0x0c	; 12
    170a:	8c 91       	ld	r24, X
    170c:	1c 97       	sbiw	r26, 0x0c	; 12
    170e:	84 87       	std	Z+12, r24	; 0x0c
	data_array[13]=recurrence_b[13];
    1710:	1d 96       	adiw	r26, 0x0d	; 13
    1712:	8c 91       	ld	r24, X
    1714:	1d 97       	sbiw	r26, 0x0d	; 13
    1716:	85 87       	std	Z+13, r24	; 0x0d
	
	data_array[14]=recurrence_b[14];
    1718:	1e 96       	adiw	r26, 0x0e	; 14
    171a:	8c 91       	ld	r24, X
    171c:	1e 97       	sbiw	r26, 0x0e	; 14
    171e:	86 87       	std	Z+14, r24	; 0x0e
	data_array[15]=recurrence_b[15];
    1720:	1f 96       	adiw	r26, 0x0f	; 15
    1722:	8c 91       	ld	r24, X
    1724:	1f 97       	sbiw	r26, 0x0f	; 15
    1726:	87 87       	std	Z+15, r24	; 0x0f
	data_array[16]=recurrence_b[16];
    1728:	50 96       	adiw	r26, 0x10	; 16
    172a:	8c 91       	ld	r24, X
    172c:	50 97       	sbiw	r26, 0x10	; 16
    172e:	80 8b       	std	Z+16, r24	; 0x10
	data_array[17]=recurrence_b[17];
    1730:	51 96       	adiw	r26, 0x11	; 17
    1732:	8c 91       	ld	r24, X
    1734:	51 97       	sbiw	r26, 0x11	; 17
    1736:	81 8b       	std	Z+17, r24	; 0x11
	data_array[18]=recurrence_b[18];
    1738:	52 96       	adiw	r26, 0x12	; 18
    173a:	8c 91       	ld	r24, X
    173c:	52 97       	sbiw	r26, 0x12	; 18
    173e:	82 8b       	std	Z+18, r24	; 0x12
	data_array[19]=recurrence_b[19];
    1740:	53 96       	adiw	r26, 0x13	; 19
    1742:	8c 91       	ld	r24, X
    1744:	53 97       	sbiw	r26, 0x13	; 19
    1746:	83 8b       	std	Z+19, r24	; 0x13
	data_array[20]=recurrence_b[20];
    1748:	54 96       	adiw	r26, 0x14	; 20
    174a:	8c 91       	ld	r24, X
    174c:	54 97       	sbiw	r26, 0x14	; 20
    174e:	84 8b       	std	Z+20, r24	; 0x14
	data_array[21]=recurrence_b[21];
    1750:	55 96       	adiw	r26, 0x15	; 21
    1752:	8c 91       	ld	r24, X
    1754:	55 97       	sbiw	r26, 0x15	; 21
    1756:	85 8b       	std	Z+21, r24	; 0x15
	data_array[22]=recurrence_b[22];
    1758:	56 96       	adiw	r26, 0x16	; 22
    175a:	8c 91       	ld	r24, X
    175c:	56 97       	sbiw	r26, 0x16	; 22
    175e:	86 8b       	std	Z+22, r24	; 0x16
	data_array[23]=recurrence_b[23];
    1760:	57 96       	adiw	r26, 0x17	; 23
    1762:	8c 91       	ld	r24, X
    1764:	57 97       	sbiw	r26, 0x17	; 23
    1766:	87 8b       	std	Z+23, r24	; 0x17
	data_array[24]=recurrence_b[24];
    1768:	58 96       	adiw	r26, 0x18	; 24
    176a:	8c 91       	ld	r24, X
    176c:	58 97       	sbiw	r26, 0x18	; 24
    176e:	80 8f       	std	Z+24, r24	; 0x18
	data_array[25]=recurrence_b[25];
    1770:	59 96       	adiw	r26, 0x19	; 25
    1772:	8c 91       	ld	r24, X
    1774:	59 97       	sbiw	r26, 0x19	; 25
    1776:	81 8f       	std	Z+25, r24	; 0x19
	data_array[26]=recurrence_b[26];
    1778:	5a 96       	adiw	r26, 0x1a	; 26
    177a:	8c 91       	ld	r24, X
    177c:	5a 97       	sbiw	r26, 0x1a	; 26
    177e:	82 8f       	std	Z+26, r24	; 0x1a
	data_array[27]=recurrence_b[27];
    1780:	5b 96       	adiw	r26, 0x1b	; 27
    1782:	8c 91       	ld	r24, X
    1784:	5b 97       	sbiw	r26, 0x1b	; 27
    1786:	83 8f       	std	Z+27, r24	; 0x1b

	data_array[28]=recurrence_b[28];
    1788:	5c 96       	adiw	r26, 0x1c	; 28
    178a:	8c 91       	ld	r24, X
    178c:	5c 97       	sbiw	r26, 0x1c	; 28
    178e:	84 8f       	std	Z+28, r24	; 0x1c
	data_array[29]=recurrence_b[29];
    1790:	5d 96       	adiw	r26, 0x1d	; 29
    1792:	8c 91       	ld	r24, X
    1794:	5d 97       	sbiw	r26, 0x1d	; 29
    1796:	85 8f       	std	Z+29, r24	; 0x1d
	data_array[30]=recurrence_b[30];
    1798:	5e 96       	adiw	r26, 0x1e	; 30
    179a:	8c 91       	ld	r24, X
    179c:	5e 97       	sbiw	r26, 0x1e	; 30
    179e:	86 8f       	std	Z+30, r24	; 0x1e
	data_array[31]=recurrence_b[31];
    17a0:	5f 96       	adiw	r26, 0x1f	; 31
    17a2:	8c 91       	ld	r24, X
    17a4:	5f 97       	sbiw	r26, 0x1f	; 31
    17a6:	87 8f       	std	Z+31, r24	; 0x1f
	data_array[32]=recurrence_b[32];
    17a8:	90 96       	adiw	r26, 0x20	; 32
    17aa:	8c 91       	ld	r24, X
    17ac:	90 97       	sbiw	r26, 0x20	; 32
    17ae:	80 a3       	std	Z+32, r24	; 0x20
	data_array[33]=recurrence_b[33];
    17b0:	91 96       	adiw	r26, 0x21	; 33
    17b2:	8c 91       	ld	r24, X
    17b4:	91 97       	sbiw	r26, 0x21	; 33
    17b6:	81 a3       	std	Z+33, r24	; 0x21
	data_array[34]=recurrence_b[34];
    17b8:	92 96       	adiw	r26, 0x22	; 34
    17ba:	8c 91       	ld	r24, X
    17bc:	92 97       	sbiw	r26, 0x22	; 34
    17be:	82 a3       	std	Z+34, r24	; 0x22
	data_array[35]=recurrence_b[35];
    17c0:	93 96       	adiw	r26, 0x23	; 35
    17c2:	8c 91       	ld	r24, X
    17c4:	93 97       	sbiw	r26, 0x23	; 35
    17c6:	83 a3       	std	Z+35, r24	; 0x23
	data_array[36]=recurrence_b[36];
    17c8:	94 96       	adiw	r26, 0x24	; 36
    17ca:	8c 91       	ld	r24, X
    17cc:	94 97       	sbiw	r26, 0x24	; 36
    17ce:	84 a3       	std	Z+36, r24	; 0x24
	data_array[37]=recurrence_b[37];
    17d0:	95 96       	adiw	r26, 0x25	; 37
    17d2:	8c 91       	ld	r24, X
    17d4:	95 97       	sbiw	r26, 0x25	; 37
    17d6:	85 a3       	std	Z+37, r24	; 0x25
	data_array[38]=recurrence_b[38];
    17d8:	96 96       	adiw	r26, 0x26	; 38
    17da:	8c 91       	ld	r24, X
    17dc:	96 97       	sbiw	r26, 0x26	; 38
    17de:	86 a3       	std	Z+38, r24	; 0x26
	data_array[39]=recurrence_b[39];
    17e0:	97 96       	adiw	r26, 0x27	; 39
    17e2:	8c 91       	ld	r24, X
    17e4:	97 97       	sbiw	r26, 0x27	; 39
    17e6:	87 a3       	std	Z+39, r24	; 0x27
	data_array[40]=recurrence_b[40];
    17e8:	98 96       	adiw	r26, 0x28	; 40
    17ea:	8c 91       	ld	r24, X
    17ec:	98 97       	sbiw	r26, 0x28	; 40
    17ee:	80 a7       	std	Z+40, r24	; 0x28
	data_array[41]=recurrence_b[41];
    17f0:	99 96       	adiw	r26, 0x29	; 41
    17f2:	8c 91       	ld	r24, X
    17f4:	99 97       	sbiw	r26, 0x29	; 41
    17f6:	81 a7       	std	Z+41, r24	; 0x29
	
	data_array[42]=recurrence_b[42];
    17f8:	9a 96       	adiw	r26, 0x2a	; 42
    17fa:	8c 91       	ld	r24, X
    17fc:	9a 97       	sbiw	r26, 0x2a	; 42
    17fe:	82 a7       	std	Z+42, r24	; 0x2a
	data_array[43]=recurrence_b[43];
    1800:	9b 96       	adiw	r26, 0x2b	; 43
    1802:	8c 91       	ld	r24, X
    1804:	9b 97       	sbiw	r26, 0x2b	; 43
    1806:	83 a7       	std	Z+43, r24	; 0x2b
	data_array[44]=recurrence_b[44];
    1808:	9c 96       	adiw	r26, 0x2c	; 44
    180a:	8c 91       	ld	r24, X
    180c:	9c 97       	sbiw	r26, 0x2c	; 44
    180e:	84 a7       	std	Z+44, r24	; 0x2c
	data_array[45]=recurrence_b[45];
    1810:	9d 96       	adiw	r26, 0x2d	; 45
    1812:	8c 91       	ld	r24, X
    1814:	9d 97       	sbiw	r26, 0x2d	; 45
    1816:	85 a7       	std	Z+45, r24	; 0x2d
	data_array[46]=recurrence_b[46];
    1818:	9e 96       	adiw	r26, 0x2e	; 46
    181a:	8c 91       	ld	r24, X
    181c:	9e 97       	sbiw	r26, 0x2e	; 46
    181e:	86 a7       	std	Z+46, r24	; 0x2e
	data_array[47]=recurrence_b[47];
    1820:	9f 96       	adiw	r26, 0x2f	; 47
    1822:	8c 91       	ld	r24, X
    1824:	9f 97       	sbiw	r26, 0x2f	; 47
    1826:	87 a7       	std	Z+47, r24	; 0x2f
	data_array[48]=recurrence_b[48];
    1828:	d0 96       	adiw	r26, 0x30	; 48
    182a:	8c 91       	ld	r24, X
    182c:	d0 97       	sbiw	r26, 0x30	; 48
    182e:	80 ab       	std	Z+48, r24	; 0x30
	data_array[49]=recurrence_b[49];
    1830:	d1 96       	adiw	r26, 0x31	; 49
    1832:	8c 91       	ld	r24, X
    1834:	d1 97       	sbiw	r26, 0x31	; 49
    1836:	81 ab       	std	Z+49, r24	; 0x31
	data_array[50]=recurrence_b[50];
    1838:	d2 96       	adiw	r26, 0x32	; 50
    183a:	8c 91       	ld	r24, X
    183c:	d2 97       	sbiw	r26, 0x32	; 50
    183e:	82 ab       	std	Z+50, r24	; 0x32
	data_array[51]=recurrence_b[51];
    1840:	d3 96       	adiw	r26, 0x33	; 51
    1842:	8c 91       	ld	r24, X
    1844:	d3 97       	sbiw	r26, 0x33	; 51
    1846:	83 ab       	std	Z+51, r24	; 0x33
	data_array[52]=recurrence_b[52];
    1848:	d4 96       	adiw	r26, 0x34	; 52
    184a:	8c 91       	ld	r24, X
    184c:	d4 97       	sbiw	r26, 0x34	; 52
    184e:	84 ab       	std	Z+52, r24	; 0x34
	data_array[53]=recurrence_b[53];
    1850:	d5 96       	adiw	r26, 0x35	; 53
    1852:	8c 91       	ld	r24, X
    1854:	d5 97       	sbiw	r26, 0x35	; 53
    1856:	85 ab       	std	Z+53, r24	; 0x35
	data_array[54]=recurrence_b[54];
    1858:	d6 96       	adiw	r26, 0x36	; 54
    185a:	8c 91       	ld	r24, X
    185c:	d6 97       	sbiw	r26, 0x36	; 54
    185e:	86 ab       	std	Z+54, r24	; 0x36
	data_array[55]=recurrence_b[55];
    1860:	d7 96       	adiw	r26, 0x37	; 55
    1862:	8c 91       	ld	r24, X
    1864:	d7 97       	sbiw	r26, 0x37	; 55
    1866:	87 ab       	std	Z+55, r24	; 0x37
	
	data_array[56]=recurrence_b[56];
    1868:	d8 96       	adiw	r26, 0x38	; 56
    186a:	8c 91       	ld	r24, X
    186c:	d8 97       	sbiw	r26, 0x38	; 56
    186e:	80 af       	std	Z+56, r24	; 0x38
	data_array[57]=recurrence_b[57];
    1870:	d9 96       	adiw	r26, 0x39	; 57
    1872:	8c 91       	ld	r24, X
    1874:	d9 97       	sbiw	r26, 0x39	; 57
    1876:	81 af       	std	Z+57, r24	; 0x39
	data_array[58]=recurrence_b[58];
    1878:	da 96       	adiw	r26, 0x3a	; 58
    187a:	8c 91       	ld	r24, X
    187c:	da 97       	sbiw	r26, 0x3a	; 58
    187e:	82 af       	std	Z+58, r24	; 0x3a
	data_array[59]=recurrence_b[59];
    1880:	db 96       	adiw	r26, 0x3b	; 59
    1882:	8c 91       	ld	r24, X
    1884:	db 97       	sbiw	r26, 0x3b	; 59
    1886:	83 af       	std	Z+59, r24	; 0x3b
	data_array[60]=recurrence_b[60];
    1888:	dc 96       	adiw	r26, 0x3c	; 60
    188a:	8c 91       	ld	r24, X
    188c:	84 af       	std	Z+60, r24	; 0x3c
	data_array[61]=recurrence_b[61];
    188e:	80 91 d3 09 	lds	r24, 0x09D3	; 0x8009d3 <recurrence_b+0x3d>
    1892:	80 93 b5 0a 	sts	0x0AB5, r24	; 0x800ab5 <data_array+0x3d>
	data_array[62]=recurrence_b[62];
    1896:	80 91 d4 09 	lds	r24, 0x09D4	; 0x8009d4 <recurrence_b+0x3e>
    189a:	80 93 b6 0a 	sts	0x0AB6, r24	; 0x800ab6 <data_array+0x3e>
	data_array[63]=recurrence_b[63];
    189e:	80 91 d5 09 	lds	r24, 0x09D5	; 0x8009d5 <recurrence_b+0x3f>
    18a2:	80 93 b7 0a 	sts	0x0AB7, r24	; 0x800ab7 <data_array+0x3f>
	data_array[64]=recurrence_b[64];
    18a6:	80 91 d6 09 	lds	r24, 0x09D6	; 0x8009d6 <recurrence_b+0x40>
    18aa:	80 93 b8 0a 	sts	0x0AB8, r24	; 0x800ab8 <data_array+0x40>
	data_array[65]=recurrence_b[65];
    18ae:	80 91 d7 09 	lds	r24, 0x09D7	; 0x8009d7 <recurrence_b+0x41>
    18b2:	80 93 b9 0a 	sts	0x0AB9, r24	; 0x800ab9 <data_array+0x41>
	data_array[66]=recurrence_b[66];
    18b6:	80 91 d8 09 	lds	r24, 0x09D8	; 0x8009d8 <recurrence_b+0x42>
    18ba:	80 93 ba 0a 	sts	0x0ABA, r24	; 0x800aba <data_array+0x42>
	data_array[67]=recurrence_b[67];
    18be:	80 91 d9 09 	lds	r24, 0x09D9	; 0x8009d9 <recurrence_b+0x43>
    18c2:	80 93 bb 0a 	sts	0x0ABB, r24	; 0x800abb <data_array+0x43>
	data_array[68]=recurrence_b[68];
    18c6:	80 91 da 09 	lds	r24, 0x09DA	; 0x8009da <recurrence_b+0x44>
    18ca:	80 93 bc 0a 	sts	0x0ABC, r24	; 0x800abc <data_array+0x44>
	data_array[69]=recurrence_b[69];
    18ce:	80 91 db 09 	lds	r24, 0x09DB	; 0x8009db <recurrence_b+0x45>
    18d2:	80 93 bd 0a 	sts	0x0ABD, r24	; 0x800abd <data_array+0x45>
	
	data_array[70]=recurrence_b[70];
    18d6:	80 91 dc 09 	lds	r24, 0x09DC	; 0x8009dc <recurrence_b+0x46>
    18da:	80 93 be 0a 	sts	0x0ABE, r24	; 0x800abe <data_array+0x46>
	data_array[71]=recurrence_b[71];
    18de:	80 91 dd 09 	lds	r24, 0x09DD	; 0x8009dd <recurrence_b+0x47>
    18e2:	80 93 bf 0a 	sts	0x0ABF, r24	; 0x800abf <data_array+0x47>
	data_array[72]=recurrence_b[72];
    18e6:	80 91 de 09 	lds	r24, 0x09DE	; 0x8009de <recurrence_b+0x48>
    18ea:	80 93 c0 0a 	sts	0x0AC0, r24	; 0x800ac0 <data_array+0x48>
	data_array[73]=recurrence_b[73];
    18ee:	80 91 df 09 	lds	r24, 0x09DF	; 0x8009df <recurrence_b+0x49>
    18f2:	80 93 c1 0a 	sts	0x0AC1, r24	; 0x800ac1 <data_array+0x49>
	data_array[74]=recurrence_b[74];
    18f6:	80 91 e0 09 	lds	r24, 0x09E0	; 0x8009e0 <recurrence_b+0x4a>
    18fa:	80 93 c2 0a 	sts	0x0AC2, r24	; 0x800ac2 <data_array+0x4a>
	data_array[75]=recurrence_b[75];
    18fe:	80 91 e1 09 	lds	r24, 0x09E1	; 0x8009e1 <recurrence_b+0x4b>
    1902:	80 93 c3 0a 	sts	0x0AC3, r24	; 0x800ac3 <data_array+0x4b>
	data_array[76]=recurrence_b[76];
    1906:	80 91 e2 09 	lds	r24, 0x09E2	; 0x8009e2 <recurrence_b+0x4c>
    190a:	80 93 c4 0a 	sts	0x0AC4, r24	; 0x800ac4 <data_array+0x4c>
	data_array[77]=recurrence_b[77];
    190e:	80 91 e3 09 	lds	r24, 0x09E3	; 0x8009e3 <recurrence_b+0x4d>
    1912:	80 93 c5 0a 	sts	0x0AC5, r24	; 0x800ac5 <data_array+0x4d>
	data_array[78]=recurrence_b[78];
    1916:	80 91 e4 09 	lds	r24, 0x09E4	; 0x8009e4 <recurrence_b+0x4e>
    191a:	80 93 c6 0a 	sts	0x0AC6, r24	; 0x800ac6 <data_array+0x4e>
	data_array[79]=recurrence_b[79];
    191e:	80 91 e5 09 	lds	r24, 0x09E5	; 0x8009e5 <recurrence_b+0x4f>
    1922:	80 93 c7 0a 	sts	0x0AC7, r24	; 0x800ac7 <data_array+0x4f>
	data_array[80]=recurrence_b[80];
    1926:	80 91 e6 09 	lds	r24, 0x09E6	; 0x8009e6 <recurrence_b+0x50>
    192a:	80 93 c8 0a 	sts	0x0AC8, r24	; 0x800ac8 <data_array+0x50>
	data_array[81]=recurrence_b[81];
    192e:	80 91 e7 09 	lds	r24, 0x09E7	; 0x8009e7 <recurrence_b+0x51>
    1932:	80 93 c9 0a 	sts	0x0AC9, r24	; 0x800ac9 <data_array+0x51>
	data_array[82]=recurrence_b[82];
    1936:	80 91 e8 09 	lds	r24, 0x09E8	; 0x8009e8 <recurrence_b+0x52>
    193a:	80 93 ca 0a 	sts	0x0ACA, r24	; 0x800aca <data_array+0x52>
	data_array[83]=recurrence_b[83];
    193e:	80 91 e9 09 	lds	r24, 0x09E9	; 0x8009e9 <recurrence_b+0x53>
    1942:	80 93 cb 0a 	sts	0x0ACB, r24	; 0x800acb <data_array+0x53>
	
	data_array[84]=recurrence_b[84];
    1946:	80 91 ea 09 	lds	r24, 0x09EA	; 0x8009ea <recurrence_b+0x54>
    194a:	80 93 cc 0a 	sts	0x0ACC, r24	; 0x800acc <data_array+0x54>
	data_array[85]=recurrence_b[85];
    194e:	80 91 eb 09 	lds	r24, 0x09EB	; 0x8009eb <recurrence_b+0x55>
    1952:	80 93 cd 0a 	sts	0x0ACD, r24	; 0x800acd <data_array+0x55>
	data_array[86]=recurrence_b[86];
    1956:	80 91 ec 09 	lds	r24, 0x09EC	; 0x8009ec <recurrence_b+0x56>
    195a:	80 93 ce 0a 	sts	0x0ACE, r24	; 0x800ace <data_array+0x56>
	data_array[87]=recurrence_b[87];
    195e:	80 91 ed 09 	lds	r24, 0x09ED	; 0x8009ed <recurrence_b+0x57>
    1962:	80 93 cf 0a 	sts	0x0ACF, r24	; 0x800acf <data_array+0x57>
	data_array[88]=recurrence_b[88];
    1966:	80 91 ee 09 	lds	r24, 0x09EE	; 0x8009ee <recurrence_b+0x58>
    196a:	80 93 d0 0a 	sts	0x0AD0, r24	; 0x800ad0 <data_array+0x58>
	
	EEPROM_write(1,0,89);
    196e:	49 e5       	ldi	r20, 0x59	; 89
    1970:	60 e0       	ldi	r22, 0x00	; 0
    1972:	81 e0       	ldi	r24, 0x01	; 1
    1974:	f1 cb       	rjmp	.-2078   	; 0x1158 <EEPROM_write>
    1976:	08 95       	ret

00001978 <initialize_sortie>:

// Activation des sorties

void initialize_sortie (void){
	
	DDRB = 0b00001111;
    1978:	8f e0       	ldi	r24, 0x0F	; 15
    197a:	84 b9       	out	0x04, r24	; 4
	PORTB = 0b11110000;
    197c:	80 ef       	ldi	r24, 0xF0	; 240
    197e:	85 b9       	out	0x05, r24	; 5
	//DDRC |= (1<<DDC0) | (1<<DDC1) | (1<<DDC2) | (1<<DDC3);	//Mise en output (low colonnes)
	DDRD |= (1<<DDD7) | (1<<DDD6);
    1980:	8a b1       	in	r24, 0x0a	; 10
    1982:	80 6c       	ori	r24, 0xC0	; 192
    1984:	8a b9       	out	0x0a, r24	; 10
	PORTD &=(0<<PORTD7)&~(0<<PORTD6);
    1986:	8b b1       	in	r24, 0x0b	; 11
    1988:	1b b8       	out	0x0b, r1	; 11
    198a:	08 95       	ret

0000198c <initialize_entree>:

// Activation des entres

void initialize_entree (void){
	
	PORTB |= (1<<PORTB4) | (1<<PORTB5) | (1<<PORTB6) | (1<<PORTB7);	//Pull-Up activated
    198c:	85 b1       	in	r24, 0x05	; 5
    198e:	80 6f       	ori	r24, 0xF0	; 240
    1990:	85 b9       	out	0x05, r24	; 5
	PORTC |= (1<<PORTC0) | (1<<PORTC1);//Pull-Up activated (I2C)
    1992:	88 b1       	in	r24, 0x08	; 8
    1994:	83 60       	ori	r24, 0x03	; 3
    1996:	88 b9       	out	0x08, r24	; 8
    1998:	08 95       	ret

0000199a <twi_init>:

//TWI initialize
// bit rate:32 (freq: 100Khz)
void twi_init(void)
{
	TWCR= 0X00; //disable twi
    199a:	ec eb       	ldi	r30, 0xBC	; 188
    199c:	f0 e0       	ldi	r31, 0x00	; 0
    199e:	10 82       	st	Z, r1
	TWBR= 32; //set bit rate
    19a0:	80 e2       	ldi	r24, 0x20	; 32
    19a2:	80 93 b8 00 	sts	0x00B8, r24	; 0x8000b8 <__TEXT_REGION_LENGTH__+0x7e00b8>
	//TWBR= 0x12; //set bit rate
	TWSR= 0x00; //set prescale
    19a6:	10 92 b9 00 	sts	0x00B9, r1	; 0x8000b9 <__TEXT_REGION_LENGTH__+0x7e00b9>
	TWCR= 0x44; //enable twi
    19aa:	84 e4       	ldi	r24, 0x44	; 68
    19ac:	80 83       	st	Z, r24
    19ae:	08 95       	ret

000019b0 <i2c_start>:
//Function to start i2c communication
//*************************************************
unsigned char i2c_start(void)
{
 
	TWCR = (1<<TWINT)|(1<<TWSTA)|(1<<TWEN); 	//Send START condition
    19b0:	84 ea       	ldi	r24, 0xA4	; 164
    19b2:	80 93 bc 00 	sts	0x00BC, r24	; 0x8000bc <__TEXT_REGION_LENGTH__+0x7e00bc>
	
    while (!(TWCR & (1<<TWINT)));   		//Wait for TWINT flag set. This indicates that the
    19b6:	ec eb       	ldi	r30, 0xBC	; 188
    19b8:	f0 e0       	ldi	r31, 0x00	; 0
    19ba:	80 81       	ld	r24, Z
    19bc:	88 23       	and	r24, r24
    19be:	ec f7       	brge	.-6      	; 0x19ba <i2c_start+0xa>
		  								//START condition has been transmitted
    if ((TWSR & 0xF8) == START)			//Check value of TWI Status Register
    19c0:	90 91 b9 00 	lds	r25, 0x00B9	; 0x8000b9 <__TEXT_REGION_LENGTH__+0x7e00b9>
    19c4:	98 7f       	andi	r25, 0xF8	; 248
    19c6:	81 e0       	ldi	r24, 0x01	; 1
    19c8:	98 30       	cpi	r25, 0x08	; 8
    19ca:	09 f4       	brne	.+2      	; 0x19ce <i2c_start+0x1e>
    19cc:	80 e0       	ldi	r24, 0x00	; 0
 	   return(0);
	else
	   return(1);
}
    19ce:	08 95       	ret

000019d0 <i2c_repeatStart>:
//Function for repeat start condition
//*************************************************
unsigned char i2c_repeatStart(void)
{
 
    TWCR = (1<<TWINT)|(1<<TWSTA)|(1<<TWEN); 		//Send START condition
    19d0:	84 ea       	ldi	r24, 0xA4	; 164
    19d2:	80 93 bc 00 	sts	0x00BC, r24	; 0x8000bc <__TEXT_REGION_LENGTH__+0x7e00bc>
    while (!(TWCR & (1<<TWINT)));   		//Wait for TWINT flag set. This indicates that the
    19d6:	ec eb       	ldi	r30, 0xBC	; 188
    19d8:	f0 e0       	ldi	r31, 0x00	; 0
    19da:	80 81       	ld	r24, Z
    19dc:	88 23       	and	r24, r24
    19de:	ec f7       	brge	.-6      	; 0x19da <i2c_repeatStart+0xa>
		  								//START condition has been transmitted
    if ((TWSR & 0xF8) == REPEAT_START)			//Check value of TWI Status Register
    19e0:	90 91 b9 00 	lds	r25, 0x00B9	; 0x8000b9 <__TEXT_REGION_LENGTH__+0x7e00b9>
    19e4:	98 7f       	andi	r25, 0xF8	; 248
    19e6:	81 e0       	ldi	r24, 0x01	; 1
    19e8:	90 31       	cpi	r25, 0x10	; 16
    19ea:	09 f4       	brne	.+2      	; 0x19ee <i2c_repeatStart+0x1e>
    19ec:	80 e0       	ldi	r24, 0x00	; 0
 	   return(0);
	else
	   return(1);
}
    19ee:	08 95       	ret

000019f0 <i2c_sendAddress>:
//*************************************************
unsigned char i2c_sendAddress(unsigned char address)
{
   unsigned char STATUS;
   
   if((address & 0x01) == 0) 
    19f0:	80 ff       	sbrs	r24, 0
    19f2:	02 c0       	rjmp	.+4      	; 0x19f8 <i2c_sendAddress+0x8>
     STATUS = MT_SLA_ACK;
   else
     STATUS = MR_SLA_ACK; 
    19f4:	20 e4       	ldi	r18, 0x40	; 64
    19f6:	01 c0       	rjmp	.+2      	; 0x19fa <i2c_sendAddress+0xa>
unsigned char i2c_sendAddress(unsigned char address)
{
   unsigned char STATUS;
   
   if((address & 0x01) == 0) 
     STATUS = MT_SLA_ACK;
    19f8:	28 e1       	ldi	r18, 0x18	; 24
   else
     STATUS = MR_SLA_ACK; 
   
   TWDR = address; 
    19fa:	80 93 bb 00 	sts	0x00BB, r24	; 0x8000bb <__TEXT_REGION_LENGTH__+0x7e00bb>
   TWCR = (1<<TWINT)|(1<<TWEN);	   //Load SLA_W into TWDR Register. Clear TWINT bit
    19fe:	84 e8       	ldi	r24, 0x84	; 132
    1a00:	80 93 bc 00 	sts	0x00BC, r24	; 0x8000bc <__TEXT_REGION_LENGTH__+0x7e00bc>
   		  			 				   //in TWCR to start transmission of address
   while (!(TWCR & (1<<TWINT)));	   //Wait for TWINT flag set. This indicates that the
    1a04:	ec eb       	ldi	r30, 0xBC	; 188
    1a06:	f0 e0       	ldi	r31, 0x00	; 0
    1a08:	80 81       	ld	r24, Z
    1a0a:	88 23       	and	r24, r24
    1a0c:	ec f7       	brge	.-6      	; 0x1a08 <i2c_sendAddress+0x18>
   		 		   					   //SLA+W has been transmitted, and
									   //ACK/NACK has been received.
   if ((TWSR & 0xF8) == STATUS)	   //Check value of TWI Status Register
    1a0e:	90 91 b9 00 	lds	r25, 0x00B9	; 0x8000b9 <__TEXT_REGION_LENGTH__+0x7e00b9>
    1a12:	98 7f       	andi	r25, 0xF8	; 248
    1a14:	81 e0       	ldi	r24, 0x01	; 1
    1a16:	29 13       	cpse	r18, r25
    1a18:	01 c0       	rjmp	.+2      	; 0x1a1c <i2c_sendAddress+0x2c>
    1a1a:	80 e0       	ldi	r24, 0x00	; 0
   	  return(0);
   else 
      return(1);
}
    1a1c:	08 95       	ret

00001a1e <i2c_sendData>:
//**************************************************
//Function to transmit a data byte
//*************************************************
unsigned char i2c_sendData(unsigned char data)
{
   TWDR = data; 
    1a1e:	80 93 bb 00 	sts	0x00BB, r24	; 0x8000bb <__TEXT_REGION_LENGTH__+0x7e00bb>
   TWCR = (1<<TWINT) |(1<<TWEN);	   //Load SLA_W into TWDR Register. Clear TWINT bit
    1a22:	84 e8       	ldi	r24, 0x84	; 132
    1a24:	80 93 bc 00 	sts	0x00BC, r24	; 0x8000bc <__TEXT_REGION_LENGTH__+0x7e00bc>
   		  			 				   //in TWCR to start transmission of data
   while (!(TWCR & (1<<TWINT)));	   //Wait for TWINT flag set. This indicates that the
    1a28:	ec eb       	ldi	r30, 0xBC	; 188
    1a2a:	f0 e0       	ldi	r31, 0x00	; 0
    1a2c:	80 81       	ld	r24, Z
    1a2e:	88 23       	and	r24, r24
    1a30:	ec f7       	brge	.-6      	; 0x1a2c <i2c_sendData+0xe>
   		 		   					   //data has been transmitted, and
									   //ACK/NACK has been received.
   if ((TWSR & 0xF8) != MT_DATA_ACK)   //Check value of TWI Status Register
    1a32:	90 91 b9 00 	lds	r25, 0x00B9	; 0x8000b9 <__TEXT_REGION_LENGTH__+0x7e00b9>
    1a36:	98 7f       	andi	r25, 0xF8	; 248
    1a38:	81 e0       	ldi	r24, 0x01	; 1
    1a3a:	98 32       	cpi	r25, 0x28	; 40
    1a3c:	09 f4       	brne	.+2      	; 0x1a40 <i2c_sendData+0x22>
    1a3e:	80 e0       	ldi	r24, 0x00	; 0
   	  return(1);
   else
      return(0);
}
    1a40:	08 95       	ret

00001a42 <i2c_receiveData_ACK>:
//*****************************************************
unsigned char i2c_receiveData_ACK(void)
{
  unsigned char data;
  
  TWCR = (1<<TWEA)|(1<<TWINT)|(1<<TWEN);
    1a42:	84 ec       	ldi	r24, 0xC4	; 196
    1a44:	80 93 bc 00 	sts	0x00BC, r24	; 0x8000bc <__TEXT_REGION_LENGTH__+0x7e00bc>
  
  while (!(TWCR & (1<<TWINT)));	   	   //Wait for TWINT flag set. This indicates that the
    1a48:	ec eb       	ldi	r30, 0xBC	; 188
    1a4a:	f0 e0       	ldi	r31, 0x00	; 0
    1a4c:	80 81       	ld	r24, Z
    1a4e:	88 23       	and	r24, r24
    1a50:	ec f7       	brge	.-6      	; 0x1a4c <i2c_receiveData_ACK+0xa>
   		 		   					   //data has been received
  if ((TWSR & 0xF8) != MR_DATA_ACK)    //Check value of TWI Status Register
    1a52:	80 91 b9 00 	lds	r24, 0x00B9	; 0x8000b9 <__TEXT_REGION_LENGTH__+0x7e00b9>
    1a56:	88 7f       	andi	r24, 0xF8	; 248
    1a58:	80 35       	cpi	r24, 0x50	; 80
    1a5a:	19 f4       	brne	.+6      	; 0x1a62 <i2c_receiveData_ACK+0x20>
   	  return(ERROR_CODE);
  
  data = TWDR;
    1a5c:	80 91 bb 00 	lds	r24, 0x00BB	; 0x8000bb <__TEXT_REGION_LENGTH__+0x7e00bb>
  return(data);
    1a60:	08 95       	ret
  TWCR = (1<<TWEA)|(1<<TWINT)|(1<<TWEN);
  
  while (!(TWCR & (1<<TWINT)));	   	   //Wait for TWINT flag set. This indicates that the
   		 		   					   //data has been received
  if ((TWSR & 0xF8) != MR_DATA_ACK)    //Check value of TWI Status Register
   	  return(ERROR_CODE);
    1a62:	8e e7       	ldi	r24, 0x7E	; 126
  
  data = TWDR;
  return(data);
}
    1a64:	08 95       	ret

00001a66 <i2c_receiveData_NACK>:
//********************************************************************
unsigned char i2c_receiveData_NACK(void)
{
  unsigned char data;
  
  TWCR = (1<<TWINT)|(1<<TWEN);
    1a66:	84 e8       	ldi	r24, 0x84	; 132
    1a68:	80 93 bc 00 	sts	0x00BC, r24	; 0x8000bc <__TEXT_REGION_LENGTH__+0x7e00bc>
  
  while (!(TWCR & (1<<TWINT)));	   	   //Wait for TWINT flag set. This indicates that the
    1a6c:	ec eb       	ldi	r30, 0xBC	; 188
    1a6e:	f0 e0       	ldi	r31, 0x00	; 0
    1a70:	80 81       	ld	r24, Z
    1a72:	88 23       	and	r24, r24
    1a74:	ec f7       	brge	.-6      	; 0x1a70 <i2c_receiveData_NACK+0xa>
   		 		   					   //data has been received
  if ((TWSR & 0xF8) != MR_DATA_NACK)    //Check value of TWI Status Register
    1a76:	80 91 b9 00 	lds	r24, 0x00B9	; 0x8000b9 <__TEXT_REGION_LENGTH__+0x7e00b9>
    1a7a:	88 7f       	andi	r24, 0xF8	; 248
    1a7c:	88 35       	cpi	r24, 0x58	; 88
    1a7e:	19 f4       	brne	.+6      	; 0x1a86 <i2c_receiveData_NACK+0x20>
   	  return(ERROR_CODE);
  
  data = TWDR;
    1a80:	80 91 bb 00 	lds	r24, 0x00BB	; 0x8000bb <__TEXT_REGION_LENGTH__+0x7e00bb>
  return(data);
    1a84:	08 95       	ret
  TWCR = (1<<TWINT)|(1<<TWEN);
  
  while (!(TWCR & (1<<TWINT)));	   	   //Wait for TWINT flag set. This indicates that the
   		 		   					   //data has been received
  if ((TWSR & 0xF8) != MR_DATA_NACK)    //Check value of TWI Status Register
   	  return(ERROR_CODE);
    1a86:	8e e7       	ldi	r24, 0x7E	; 126
  
  data = TWDR;
  return(data);
}
    1a88:	08 95       	ret

00001a8a <i2c_stop>:
//**************************************************
//Function to end the i2c communication
//*************************************************   	
void i2c_stop(void)
{
  TWCR =  (1<<TWINT)|(1<<TWEN)|(1<<TWSTO);	  //Transmit STOP condition
    1a8a:	84 e9       	ldi	r24, 0x94	; 148
    1a8c:	80 93 bc 00 	sts	0x00BC, r24	; 0x8000bc <__TEXT_REGION_LENGTH__+0x7e00bc>
    1a90:	08 95       	ret

00001a92 <LCD_wait_execution>:
	...
  LCD_currentY=page*LCD_PAGE_HEIGHT;
  LCD_selectChip();
  LCD_setColumnAddress(x);
  LCD_setPageAddress(page); 
  LCD_puts(pString);
}
    1aae:	08 95       	ret

00001ab0 <LCD_sendCommand>:
    1ab0:	9f ef       	ldi	r25, 0xFF	; 255
    1ab2:	97 b9       	out	0x07, r25	; 7
    1ab4:	82 b9       	out	0x02, r24	; 2
    1ab6:	44 9a       	sbi	0x08, 4	; 8
    1ab8:	ec df       	rcall	.-40     	; 0x1a92 <LCD_wait_execution>
    1aba:	44 98       	cbi	0x08, 4	; 8
    1abc:	ea cf       	rjmp	.-44     	; 0x1a92 <LCD_wait_execution>
    1abe:	08 95       	ret

00001ac0 <LCD_setPageAddress>:
    1ac0:	88 6b       	ori	r24, 0xB8	; 184
    1ac2:	f6 cf       	rjmp	.-20     	; 0x1ab0 <LCD_sendCommand>
    1ac4:	08 95       	ret

00001ac6 <LCD_selectLeftChip>:
    1ac6:	46 98       	cbi	0x08, 6	; 8
    1ac8:	45 9a       	sbi	0x08, 5	; 8
    1aca:	08 95       	ret

00001acc <LCD_selectRightChip>:
    1acc:	45 98       	cbi	0x08, 5	; 8
    1ace:	46 9a       	sbi	0x08, 6	; 8
    1ad0:	08 95       	ret

00001ad2 <LCD_setColumnAddress>:
    1ad2:	cf 93       	push	r28
    1ad4:	c8 2f       	mov	r28, r24
    1ad6:	80 34       	cpi	r24, 0x40	; 64
    1ad8:	28 f4       	brcc	.+10     	; 0x1ae4 <LCD_setColumnAddress+0x12>
    1ada:	f5 df       	rcall	.-22     	; 0x1ac6 <LCD_selectLeftChip>
    1adc:	8c 2f       	mov	r24, r28
    1ade:	80 64       	ori	r24, 0x40	; 64
    1ae0:	e7 df       	rcall	.-50     	; 0x1ab0 <LCD_sendCommand>
    1ae2:	05 c0       	rjmp	.+10     	; 0x1aee <LCD_setColumnAddress+0x1c>
    1ae4:	f3 df       	rcall	.-26     	; 0x1acc <LCD_selectRightChip>
    1ae6:	80 ec       	ldi	r24, 0xC0	; 192
    1ae8:	8c 0f       	add	r24, r28
    1aea:	80 64       	ori	r24, 0x40	; 64
    1aec:	e1 df       	rcall	.-62     	; 0x1ab0 <LCD_sendCommand>
    1aee:	cf 91       	pop	r28
    1af0:	08 95       	ret

00001af2 <LCD_selectChip>:
    1af2:	80 91 18 0b 	lds	r24, 0x0B18	; 0x800b18 <LCD_currentX>
    1af6:	80 34       	cpi	r24, 0x40	; 64
    1af8:	10 f4       	brcc	.+4      	; 0x1afe <LCD_selectChip+0xc>
    1afa:	e5 cf       	rjmp	.-54     	; 0x1ac6 <LCD_selectLeftChip>
    1afc:	08 95       	ret
    1afe:	e6 cf       	rjmp	.-52     	; 0x1acc <LCD_selectRightChip>
    1b00:	08 95       	ret

00001b02 <LCD_readStatus>:
    1b02:	f7 df       	rcall	.-18     	; 0x1af2 <LCD_selectChip>
    1b04:	11 b8       	out	0x01, r1	; 1
    1b06:	42 98       	cbi	0x08, 2	; 8
    1b08:	88 b1       	in	r24, 0x08	; 8
    1b0a:	88 61       	ori	r24, 0x18	; 24
    1b0c:	88 b9       	out	0x08, r24	; 8
    1b0e:	c1 df       	rcall	.-126    	; 0x1a92 <LCD_wait_execution>
    1b10:	80 b1       	in	r24, 0x00	; 0
    1b12:	91 b1       	in	r25, 0x01	; 1
    1b14:	9f ef       	ldi	r25, 0xFF	; 255
    1b16:	91 b9       	out	0x01, r25	; 1
    1b18:	98 b1       	in	r25, 0x08	; 8
    1b1a:	97 7e       	andi	r25, 0xE7	; 231
    1b1c:	98 b9       	out	0x08, r25	; 8
    1b1e:	08 95       	ret

00001b20 <LCD_isReseting>:
    1b20:	f0 df       	rcall	.-32     	; 0x1b02 <LCD_readStatus>
    1b22:	82 95       	swap	r24
    1b24:	81 70       	andi	r24, 0x01	; 1
    1b26:	08 95       	ret

00001b28 <LCD_setCursorXY>:
    1b28:	cf 93       	push	r28
    1b2a:	df 93       	push	r29
    1b2c:	d8 2f       	mov	r29, r24
    1b2e:	c6 2f       	mov	r28, r22
    1b30:	80 93 18 0b 	sts	0x0B18, r24	; 0x800b18 <LCD_currentX>
    1b34:	60 93 19 0b 	sts	0x0B19, r22	; 0x800b19 <LCD_currentY>
    1b38:	dc df       	rcall	.-72     	; 0x1af2 <LCD_selectChip>
    1b3a:	8d 2f       	mov	r24, r29
    1b3c:	ca df       	rcall	.-108    	; 0x1ad2 <LCD_setColumnAddress>
    1b3e:	8c 2f       	mov	r24, r28
    1b40:	86 95       	lsr	r24
    1b42:	86 95       	lsr	r24
    1b44:	86 95       	lsr	r24
    1b46:	bc df       	rcall	.-136    	; 0x1ac0 <LCD_setPageAddress>
    1b48:	df 91       	pop	r29
    1b4a:	cf 91       	pop	r28
    1b4c:	08 95       	ret

00001b4e <LCD_writeByte>:
    1b4e:	cf 93       	push	r28
    1b50:	c8 2f       	mov	r28, r24
    1b52:	60 91 19 0b 	lds	r22, 0x0B19	; 0x800b19 <LCD_currentY>
    1b56:	80 91 18 0b 	lds	r24, 0x0B18	; 0x800b18 <LCD_currentX>
    1b5a:	e6 df       	rcall	.-52     	; 0x1b28 <LCD_setCursorXY>
    1b5c:	8f ef       	ldi	r24, 0xFF	; 255
    1b5e:	81 b9       	out	0x01, r24	; 1
    1b60:	c2 b9       	out	0x02, r28	; 2
    1b62:	88 b1       	in	r24, 0x08	; 8
    1b64:	84 61       	ori	r24, 0x14	; 20
    1b66:	88 b9       	out	0x08, r24	; 8
    1b68:	94 df       	rcall	.-216    	; 0x1a92 <LCD_wait_execution>
    1b6a:	44 98       	cbi	0x08, 4	; 8
    1b6c:	42 98       	cbi	0x08, 2	; 8
    1b6e:	91 df       	rcall	.-222    	; 0x1a92 <LCD_wait_execution>
    1b70:	80 91 18 0b 	lds	r24, 0x0B18	; 0x800b18 <LCD_currentX>
    1b74:	8f 5f       	subi	r24, 0xFF	; 255
    1b76:	80 93 18 0b 	sts	0x0B18, r24	; 0x800b18 <LCD_currentX>
    1b7a:	cf 91       	pop	r28
    1b7c:	08 95       	ret

00001b7e <_LCD_readByte>:
    1b7e:	cf 93       	push	r28
    1b80:	60 91 19 0b 	lds	r22, 0x0B19	; 0x800b19 <LCD_currentY>
    1b84:	80 91 18 0b 	lds	r24, 0x0B18	; 0x800b18 <LCD_currentX>
    1b88:	cf df       	rcall	.-98     	; 0x1b28 <LCD_setCursorXY>
    1b8a:	81 b1       	in	r24, 0x01	; 1
    1b8c:	11 b8       	out	0x01, r1	; 1
    1b8e:	88 b1       	in	r24, 0x08	; 8
    1b90:	8c 61       	ori	r24, 0x1C	; 28
    1b92:	88 b9       	out	0x08, r24	; 8
    1b94:	7e df       	rcall	.-260    	; 0x1a92 <LCD_wait_execution>
    1b96:	c0 b1       	in	r28, 0x00	; 0
    1b98:	98 b1       	in	r25, 0x08	; 8
    1b9a:	93 7e       	andi	r25, 0xE3	; 227
    1b9c:	98 b9       	out	0x08, r25	; 8
    1b9e:	79 df       	rcall	.-270    	; 0x1a92 <LCD_wait_execution>
    1ba0:	81 b1       	in	r24, 0x01	; 1
    1ba2:	8f ef       	ldi	r24, 0xFF	; 255
    1ba4:	81 b9       	out	0x01, r24	; 1
    1ba6:	60 91 19 0b 	lds	r22, 0x0B19	; 0x800b19 <LCD_currentY>
    1baa:	80 91 18 0b 	lds	r24, 0x0B18	; 0x800b18 <LCD_currentX>
    1bae:	bc df       	rcall	.-136    	; 0x1b28 <LCD_setCursorXY>
    1bb0:	8c 2f       	mov	r24, r28
    1bb2:	cf 91       	pop	r28
    1bb4:	08 95       	ret

00001bb6 <LCD_readByte>:
    1bb6:	e3 df       	rcall	.-58     	; 0x1b7e <_LCD_readByte>
    1bb8:	e2 cf       	rjmp	.-60     	; 0x1b7e <_LCD_readByte>
    1bba:	08 95       	ret

00001bbc <LCD_allPagesOn>:
    1bbc:	1f 93       	push	r17
    1bbe:	cf 93       	push	r28
    1bc0:	df 93       	push	r29
    1bc2:	d8 2f       	mov	r29, r24
    1bc4:	10 e0       	ldi	r17, 0x00	; 0
    1bc6:	61 2f       	mov	r22, r17
    1bc8:	80 e0       	ldi	r24, 0x00	; 0
    1bca:	ae df       	rcall	.-164    	; 0x1b28 <LCD_setCursorXY>
    1bcc:	c0 e0       	ldi	r28, 0x00	; 0
    1bce:	8d 2f       	mov	r24, r29
    1bd0:	be df       	rcall	.-132    	; 0x1b4e <LCD_writeByte>
    1bd2:	cf 5f       	subi	r28, 0xFF	; 255
    1bd4:	c0 38       	cpi	r28, 0x80	; 128
    1bd6:	d9 f7       	brne	.-10     	; 0x1bce <LCD_allPagesOn+0x12>
    1bd8:	18 5f       	subi	r17, 0xF8	; 248
    1bda:	10 34       	cpi	r17, 0x40	; 64
    1bdc:	a1 f7       	brne	.-24     	; 0x1bc6 <LCD_allPagesOn+0xa>
    1bde:	df 91       	pop	r29
    1be0:	cf 91       	pop	r28
    1be2:	1f 91       	pop	r17
    1be4:	08 95       	ret

00001be6 <LCD_clr>:
    1be6:	80 e0       	ldi	r24, 0x00	; 0
    1be8:	e9 cf       	rjmp	.-46     	; 0x1bbc <LCD_allPagesOn>
    1bea:	08 95       	ret

00001bec <LCD_pixelOn>:
    1bec:	cf 93       	push	r28
    1bee:	c6 2f       	mov	r28, r22
    1bf0:	9b df       	rcall	.-202    	; 0x1b28 <LCD_setCursorXY>
    1bf2:	e1 df       	rcall	.-62     	; 0x1bb6 <LCD_readByte>
    1bf4:	c7 70       	andi	r28, 0x07	; 7
    1bf6:	21 e0       	ldi	r18, 0x01	; 1
    1bf8:	30 e0       	ldi	r19, 0x00	; 0
    1bfa:	02 c0       	rjmp	.+4      	; 0x1c00 <LCD_pixelOn+0x14>
    1bfc:	22 0f       	add	r18, r18
    1bfe:	33 1f       	adc	r19, r19
    1c00:	ca 95       	dec	r28
    1c02:	e2 f7       	brpl	.-8      	; 0x1bfc <LCD_pixelOn+0x10>
    1c04:	82 2b       	or	r24, r18
    1c06:	a3 df       	rcall	.-186    	; 0x1b4e <LCD_writeByte>
    1c08:	cf 91       	pop	r28
    1c0a:	08 95       	ret

00001c0c <LCD_pixelOff>:
    1c0c:	cf 93       	push	r28
    1c0e:	c6 2f       	mov	r28, r22
    1c10:	8b df       	rcall	.-234    	; 0x1b28 <LCD_setCursorXY>
    1c12:	d1 df       	rcall	.-94     	; 0x1bb6 <LCD_readByte>
    1c14:	c7 70       	andi	r28, 0x07	; 7
    1c16:	21 e0       	ldi	r18, 0x01	; 1
    1c18:	30 e0       	ldi	r19, 0x00	; 0
    1c1a:	02 c0       	rjmp	.+4      	; 0x1c20 <LCD_pixelOff+0x14>
    1c1c:	22 0f       	add	r18, r18
    1c1e:	33 1f       	adc	r19, r19
    1c20:	ca 95       	dec	r28
    1c22:	e2 f7       	brpl	.-8      	; 0x1c1c <LCD_pixelOff+0x10>
    1c24:	20 95       	com	r18
    1c26:	82 23       	and	r24, r18
    1c28:	92 df       	rcall	.-220    	; 0x1b4e <LCD_writeByte>
    1c2a:	cf 91       	pop	r28
    1c2c:	08 95       	ret

00001c2e <LCD_invertPage>:
    1c2e:	cf 93       	push	r28
    1c30:	df 93       	push	r29
    1c32:	c6 2f       	mov	r28, r22
    1c34:	d4 2f       	mov	r29, r20
    1c36:	68 2f       	mov	r22, r24
    1c38:	66 0f       	add	r22, r22
    1c3a:	66 0f       	add	r22, r22
    1c3c:	66 0f       	add	r22, r22
    1c3e:	8c 2f       	mov	r24, r28
    1c40:	73 df       	rcall	.-282    	; 0x1b28 <LCD_setCursorXY>
    1c42:	dc 17       	cp	r29, r28
    1c44:	30 f0       	brcs	.+12     	; 0x1c52 <LCD_invertPage+0x24>
    1c46:	b7 df       	rcall	.-146    	; 0x1bb6 <LCD_readByte>
    1c48:	80 95       	com	r24
    1c4a:	81 df       	rcall	.-254    	; 0x1b4e <LCD_writeByte>
    1c4c:	cf 5f       	subi	r28, 0xFF	; 255
    1c4e:	dc 17       	cp	r29, r28
    1c50:	d0 f7       	brcc	.-12     	; 0x1c46 <LCD_invertPage+0x18>
    1c52:	df 91       	pop	r29
    1c54:	cf 91       	pop	r28
    1c56:	08 95       	ret

00001c58 <LCD_putchar>:
    1c58:	0f 93       	push	r16
    1c5a:	1f 93       	push	r17
    1c5c:	cf 93       	push	r28
    1c5e:	df 93       	push	r29
    1c60:	08 2f       	mov	r16, r24
    1c62:	10 e0       	ldi	r17, 0x00	; 0
    1c64:	00 52       	subi	r16, 0x20	; 32
    1c66:	11 09       	sbc	r17, r1
    1c68:	c8 01       	movw	r24, r16
    1c6a:	88 0f       	add	r24, r24
    1c6c:	99 1f       	adc	r25, r25
    1c6e:	88 0f       	add	r24, r24
    1c70:	99 1f       	adc	r25, r25
    1c72:	08 0f       	add	r16, r24
    1c74:	19 1f       	adc	r17, r25
    1c76:	e8 01       	movw	r28, r16
    1c78:	c4 56       	subi	r28, 0x64	; 100
    1c7a:	df 4f       	sbci	r29, 0xFF	; 255
    1c7c:	0f 55       	subi	r16, 0x5F	; 95
    1c7e:	1f 4f       	sbci	r17, 0xFF	; 255
    1c80:	80 91 18 0b 	lds	r24, 0x0B18	; 0x800b18 <LCD_currentX>
    1c84:	88 23       	and	r24, r24
    1c86:	5c f4       	brge	.+22     	; 0x1c9e <LCD_putchar+0x46>
    1c88:	60 91 19 0b 	lds	r22, 0x0B19	; 0x800b19 <LCD_currentY>
    1c8c:	68 34       	cpi	r22, 0x48	; 72
    1c8e:	20 f4       	brcc	.+8      	; 0x1c98 <LCD_putchar+0x40>
    1c90:	68 5f       	subi	r22, 0xF8	; 248
    1c92:	80 e0       	ldi	r24, 0x00	; 0
    1c94:	49 df       	rcall	.-366    	; 0x1b28 <LCD_setCursorXY>
    1c96:	03 c0       	rjmp	.+6      	; 0x1c9e <LCD_putchar+0x46>
    1c98:	60 e0       	ldi	r22, 0x00	; 0
    1c9a:	80 e0       	ldi	r24, 0x00	; 0
    1c9c:	45 df       	rcall	.-374    	; 0x1b28 <LCD_setCursorXY>
    1c9e:	fe 01       	movw	r30, r28
    1ca0:	84 91       	lpm	r24, Z
    1ca2:	55 df       	rcall	.-342    	; 0x1b4e <LCD_writeByte>
    1ca4:	21 96       	adiw	r28, 0x01	; 1
    1ca6:	c0 17       	cp	r28, r16
    1ca8:	d1 07       	cpc	r29, r17
    1caa:	51 f7       	brne	.-44     	; 0x1c80 <LCD_putchar+0x28>
    1cac:	80 e0       	ldi	r24, 0x00	; 0
    1cae:	4f df       	rcall	.-354    	; 0x1b4e <LCD_writeByte>
    1cb0:	df 91       	pop	r29
    1cb2:	cf 91       	pop	r28
    1cb4:	1f 91       	pop	r17
    1cb6:	0f 91       	pop	r16
    1cb8:	08 95       	ret

00001cba <LCD_puts>:
    1cba:	0f 93       	push	r16
    1cbc:	1f 93       	push	r17
    1cbe:	cf 93       	push	r28
    1cc0:	fc 01       	movw	r30, r24
    1cc2:	80 81       	ld	r24, Z
    1cc4:	88 23       	and	r24, r24
    1cc6:	a1 f0       	breq	.+40     	; 0x1cf0 <LCD_puts+0x36>
    1cc8:	8f 01       	movw	r16, r30
    1cca:	c0 e0       	ldi	r28, 0x00	; 0
    1ccc:	8a 30       	cpi	r24, 0x0A	; 10
    1cce:	41 f4       	brne	.+16     	; 0x1ce0 <LCD_puts+0x26>
    1cd0:	10 92 18 0b 	sts	0x0B18, r1	; 0x800b18 <LCD_currentX>
    1cd4:	90 91 19 0b 	lds	r25, 0x0B19	; 0x800b19 <LCD_currentY>
    1cd8:	98 5f       	subi	r25, 0xF8	; 248
    1cda:	90 93 19 0b 	sts	0x0B19, r25	; 0x800b19 <LCD_currentY>
    1cde:	01 c0       	rjmp	.+2      	; 0x1ce2 <LCD_puts+0x28>
    1ce0:	bb df       	rcall	.-138    	; 0x1c58 <LCD_putchar>
    1ce2:	cf 5f       	subi	r28, 0xFF	; 255
    1ce4:	f8 01       	movw	r30, r16
    1ce6:	ec 0f       	add	r30, r28
    1ce8:	f1 1d       	adc	r31, r1
    1cea:	80 81       	ld	r24, Z
    1cec:	81 11       	cpse	r24, r1
    1cee:	ee cf       	rjmp	.-36     	; 0x1ccc <LCD_puts+0x12>
    1cf0:	cf 91       	pop	r28
    1cf2:	1f 91       	pop	r17
    1cf4:	0f 91       	pop	r16
    1cf6:	08 95       	ret

00001cf8 <LCD_on>:

//------------------------------------------------------------------------------
//Turn display on 
void LCD_on(void)
{
  LCD_selectLeftChip();        
    1cf8:	e6 de       	rcall	.-564    	; 0x1ac6 <LCD_selectLeftChip>
  LCD_sendCommand(SET_DISPLAY_ON);
    1cfa:	8f e3       	ldi	r24, 0x3F	; 63
    1cfc:	d9 de       	rcall	.-590    	; 0x1ab0 <LCD_sendCommand>
  LCD_selectRightChip();
    1cfe:	e6 de       	rcall	.-564    	; 0x1acc <LCD_selectRightChip>
  LCD_sendCommand(SET_DISPLAY_ON);
    1d00:	8f e3       	ldi	r24, 0x3F	; 63
    1d02:	d6 ce       	rjmp	.-596    	; 0x1ab0 <LCD_sendCommand>
    1d04:	08 95       	ret

00001d06 <LCD_init>:
//------------------------------------------------------------------------------
//Initialize LCD 
//
void LCD_init(void)
{ 
  LCD_CPDIRECTION |=0xff;      // controlport pins for output (needed for reset)
    1d06:	87 b1       	in	r24, 0x07	; 7
    1d08:	8f ef       	ldi	r24, 0xFF	; 255
    1d0a:	87 b9       	out	0x07, r24	; 7
  LCD_DPDIRECTION |=0xff;      // dataport pins for output    
    1d0c:	91 b1       	in	r25, 0x01	; 1
    1d0e:	81 b9       	out	0x01, r24	; 1
/*
  LCD_CONTROLPORT &= ~LCD_RST; //0 -reset the chip
  _delay_ms(20);               //  -wait for reset
  LCD_CONTROLPORT |= LCD_RST;  //1 
 */ 
  while(LCD_isReseting()) LCD_wait_execution();  //This might be omitted 
    1d10:	01 c0       	rjmp	.+2      	; 0x1d14 <LCD_init+0xe>
    1d12:	bf de       	rcall	.-642    	; 0x1a92 <LCD_wait_execution>
    1d14:	05 df       	rcall	.-502    	; 0x1b20 <LCD_isReseting>
    1d16:	81 11       	cpse	r24, r1
    1d18:	fc cf       	rjmp	.-8      	; 0x1d12 <LCD_init+0xc>
  //  _delay_ms(50);           //  -wait for reset 

  LCD_on();
    1d1a:	ee df       	rcall	.-36     	; 0x1cf8 <LCD_on>
  LCD_clr();                   //clear LCD memory
    1d1c:	64 df       	rcall	.-312    	; 0x1be6 <LCD_clr>
  LCD_setCursorXY(0,0);        //set cursor to "home"
    1d1e:	60 e0       	ldi	r22, 0x00	; 0
    1d20:	80 e0       	ldi	r24, 0x00	; 0
    1d22:	02 cf       	rjmp	.-508    	; 0x1b28 <LCD_setCursorXY>
    1d24:	08 95       	ret

00001d26 <LCD_copyPixelTo>:
//----------------------------------------------------------------------------
//Copy a single pixel to LCD (tx,ty) from source (sx,sy) 
//Source must be a 8-bit paged bitmap image in pgm memory
void LCD_copyPixelTo(uint8_t *source, uint8_t swidth, uint8_t sx, uint8_t sy,
		     uint8_t tx, uint8_t ty)
{
    1d26:	ef 92       	push	r14
    1d28:	0f 93       	push	r16
  if(tx>=LCD_LINE_LENGTH || ty>=LCD_LINES)
    1d2a:	00 23       	and	r16, r16
    1d2c:	04 f1       	brlt	.+64     	; 0x1d6e <LCD_copyPixelTo+0x48>
    1d2e:	3f e3       	ldi	r19, 0x3F	; 63
    1d30:	3e 15       	cp	r19, r14
    1d32:	e8 f0       	brcs	.+58     	; 0x1d6e <LCD_copyPixelTo+0x48>
    return;

  uint8_t byte;

  byte=pgm_read_byte(&source[(sy/LCD_PAGE_HEIGHT)*swidth + sx]);  
    1d34:	32 2f       	mov	r19, r18
    1d36:	36 95       	lsr	r19
    1d38:	36 95       	lsr	r19
    1d3a:	36 95       	lsr	r19
    1d3c:	e4 2f       	mov	r30, r20
    1d3e:	f0 e0       	ldi	r31, 0x00	; 0
    1d40:	36 9f       	mul	r19, r22
    1d42:	e0 0d       	add	r30, r0
    1d44:	f1 1d       	adc	r31, r1
    1d46:	11 24       	eor	r1, r1
    1d48:	e8 0f       	add	r30, r24
    1d4a:	f9 1f       	adc	r31, r25
    1d4c:	e4 91       	lpm	r30, Z

  if ( byte & (1<<(sy%LCD_PAGE_HEIGHT)))
    1d4e:	f0 e0       	ldi	r31, 0x00	; 0
    1d50:	27 70       	andi	r18, 0x07	; 7
    1d52:	02 c0       	rjmp	.+4      	; 0x1d58 <LCD_copyPixelTo+0x32>
    1d54:	f5 95       	asr	r31
    1d56:	e7 95       	ror	r30
    1d58:	2a 95       	dec	r18
    1d5a:	e2 f7       	brpl	.-8      	; 0x1d54 <LCD_copyPixelTo+0x2e>
    1d5c:	e0 ff       	sbrs	r30, 0
    1d5e:	04 c0       	rjmp	.+8      	; 0x1d68 <LCD_copyPixelTo+0x42>
    LCD_pixelOn(tx,ty);
    1d60:	6e 2d       	mov	r22, r14
    1d62:	80 2f       	mov	r24, r16
    1d64:	43 df       	rcall	.-378    	; 0x1bec <LCD_pixelOn>
    1d66:	03 c0       	rjmp	.+6      	; 0x1d6e <LCD_copyPixelTo+0x48>
  else
    LCD_pixelOff(tx,ty);
    1d68:	6e 2d       	mov	r22, r14
    1d6a:	80 2f       	mov	r24, r16
    1d6c:	4f df       	rcall	.-354    	; 0x1c0c <LCD_pixelOff>
}
    1d6e:	0f 91       	pop	r16
    1d70:	ef 90       	pop	r14
    1d72:	08 95       	ret

00001d74 <LCD_writeByteXY>:

//------------------------------------------------------------------------------
//Write a free byte (may be off page) at x,y
//
void LCD_writeByteXY(uint8_t data, uint8_t x, uint8_t y)
{
    1d74:	ef 92       	push	r14
    1d76:	ff 92       	push	r15
    1d78:	0f 93       	push	r16
    1d7a:	1f 93       	push	r17
    1d7c:	cf 93       	push	r28
    1d7e:	df 93       	push	r29
    1d80:	06 2f       	mov	r16, r22
    1d82:	14 2f       	mov	r17, r20
    1d84:	c0 e0       	ldi	r28, 0x00	; 0
    1d86:	d0 e0       	ldi	r29, 0x00	; 0
  uint8_t i;  
  for(i=0;i<8;i++){
    if( data & (1<<i) ) 
    1d88:	e8 2e       	mov	r14, r24
    1d8a:	f1 2c       	mov	r15, r1
    1d8c:	97 01       	movw	r18, r14
    1d8e:	0c 2e       	mov	r0, r28
    1d90:	02 c0       	rjmp	.+4      	; 0x1d96 <LCD_writeByteXY+0x22>
    1d92:	35 95       	asr	r19
    1d94:	27 95       	ror	r18
    1d96:	0a 94       	dec	r0
    1d98:	e2 f7       	brpl	.-8      	; 0x1d92 <LCD_writeByteXY+0x1e>
    1d9a:	20 ff       	sbrs	r18, 0
    1d9c:	04 c0       	rjmp	.+8      	; 0x1da6 <LCD_writeByteXY+0x32>
      LCD_pixelOn(x,y+i);
    1d9e:	61 2f       	mov	r22, r17
    1da0:	80 2f       	mov	r24, r16
    1da2:	24 df       	rcall	.-440    	; 0x1bec <LCD_pixelOn>
    1da4:	03 c0       	rjmp	.+6      	; 0x1dac <LCD_writeByteXY+0x38>
    else
      LCD_pixelOff(x,y+i);    
    1da6:	61 2f       	mov	r22, r17
    1da8:	80 2f       	mov	r24, r16
    1daa:	30 df       	rcall	.-416    	; 0x1c0c <LCD_pixelOff>
    1dac:	21 96       	adiw	r28, 0x01	; 1
    1dae:	1f 5f       	subi	r17, 0xFF	; 255
//Write a free byte (may be off page) at x,y
//
void LCD_writeByteXY(uint8_t data, uint8_t x, uint8_t y)
{
  uint8_t i;  
  for(i=0;i<8;i++){
    1db0:	c8 30       	cpi	r28, 0x08	; 8
    1db2:	d1 05       	cpc	r29, r1
    1db4:	59 f7       	brne	.-42     	; 0x1d8c <LCD_writeByteXY+0x18>
    if( data & (1<<i) ) 
      LCD_pixelOn(x,y+i);
    else
      LCD_pixelOff(x,y+i);    
  }
}
    1db6:	df 91       	pop	r29
    1db8:	cf 91       	pop	r28
    1dba:	1f 91       	pop	r17
    1dbc:	0f 91       	pop	r16
    1dbe:	ff 90       	pop	r15
    1dc0:	ef 90       	pop	r14
    1dc2:	08 95       	ret

00001dc4 <LCD_copyPageTo>:
// Target coordinates are free - not page dependent. This is much slower
// than writing data on pages with driver function LCD_writeByte(uint8_t)!
//
void LCD_copyPageTo (uint8_t* source, uint8_t swidth, uint8_t spage,
		     uint8_t sx1, uint8_t sx2,uint8_t tx1, uint8_t ty)
{
    1dc4:	cf 92       	push	r12
    1dc6:	ef 92       	push	r14
    1dc8:	ff 92       	push	r15
    1dca:	0f 93       	push	r16
    1dcc:	1f 93       	push	r17
    1dce:	cf 93       	push	r28
    1dd0:	df 93       	push	r29
  if ((sx2+tx1)>LCD_LINE_LENGTH)
    tx2=LCD_LINE_LENGTH-1;
  else
    tx2=tx1+(sx2-sx1);    

  for(i=0;i<swidth;i++){
    1dd2:	66 23       	and	r22, r22
    1dd4:	01 f1       	breq	.+64     	; 0x1e16 <LCD_copyPageTo+0x52>
    byte=pgm_read_byte(&source[spage*swidth+i]);  
    1dd6:	46 9f       	mul	r20, r22
    1dd8:	a0 01       	movw	r20, r0
    1dda:	11 24       	eor	r1, r1
    1ddc:	ec 01       	movw	r28, r24
    1dde:	c4 0f       	add	r28, r20
    1de0:	d5 1f       	adc	r29, r21
    1de2:	0e 2d       	mov	r16, r14
    1de4:	06 0f       	add	r16, r22
    1de6:	1e 2d       	mov	r17, r14
    1de8:	f1 2c       	mov	r15, r1
    1dea:	e8 1a       	sub	r14, r24
    1dec:	f9 0a       	sbc	r15, r25
    1dee:	e4 1a       	sub	r14, r20
    1df0:	f5 0a       	sbc	r15, r21
    1df2:	fe 01       	movw	r30, r28
    1df4:	84 91       	lpm	r24, Z
    1df6:	97 01       	movw	r18, r14
    1df8:	2c 0f       	add	r18, r28
    1dfa:	3d 1f       	adc	r19, r29
    if(tx1+i<LCD_LINE_LENGTH && ty < LCD_LINES)
    1dfc:	20 38       	cpi	r18, 0x80	; 128
    1dfe:	31 05       	cpc	r19, r1
    1e00:	34 f4       	brge	.+12     	; 0x1e0e <LCD_copyPageTo+0x4a>
    1e02:	ff e3       	ldi	r31, 0x3F	; 63
    1e04:	fc 15       	cp	r31, r12
    1e06:	18 f0       	brcs	.+6      	; 0x1e0e <LCD_copyPageTo+0x4a>
      LCD_writeByteXY(byte,i+tx1,ty);
    1e08:	4c 2d       	mov	r20, r12
    1e0a:	61 2f       	mov	r22, r17
    1e0c:	b3 df       	rcall	.-154    	; 0x1d74 <LCD_writeByteXY>
    1e0e:	21 96       	adiw	r28, 0x01	; 1
    1e10:	1f 5f       	subi	r17, 0xFF	; 255
  if ((sx2+tx1)>LCD_LINE_LENGTH)
    tx2=LCD_LINE_LENGTH-1;
  else
    tx2=tx1+(sx2-sx1);    

  for(i=0;i<swidth;i++){
    1e12:	10 13       	cpse	r17, r16
    1e14:	ee cf       	rjmp	.-36     	; 0x1df2 <LCD_copyPageTo+0x2e>
    byte=pgm_read_byte(&source[spage*swidth+i]);  
    if(tx1+i<LCD_LINE_LENGTH && ty < LCD_LINES)
      LCD_writeByteXY(byte,i+tx1,ty);
  }
  
}
    1e16:	df 91       	pop	r29
    1e18:	cf 91       	pop	r28
    1e1a:	1f 91       	pop	r17
    1e1c:	0f 91       	pop	r16
    1e1e:	ff 90       	pop	r15
    1e20:	ef 90       	pop	r14
    1e22:	cf 90       	pop	r12
    1e24:	08 95       	ret

00001e26 <LCD_drawBMP>:
//-----------------------------------------------------------------------------
// put a graphical bitmap with width and height at x,y 
//
void LCD_drawBMP(uint8_t* bitmap, uint8_t x, uint8_t y, 
		   uint8_t width, uint8_t height)
{
    1e26:	8f 92       	push	r8
    1e28:	9f 92       	push	r9
    1e2a:	af 92       	push	r10
    1e2c:	bf 92       	push	r11
    1e2e:	cf 92       	push	r12
    1e30:	df 92       	push	r13
    1e32:	ef 92       	push	r14
    1e34:	ff 92       	push	r15
    1e36:	0f 93       	push	r16
    1e38:	1f 93       	push	r17
    1e3a:	cf 93       	push	r28
    1e3c:	df 93       	push	r29
    1e3e:	5c 01       	movw	r10, r24
    1e40:	f6 2e       	mov	r15, r22
    1e42:	84 2e       	mov	r8, r20
    1e44:	d2 2f       	mov	r29, r18
    1e46:	90 2e       	mov	r9, r16
  uint8_t pages,i,j;
  //whole pages  
  pages=height/LCD_PAGE_HEIGHT;
    1e48:	d0 2e       	mov	r13, r16
    1e4a:	d6 94       	lsr	r13
    1e4c:	d6 94       	lsr	r13
    1e4e:	d6 94       	lsr	r13
  j=0;
  while(j<pages){
    1e50:	71 f0       	breq	.+28     	; 0x1e6e <LCD_drawBMP+0x48>
    1e52:	14 2f       	mov	r17, r20
    1e54:	c0 e0       	ldi	r28, 0x00	; 0
    LCD_copyPageTo(bitmap, width, j, 0, width, x, y+(j*LCD_PAGE_HEIGHT));
    1e56:	c1 2e       	mov	r12, r17
    1e58:	ef 2c       	mov	r14, r15
    1e5a:	0d 2f       	mov	r16, r29
    1e5c:	20 e0       	ldi	r18, 0x00	; 0
    1e5e:	4c 2f       	mov	r20, r28
    1e60:	6d 2f       	mov	r22, r29
    1e62:	c5 01       	movw	r24, r10
    1e64:	af df       	rcall	.-162    	; 0x1dc4 <LCD_copyPageTo>
    j++;
    1e66:	cf 5f       	subi	r28, 0xFF	; 255
    1e68:	18 5f       	subi	r17, 0xF8	; 248
{
  uint8_t pages,i,j;
  //whole pages  
  pages=height/LCD_PAGE_HEIGHT;
  j=0;
  while(j<pages){
    1e6a:	cd 11       	cpse	r28, r13
    1e6c:	f4 cf       	rjmp	.-24     	; 0x1e56 <LCD_drawBMP+0x30>
    LCD_copyPageTo(bitmap, width, j, 0, width, x, y+(j*LCD_PAGE_HEIGHT));
    j++;
  }
  //single lines left      
  //  single_lines=height%LCD_PAGE_HEIGHT;
  j*=LCD_PAGE_HEIGHT;
    1e6e:	1d 2d       	mov	r17, r13
    1e70:	11 0f       	add	r17, r17
    1e72:	11 0f       	add	r17, r17
    1e74:	11 0f       	add	r17, r17
  while (j < height){
    1e76:	19 15       	cp	r17, r9
    1e78:	98 f0       	brcs	.+38     	; 0x1ea0 <LCD_drawBMP+0x7a>
    1e7a:	16 c0       	rjmp	.+44     	; 0x1ea8 <LCD_drawBMP+0x82>
    for(i=0;i<width;i++)
    1e7c:	cc 2d       	mov	r28, r12
    1e7e:	d1 2e       	mov	r13, r17
    1e80:	d8 0c       	add	r13, r8
    1e82:	0c 2f       	mov	r16, r28
    1e84:	0f 0d       	add	r16, r15
      LCD_copyPixelTo(bitmap, width, i, j, x+i, y+j);  
    1e86:	ed 2c       	mov	r14, r13
    1e88:	21 2f       	mov	r18, r17
    1e8a:	4c 2f       	mov	r20, r28
    1e8c:	6d 2f       	mov	r22, r29
    1e8e:	c5 01       	movw	r24, r10
    1e90:	4a df       	rcall	.-364    	; 0x1d26 <LCD_copyPixelTo>
  }
  //single lines left      
  //  single_lines=height%LCD_PAGE_HEIGHT;
  j*=LCD_PAGE_HEIGHT;
  while (j < height){
    for(i=0;i<width;i++)
    1e92:	cf 5f       	subi	r28, 0xFF	; 255
    1e94:	cd 13       	cpse	r28, r29
    1e96:	f5 cf       	rjmp	.-22     	; 0x1e82 <LCD_drawBMP+0x5c>
      LCD_copyPixelTo(bitmap, width, i, j, x+i, y+j);  
    j++;
    1e98:	1f 5f       	subi	r17, 0xFF	; 255
    j++;
  }
  //single lines left      
  //  single_lines=height%LCD_PAGE_HEIGHT;
  j*=LCD_PAGE_HEIGHT;
  while (j < height){
    1e9a:	19 15       	cp	r17, r9
    1e9c:	10 f0       	brcs	.+4      	; 0x1ea2 <LCD_drawBMP+0x7c>
    1e9e:	04 c0       	rjmp	.+8      	; 0x1ea8 <LCD_drawBMP+0x82>
    for(i=0;i<width;i++)
    1ea0:	c1 2c       	mov	r12, r1
    1ea2:	d1 11       	cpse	r29, r1
    1ea4:	eb cf       	rjmp	.-42     	; 0x1e7c <LCD_drawBMP+0x56>
    1ea6:	f8 cf       	rjmp	.-16     	; 0x1e98 <LCD_drawBMP+0x72>
      LCD_copyPixelTo(bitmap, width, i, j, x+i, y+j);  
    j++;
  }

  LCD_currentX=x+width;
    1ea8:	df 0d       	add	r29, r15
    1eaa:	d0 93 18 0b 	sts	0x0B18, r29	; 0x800b18 <LCD_currentX>
  LCD_currentY=y;
    1eae:	80 92 19 0b 	sts	0x0B19, r8	; 0x800b19 <LCD_currentY>

  if(LCD_currentX>=LCD_LINE_LENGTH) {
    1eb2:	dd 23       	and	r29, r29
    1eb4:	5c f4       	brge	.+22     	; 0x1ecc <LCD_drawBMP+0xa6>
    LCD_currentX=0;
    1eb6:	10 92 18 0b 	sts	0x0B18, r1	; 0x800b18 <LCD_currentX>
    LCD_currentY+=height;
    1eba:	89 2d       	mov	r24, r9
    1ebc:	88 0d       	add	r24, r8
    if(LCD_currentY>=LCD_LINES) LCD_currentY=0;
    1ebe:	80 34       	cpi	r24, 0x40	; 64
    1ec0:	18 f4       	brcc	.+6      	; 0x1ec8 <LCD_drawBMP+0xa2>
  LCD_currentX=x+width;
  LCD_currentY=y;

  if(LCD_currentX>=LCD_LINE_LENGTH) {
    LCD_currentX=0;
    LCD_currentY+=height;
    1ec2:	80 93 19 0b 	sts	0x0B19, r24	; 0x800b19 <LCD_currentY>
    1ec6:	02 c0       	rjmp	.+4      	; 0x1ecc <LCD_drawBMP+0xa6>
    if(LCD_currentY>=LCD_LINES) LCD_currentY=0;
    1ec8:	10 92 19 0b 	sts	0x0B19, r1	; 0x800b19 <LCD_currentY>
  }

}
    1ecc:	df 91       	pop	r29
    1ece:	cf 91       	pop	r28
    1ed0:	1f 91       	pop	r17
    1ed2:	0f 91       	pop	r16
    1ed4:	ff 90       	pop	r15
    1ed6:	ef 90       	pop	r14
    1ed8:	df 90       	pop	r13
    1eda:	cf 90       	pop	r12
    1edc:	bf 90       	pop	r11
    1ede:	af 90       	pop	r10
    1ee0:	9f 90       	pop	r9
    1ee2:	8f 90       	pop	r8
    1ee4:	08 95       	ret

00001ee6 <Switch_Led>:
extern volatile unsigned char Previous_Button;
//usart
extern volatile char bufRS232[MAXBUFRS232];
extern volatile unsigned char USARTReception;

void wait_100x_ms(int ms) { uint8_t i; for (i=0;i<ms;i++) _delay_ms(100); }
    1ee6:	37 9a       	sbi	0x06, 7	; 6
    1ee8:	08 95       	ret

00001eea <clignotementheure>:
    1eea:	80 91 94 09 	lds	r24, 0x0994	; 0x800994 <position>
    1eee:	90 e0       	ldi	r25, 0x00	; 0
    1ef0:	01 97       	sbiw	r24, 0x01	; 1
    1ef2:	82 30       	cpi	r24, 0x02	; 2
    1ef4:	91 05       	cpc	r25, r1
    1ef6:	b9 f0       	breq	.+46     	; 0x1f26 <clignotementheure+0x3c>
    1ef8:	2c f4       	brge	.+10     	; 0x1f04 <clignotementheure+0x1a>
    1efa:	00 97       	sbiw	r24, 0x00	; 0
    1efc:	51 f0       	breq	.+20     	; 0x1f12 <clignotementheure+0x28>
    1efe:	01 97       	sbiw	r24, 0x01	; 1
    1f00:	69 f0       	breq	.+26     	; 0x1f1c <clignotementheure+0x32>
    1f02:	08 95       	ret
    1f04:	84 30       	cpi	r24, 0x04	; 4
    1f06:	91 05       	cpc	r25, r1
    1f08:	c1 f0       	breq	.+48     	; 0x1f3a <clignotementheure+0x50>
    1f0a:	94 f0       	brlt	.+36     	; 0x1f30 <clignotementheure+0x46>
    1f0c:	05 97       	sbiw	r24, 0x05	; 5
    1f0e:	d1 f0       	breq	.+52     	; 0x1f44 <clignotementheure+0x5a>
    1f10:	08 95       	ret
    1f12:	44 e0       	ldi	r20, 0x04	; 4
    1f14:	60 e0       	ldi	r22, 0x00	; 0
    1f16:	82 e0       	ldi	r24, 0x02	; 2
    1f18:	8a ce       	rjmp	.-748    	; 0x1c2e <LCD_invertPage>
    1f1a:	08 95       	ret
    1f1c:	4a e0       	ldi	r20, 0x0A	; 10
    1f1e:	66 e0       	ldi	r22, 0x06	; 6
    1f20:	82 e0       	ldi	r24, 0x02	; 2
    1f22:	85 ce       	rjmp	.-758    	; 0x1c2e <LCD_invertPage>
    1f24:	08 95       	ret
    1f26:	46 e1       	ldi	r20, 0x16	; 22
    1f28:	62 e1       	ldi	r22, 0x12	; 18
    1f2a:	82 e0       	ldi	r24, 0x02	; 2
    1f2c:	80 ce       	rjmp	.-768    	; 0x1c2e <LCD_invertPage>
    1f2e:	08 95       	ret
    1f30:	4c e1       	ldi	r20, 0x1C	; 28
    1f32:	68 e1       	ldi	r22, 0x18	; 24
    1f34:	82 e0       	ldi	r24, 0x02	; 2
    1f36:	7b ce       	rjmp	.-778    	; 0x1c2e <LCD_invertPage>
    1f38:	08 95       	ret
    1f3a:	48 e2       	ldi	r20, 0x28	; 40
    1f3c:	64 e2       	ldi	r22, 0x24	; 36
    1f3e:	82 e0       	ldi	r24, 0x02	; 2
    1f40:	76 ce       	rjmp	.-788    	; 0x1c2e <LCD_invertPage>
    1f42:	08 95       	ret
    1f44:	4e e2       	ldi	r20, 0x2E	; 46
    1f46:	6a e2       	ldi	r22, 0x2A	; 42
    1f48:	82 e0       	ldi	r24, 0x02	; 2
    1f4a:	71 ce       	rjmp	.-798    	; 0x1c2e <LCD_invertPage>
    1f4c:	08 95       	ret

00001f4e <clignotementdate>:
    1f4e:	e0 91 94 09 	lds	r30, 0x0994	; 0x800994 <position>
    1f52:	f0 e0       	ldi	r31, 0x00	; 0
    1f54:	31 97       	sbiw	r30, 0x01	; 1
    1f56:	e8 30       	cpi	r30, 0x08	; 8
    1f58:	f1 05       	cpc	r31, r1
    1f5a:	58 f5       	brcc	.+86     	; 0x1fb2 <clignotementdate+0x64>
    1f5c:	ea 5b       	subi	r30, 0xBA	; 186
    1f5e:	ff 4f       	sbci	r31, 0xFF	; 255
    1f60:	0c 94 50 26 	jmp	0x4ca0	; 0x4ca0 <__tablejump2__>
    1f64:	44 e0       	ldi	r20, 0x04	; 4
    1f66:	60 e0       	ldi	r22, 0x00	; 0
    1f68:	82 e0       	ldi	r24, 0x02	; 2
    1f6a:	61 ce       	rjmp	.-830    	; 0x1c2e <LCD_invertPage>
    1f6c:	08 95       	ret
    1f6e:	4a e0       	ldi	r20, 0x0A	; 10
    1f70:	66 e0       	ldi	r22, 0x06	; 6
    1f72:	82 e0       	ldi	r24, 0x02	; 2
    1f74:	5c ce       	rjmp	.-840    	; 0x1c2e <LCD_invertPage>
    1f76:	08 95       	ret
    1f78:	46 e1       	ldi	r20, 0x16	; 22
    1f7a:	62 e1       	ldi	r22, 0x12	; 18
    1f7c:	82 e0       	ldi	r24, 0x02	; 2
    1f7e:	57 ce       	rjmp	.-850    	; 0x1c2e <LCD_invertPage>
    1f80:	08 95       	ret
    1f82:	4c e1       	ldi	r20, 0x1C	; 28
    1f84:	68 e1       	ldi	r22, 0x18	; 24
    1f86:	82 e0       	ldi	r24, 0x02	; 2
    1f88:	52 ce       	rjmp	.-860    	; 0x1c2e <LCD_invertPage>
    1f8a:	08 95       	ret
    1f8c:	48 e2       	ldi	r20, 0x28	; 40
    1f8e:	64 e2       	ldi	r22, 0x24	; 36
    1f90:	82 e0       	ldi	r24, 0x02	; 2
    1f92:	4d ce       	rjmp	.-870    	; 0x1c2e <LCD_invertPage>
    1f94:	08 95       	ret
    1f96:	4e e2       	ldi	r20, 0x2E	; 46
    1f98:	6a e2       	ldi	r22, 0x2A	; 42
    1f9a:	82 e0       	ldi	r24, 0x02	; 2
    1f9c:	48 ce       	rjmp	.-880    	; 0x1c2e <LCD_invertPage>
    1f9e:	08 95       	ret
    1fa0:	44 e3       	ldi	r20, 0x34	; 52
    1fa2:	60 e3       	ldi	r22, 0x30	; 48
    1fa4:	82 e0       	ldi	r24, 0x02	; 2
    1fa6:	43 ce       	rjmp	.-890    	; 0x1c2e <LCD_invertPage>
    1fa8:	08 95       	ret
    1faa:	4a e3       	ldi	r20, 0x3A	; 58
    1fac:	66 e3       	ldi	r22, 0x36	; 54
    1fae:	82 e0       	ldi	r24, 0x02	; 2
    1fb0:	3e ce       	rjmp	.-900    	; 0x1c2e <LCD_invertPage>
    1fb2:	08 95       	ret

00001fb4 <clignotementbp>:
    1fb4:	80 91 94 09 	lds	r24, 0x0994	; 0x800994 <position>
    1fb8:	90 e0       	ldi	r25, 0x00	; 0
    1fba:	01 97       	sbiw	r24, 0x01	; 1
    1fbc:	81 30       	cpi	r24, 0x01	; 1
    1fbe:	91 05       	cpc	r25, r1
    1fc0:	51 f0       	breq	.+20     	; 0x1fd6 <clignotementbp+0x22>
    1fc2:	82 30       	cpi	r24, 0x02	; 2
    1fc4:	91 05       	cpc	r25, r1
    1fc6:	61 f0       	breq	.+24     	; 0x1fe0 <clignotementbp+0x2c>
    1fc8:	89 2b       	or	r24, r25
    1fca:	71 f4       	brne	.+28     	; 0x1fe8 <clignotementbp+0x34>
    1fcc:	44 e0       	ldi	r20, 0x04	; 4
    1fce:	60 e0       	ldi	r22, 0x00	; 0
    1fd0:	82 e0       	ldi	r24, 0x02	; 2
    1fd2:	2d ce       	rjmp	.-934    	; 0x1c2e <LCD_invertPage>
    1fd4:	08 95       	ret
    1fd6:	4a e0       	ldi	r20, 0x0A	; 10
    1fd8:	66 e0       	ldi	r22, 0x06	; 6
    1fda:	82 e0       	ldi	r24, 0x02	; 2
    1fdc:	28 ce       	rjmp	.-944    	; 0x1c2e <LCD_invertPage>
    1fde:	08 95       	ret
    1fe0:	40 e1       	ldi	r20, 0x10	; 16
    1fe2:	6c e0       	ldi	r22, 0x0C	; 12
    1fe4:	82 e0       	ldi	r24, 0x02	; 2
    1fe6:	23 ce       	rjmp	.-954    	; 0x1c2e <LCD_invertPage>
    1fe8:	08 95       	ret

00001fea <clignotementti>:
    1fea:	80 91 94 09 	lds	r24, 0x0994	; 0x800994 <position>
    1fee:	90 e0       	ldi	r25, 0x00	; 0
    1ff0:	01 97       	sbiw	r24, 0x01	; 1
    1ff2:	82 30       	cpi	r24, 0x02	; 2
    1ff4:	91 05       	cpc	r25, r1
    1ff6:	b1 f0       	breq	.+44     	; 0x2024 <clignotementti+0x3a>
    1ff8:	2c f4       	brge	.+10     	; 0x2004 <clignotementti+0x1a>
    1ffa:	00 97       	sbiw	r24, 0x00	; 0
    1ffc:	49 f0       	breq	.+18     	; 0x2010 <clignotementti+0x26>
    1ffe:	01 97       	sbiw	r24, 0x01	; 1
    2000:	61 f0       	breq	.+24     	; 0x201a <clignotementti+0x30>
    2002:	08 95       	ret
    2004:	83 30       	cpi	r24, 0x03	; 3
    2006:	91 05       	cpc	r25, r1
    2008:	91 f0       	breq	.+36     	; 0x202e <clignotementti+0x44>
    200a:	04 97       	sbiw	r24, 0x04	; 4
    200c:	a9 f0       	breq	.+42     	; 0x2038 <clignotementti+0x4e>
    200e:	08 95       	ret
    2010:	44 e0       	ldi	r20, 0x04	; 4
    2012:	60 e0       	ldi	r22, 0x00	; 0
    2014:	82 e0       	ldi	r24, 0x02	; 2
    2016:	0b ce       	rjmp	.-1002   	; 0x1c2e <LCD_invertPage>
    2018:	08 95       	ret
    201a:	4a e0       	ldi	r20, 0x0A	; 10
    201c:	66 e0       	ldi	r22, 0x06	; 6
    201e:	82 e0       	ldi	r24, 0x02	; 2
    2020:	06 ce       	rjmp	.-1012   	; 0x1c2e <LCD_invertPage>
    2022:	08 95       	ret
    2024:	40 e1       	ldi	r20, 0x10	; 16
    2026:	6c e0       	ldi	r22, 0x0C	; 12
    2028:	82 e0       	ldi	r24, 0x02	; 2
    202a:	01 ce       	rjmp	.-1022   	; 0x1c2e <LCD_invertPage>
    202c:	08 95       	ret
    202e:	46 e1       	ldi	r20, 0x16	; 22
    2030:	62 e1       	ldi	r22, 0x12	; 18
    2032:	82 e0       	ldi	r24, 0x02	; 2
    2034:	fc cd       	rjmp	.-1032   	; 0x1c2e <LCD_invertPage>
    2036:	08 95       	ret
    2038:	4c e1       	ldi	r20, 0x1C	; 28
    203a:	68 e1       	ldi	r22, 0x18	; 24
    203c:	82 e0       	ldi	r24, 0x02	; 2
    203e:	f7 cd       	rjmp	.-1042   	; 0x1c2e <LCD_invertPage>
    2040:	08 95       	ret

00002042 <clignotementconsigne>:
    2042:	80 91 94 09 	lds	r24, 0x0994	; 0x800994 <position>
    2046:	90 e0       	ldi	r25, 0x00	; 0
    2048:	01 97       	sbiw	r24, 0x01	; 1
    204a:	81 30       	cpi	r24, 0x01	; 1
    204c:	91 05       	cpc	r25, r1
    204e:	51 f0       	breq	.+20     	; 0x2064 <clignotementconsigne+0x22>
    2050:	82 30       	cpi	r24, 0x02	; 2
    2052:	91 05       	cpc	r25, r1
    2054:	61 f0       	breq	.+24     	; 0x206e <clignotementconsigne+0x2c>
    2056:	89 2b       	or	r24, r25
    2058:	71 f4       	brne	.+28     	; 0x2076 <clignotementconsigne+0x34>
    205a:	44 e0       	ldi	r20, 0x04	; 4
    205c:	60 e0       	ldi	r22, 0x00	; 0
    205e:	82 e0       	ldi	r24, 0x02	; 2
    2060:	e6 cd       	rjmp	.-1076   	; 0x1c2e <LCD_invertPage>
    2062:	08 95       	ret
    2064:	40 e1       	ldi	r20, 0x10	; 16
    2066:	6c e0       	ldi	r22, 0x0C	; 12
    2068:	82 e0       	ldi	r24, 0x02	; 2
    206a:	e1 cd       	rjmp	.-1086   	; 0x1c2e <LCD_invertPage>
    206c:	08 95       	ret
    206e:	46 e1       	ldi	r20, 0x16	; 22
    2070:	62 e1       	ldi	r22, 0x12	; 18
    2072:	82 e0       	ldi	r24, 0x02	; 2
    2074:	dc cd       	rjmp	.-1096   	; 0x1c2e <LCD_invertPage>
    2076:	08 95       	ret

00002078 <main>:


//****************** FONCTION PRINCIPALE *****************
int main (void)
{
    2078:	0f 93       	push	r16
	
	//Initialisation I/O 
	  initialize_entree();
    207a:	88 dc       	rcall	.-1776   	; 0x198c <initialize_entree>
	  initialize_sortie();
    207c:	7d dc       	rcall	.-1798   	; 0x1978 <initialize_sortie>
	  
	//Initialisation TWI 
	  twi_init();
    207e:	8d dc       	rcall	.-1766   	; 0x199a <twi_init>
	
	//Initilisation LCD
	LCD_init();
    2080:	42 de       	rcall	.-892    	; 0x1d06 <LCD_init>
	
	LCD_clr();
    2082:	b1 dd       	rcall	.-1182   	; 0x1be6 <LCD_clr>
	LCD_drawBMP((uint8_t*)HELHa_glcd_bmp, 12, 12,HELHa_GLCD_WIDTH,HELHa_GLCD_HEIGHT);
    2084:	00 e2       	ldi	r16, 0x20	; 32
    2086:	2c e6       	ldi	r18, 0x6C	; 108
    2088:	4c e0       	ldi	r20, 0x0C	; 12
    208a:	6c e0       	ldi	r22, 0x0C	; 12
    208c:	8c e7       	ldi	r24, 0x7C	; 124
    208e:	92 e0       	ldi	r25, 0x02	; 2
    2090:	ca de       	rcall	.-620    	; 0x1e26 <LCD_drawBMP>
	#else
		//round up by default
		__ticks_dc = (uint32_t)(ceil(fabs(__tmp)));
	#endif

	__builtin_avr_delay_cycles(__ticks_dc);
    2092:	2f ef       	ldi	r18, 0xFF	; 255
    2094:	83 ed       	ldi	r24, 0xD3	; 211
    2096:	90 e3       	ldi	r25, 0x30	; 48
    2098:	21 50       	subi	r18, 0x01	; 1
    209a:	80 40       	sbci	r24, 0x00	; 0
    209c:	90 40       	sbci	r25, 0x00	; 0
    209e:	e1 f7       	brne	.-8      	; 0x2098 <main+0x20>
    20a0:	00 c0       	rjmp	.+0      	; 0x20a2 <main+0x2a>
    20a2:	00 00       	nop
	_delay_ms(2000);
	
	LCD_clr();
    20a4:	a0 dd       	rcall	.-1216   	; 0x1be6 <LCD_clr>
	LCD_setCursorXY(15,0);
    20a6:	60 e0       	ldi	r22, 0x00	; 0
    20a8:	8f e0       	ldi	r24, 0x0F	; 15
    20aa:	3e dd       	rcall	.-1412   	; 0x1b28 <LCD_setCursorXY>
	LCD_puts ((uint8_t*)"The Regulator");
    20ac:	8a e2       	ldi	r24, 0x2A	; 42
    20ae:	92 e0       	ldi	r25, 0x02	; 2
    20b0:	04 de       	rcall	.-1016   	; 0x1cba <LCD_puts>
	LCD_setCursorXY(45,0);
    20b2:	60 e0       	ldi	r22, 0x00	; 0
    20b4:	8d e2       	ldi	r24, 0x2D	; 45
    20b6:	38 dd       	rcall	.-1424   	; 0x1b28 <LCD_setCursorXY>
	LCD_invertPage(0,10,100);
    20b8:	44 e6       	ldi	r20, 0x64	; 100
    20ba:	6a e0       	ldi	r22, 0x0A	; 10
    20bc:	80 e0       	ldi	r24, 0x00	; 0
    20be:	b7 dd       	rcall	.-1170   	; 0x1c2e <LCD_invertPage>
	LCD_setCursorXY(3,20);
    20c0:	64 e1       	ldi	r22, 0x14	; 20
    20c2:	83 e0       	ldi	r24, 0x03	; 3
    20c4:	31 dd       	rcall	.-1438   	; 0x1b28 <LCD_setCursorXY>
	LCD_puts ((uint8_t*)"CODED by:");
    20c6:	88 e3       	ldi	r24, 0x38	; 56
    20c8:	92 e0       	ldi	r25, 0x02	; 2
    20ca:	f7 dd       	rcall	.-1042   	; 0x1cba <LCD_puts>
	LCD_setCursorXY(0,25);
    20cc:	69 e1       	ldi	r22, 0x19	; 25
    20ce:	80 e0       	ldi	r24, 0x00	; 0
    20d0:	2b dd       	rcall	.-1450   	; 0x1b28 <LCD_setCursorXY>
	LCD_puts ((uint8_t*)"Beck.D  Chevalier.L\n");
    20d2:	82 e4       	ldi	r24, 0x42	; 66
    20d4:	92 e0       	ldi	r25, 0x02	; 2
    20d6:	f1 dd       	rcall	.-1054   	; 0x1cba <LCD_puts>
	LCD_puts ((uint8_t*)"Clarembaux.L  Croix.A\n");
    20d8:	87 e5       	ldi	r24, 0x57	; 87
    20da:	92 e0       	ldi	r25, 0x02	; 2
    20dc:	ee dd       	rcall	.-1060   	; 0x1cba <LCD_puts>
	LCD_puts ((uint8_t*)"Delbart.B  Maerten.G\n");
    20de:	8e e6       	ldi	r24, 0x6E	; 110
    20e0:	92 e0       	ldi	r25, 0x02	; 2
    20e2:	eb dd       	rcall	.-1066   	; 0x1cba <LCD_puts>
	LCD_puts ((uint8_t*)"      Pauwels.A");
    20e4:	84 e8       	ldi	r24, 0x84	; 132
    20e6:	92 e0       	ldi	r25, 0x02	; 2
    20e8:	e8 dd       	rcall	.-1072   	; 0x1cba <LCD_puts>
    20ea:	2f ef       	ldi	r18, 0xFF	; 255
    20ec:	8d e3       	ldi	r24, 0x3D	; 61
    20ee:	99 e4       	ldi	r25, 0x49	; 73
    20f0:	21 50       	subi	r18, 0x01	; 1
    20f2:	80 40       	sbci	r24, 0x00	; 0
    20f4:	90 40       	sbci	r25, 0x00	; 0
    20f6:	e1 f7       	brne	.-8      	; 0x20f0 <main+0x78>
    20f8:	00 c0       	rjmp	.+0      	; 0x20fa <main+0x82>
    20fa:	00 00       	nop
	_delay_ms(3000);
	
	//Initialisation interruption clavier
	PCICR |= (1<<PCIE1);
    20fc:	e8 e6       	ldi	r30, 0x68	; 104
    20fe:	f0 e0       	ldi	r31, 0x00	; 0
    2100:	80 81       	ld	r24, Z
    2102:	82 60       	ori	r24, 0x02	; 2
    2104:	80 83       	st	Z, r24
	PCMSK1 |= (1<<PCINT12) | (1<<PCINT13) | (1<<PCINT14) | (1<<PCINT15) ;
    2106:	ec e6       	ldi	r30, 0x6C	; 108
    2108:	f0 e0       	ldi	r31, 0x00	; 0
    210a:	80 81       	ld	r24, Z
    210c:	80 6f       	ori	r24, 0xF0	; 240
    210e:	80 83       	st	Z, r24
	
	// Initialisation de l'OS (appel des Callbacks)
	OSInitialiser();
    2110:	0e 94 99 23 	call	0x4732	; 0x4732 <OSInitialiser>

	// Initialisation des Callbacks
 	IDCB_Switch_Led = OSEnregistrerCB_TIMER(Switch_Led, 500);
    2114:	64 ef       	ldi	r22, 0xF4	; 244
    2116:	71 e0       	ldi	r23, 0x01	; 1
    2118:	83 e7       	ldi	r24, 0x73	; 115
    211a:	9f e0       	ldi	r25, 0x0F	; 15
    211c:	0e 94 b1 23 	call	0x4762	; 0x4762 <OSEnregistrerCB_TIMER>
    2120:	80 93 1f 0b 	sts	0x0B1F, r24	; 0x800b1f <IDCB_Switch_Led>
		
	OSStart();
    2124:	0e 94 29 24 	call	0x4852	; 0x4852 <OSStart>

 	//N'arrive jamais ici
	return 0;
}
    2128:	80 e0       	ldi	r24, 0x00	; 0
    212a:	90 e0       	ldi	r25, 0x00	; 0
    212c:	0f 91       	pop	r16
    212e:	08 95       	ret

00002130 <Desactivation_boutton>:
	 PINC |= (1<<PINC7);
}

void Desactivation_boutton(void)
{
	if(PINB==0b11110000)
    2130:	83 b1       	in	r24, 0x03	; 3
    2132:	80 3f       	cpi	r24, 0xF0	; 240
    2134:	49 f4       	brne	.+18     	; 0x2148 <Desactivation_boutton+0x18>
	{
		PCICR |=(1<<PCIE1);
    2136:	e8 e6       	ldi	r30, 0x68	; 104
    2138:	f0 e0       	ldi	r31, 0x00	; 0
    213a:	80 81       	ld	r24, Z
    213c:	82 60       	ori	r24, 0x02	; 2
    213e:	80 83       	st	Z, r24
		OSRetirerCB_TIMER(IDCB_Desactivation_boutton);		
    2140:	80 91 1c 0b 	lds	r24, 0x0B1C	; 0x800b1c <IDCB_Desactivation_boutton>
    2144:	0c 94 dd 23 	jmp	0x47ba	; 0x47ba <OSRetirerCB_TIMER>
    2148:	08 95       	ret

0000214a <Fct_menu>:
	
}

char Fct_menu(char input)
{
			 LCD_clr();
    214a:	4d dd       	rcall	.-1382   	; 0x1be6 <LCD_clr>
			 switch(automatique)
    214c:	80 91 95 09 	lds	r24, 0x0995	; 0x800995 <automatique>
    2150:	88 23       	and	r24, r24
    2152:	19 f0       	breq	.+6      	; 0x215a <Fct_menu+0x10>
    2154:	81 30       	cpi	r24, 0x01	; 1
    2156:	09 f1       	breq	.+66     	; 0x219a <Fct_menu+0x50>
    2158:	3f c0       	rjmp	.+126    	; 0x21d8 <Fct_menu+0x8e>
			 {
				 case 0:
					LCD_setCursorXY(45,0);
    215a:	60 e0       	ldi	r22, 0x00	; 0
    215c:	8d e2       	ldi	r24, 0x2D	; 45
    215e:	e4 dc       	rcall	.-1592   	; 0x1b28 <LCD_setCursorXY>
					LCD_puts ((uint8_t*)"MENU");
    2160:	84 e9       	ldi	r24, 0x94	; 148
    2162:	92 e0       	ldi	r25, 0x02	; 2
    2164:	aa dd       	rcall	.-1196   	; 0x1cba <LCD_puts>
					LCD_setCursorXY(3,15);
    2166:	6f e0       	ldi	r22, 0x0F	; 15
    2168:	83 e0       	ldi	r24, 0x03	; 3
    216a:	de dc       	rcall	.-1604   	; 0x1b28 <LCD_setCursorXY>
					LCD_puts ((uint8_t*)"1.Automatique");
    216c:	89 e9       	ldi	r24, 0x99	; 153
    216e:	92 e0       	ldi	r25, 0x02	; 2
    2170:	a4 dd       	rcall	.-1208   	; 0x1cba <LCD_puts>
					LCD_setCursorXY(3,30);
    2172:	6e e1       	ldi	r22, 0x1E	; 30
    2174:	83 e0       	ldi	r24, 0x03	; 3
    2176:	d8 dc       	rcall	.-1616   	; 0x1b28 <LCD_setCursorXY>
					LCD_puts ((uint8_t*)"2.Manuel");
    2178:	87 ea       	ldi	r24, 0xA7	; 167
    217a:	92 e0       	ldi	r25, 0x02	; 2
    217c:	9e dd       	rcall	.-1220   	; 0x1cba <LCD_puts>
					LCD_setCursorXY(3,30);
    217e:	6e e1       	ldi	r22, 0x1E	; 30
    2180:	83 e0       	ldi	r24, 0x03	; 3
    2182:	d2 dc       	rcall	.-1628   	; 0x1b28 <LCD_setCursorXY>
					LCD_invertPage(3,1,80);
    2184:	40 e5       	ldi	r20, 0x50	; 80
    2186:	61 e0       	ldi	r22, 0x01	; 1
    2188:	83 e0       	ldi	r24, 0x03	; 3
    218a:	51 dd       	rcall	.-1374   	; 0x1c2e <LCD_invertPage>
					LCD_setCursorXY(3,45);
    218c:	6d e2       	ldi	r22, 0x2D	; 45
    218e:	83 e0       	ldi	r24, 0x03	; 3
    2190:	cb dc       	rcall	.-1642   	; 0x1b28 <LCD_setCursorXY>
					LCD_puts ((uint8_t*)"3.Parmetres");			 
    2192:	80 eb       	ldi	r24, 0xB0	; 176
    2194:	92 e0       	ldi	r25, 0x02	; 2
    2196:	91 dd       	rcall	.-1246   	; 0x1cba <LCD_puts>
				 break;
    2198:	1f c0       	rjmp	.+62     	; 0x21d8 <Fct_menu+0x8e>
				 case 1: 
					LCD_setCursorXY(45,0);
    219a:	60 e0       	ldi	r22, 0x00	; 0
    219c:	8d e2       	ldi	r24, 0x2D	; 45
    219e:	c4 dc       	rcall	.-1656   	; 0x1b28 <LCD_setCursorXY>
					LCD_puts ((uint8_t*)"MENU");
    21a0:	84 e9       	ldi	r24, 0x94	; 148
    21a2:	92 e0       	ldi	r25, 0x02	; 2
    21a4:	8a dd       	rcall	.-1260   	; 0x1cba <LCD_puts>
					LCD_setCursorXY(3,15);
    21a6:	6f e0       	ldi	r22, 0x0F	; 15
    21a8:	83 e0       	ldi	r24, 0x03	; 3
    21aa:	be dc       	rcall	.-1668   	; 0x1b28 <LCD_setCursorXY>
					LCD_puts ((uint8_t*)"1.Automatique");
    21ac:	89 e9       	ldi	r24, 0x99	; 153
    21ae:	92 e0       	ldi	r25, 0x02	; 2
    21b0:	84 dd       	rcall	.-1272   	; 0x1cba <LCD_puts>
					LCD_setCursorXY(3,15);
    21b2:	6f e0       	ldi	r22, 0x0F	; 15
    21b4:	83 e0       	ldi	r24, 0x03	; 3
    21b6:	b8 dc       	rcall	.-1680   	; 0x1b28 <LCD_setCursorXY>
					LCD_invertPage(1,1,80);
    21b8:	40 e5       	ldi	r20, 0x50	; 80
    21ba:	61 e0       	ldi	r22, 0x01	; 1
    21bc:	81 e0       	ldi	r24, 0x01	; 1
    21be:	37 dd       	rcall	.-1426   	; 0x1c2e <LCD_invertPage>
					LCD_setCursorXY(3,30);
    21c0:	6e e1       	ldi	r22, 0x1E	; 30
    21c2:	83 e0       	ldi	r24, 0x03	; 3
    21c4:	b1 dc       	rcall	.-1694   	; 0x1b28 <LCD_setCursorXY>
					LCD_puts ((uint8_t*)"2.Manuel");
    21c6:	87 ea       	ldi	r24, 0xA7	; 167
    21c8:	92 e0       	ldi	r25, 0x02	; 2
    21ca:	77 dd       	rcall	.-1298   	; 0x1cba <LCD_puts>
					LCD_setCursorXY(3,45);
    21cc:	6d e2       	ldi	r22, 0x2D	; 45
    21ce:	83 e0       	ldi	r24, 0x03	; 3
    21d0:	ab dc       	rcall	.-1706   	; 0x1b28 <LCD_setCursorXY>
					LCD_puts ((uint8_t*)"3.Parmetres");
    21d2:	80 eb       	ldi	r24, 0xB0	; 176
    21d4:	92 e0       	ldi	r25, 0x02	; 2
    21d6:	71 dd       	rcall	.-1310   	; 0x1cba <LCD_puts>
				break;
			 }
		     LCD_setCursorXY(3,60);
    21d8:	6c e3       	ldi	r22, 0x3C	; 60
    21da:	83 e0       	ldi	r24, 0x03	; 3
    21dc:	a5 dc       	rcall	.-1718   	; 0x1b28 <LCD_setCursorXY>
		     LCD_puts ((uint8_t*)"");
    21de:	85 e4       	ldi	r24, 0x45	; 69
    21e0:	99 e0       	ldi	r25, 0x09	; 9
    21e2:	6b dd       	rcall	.-1322   	; 0x1cba <LCD_puts>
			
			 return ST_MENU;
}
    21e4:	8b e0       	ldi	r24, 0x0B	; 11
    21e6:	08 95       	ret

000021e8 <Fct_auto>:

char Fct_auto(char input)
{
    21e8:	0f 93       	push	r16
    21ea:	1f 93       	push	r17
    21ec:	cf 93       	push	r28
    21ee:	df 93       	push	r29
    21f0:	cd b7       	in	r28, 0x3d	; 61
    21f2:	de b7       	in	r29, 0x3e	; 62
    21f4:	64 97       	sbiw	r28, 0x14	; 20
    21f6:	0f b6       	in	r0, 0x3f	; 63
    21f8:	f8 94       	cli
    21fa:	de bf       	out	0x3e, r29	; 62
    21fc:	0f be       	out	0x3f, r0	; 63
    21fe:	cd bf       	out	0x3d, r28	; 61
	automatique=1;
    2200:	81 e0       	ldi	r24, 0x01	; 1
    2202:	80 93 95 09 	sts	0x0995, r24	; 0x800995 <automatique>
	EEPROM_read_consigne();
    2206:	0e 94 68 04 	call	0x8d0	; 0x8d0 <EEPROM_read_consigne>
	char buffer[20];
	LCD_clr();
    220a:	ed dc       	rcall	.-1574   	; 0x1be6 <LCD_clr>
	LCD_setCursorXY(45,0);
    220c:	60 e0       	ldi	r22, 0x00	; 0
    220e:	8d e2       	ldi	r24, 0x2D	; 45
    2210:	8b dc       	rcall	.-1770   	; 0x1b28 <LCD_setCursorXY>
	LCD_puts ((uint8_t*)"CONSIGNE");
    2212:	8c eb       	ldi	r24, 0xBC	; 188
    2214:	92 e0       	ldi	r25, 0x02	; 2
    2216:	51 dd       	rcall	.-1374   	; 0x1cba <LCD_puts>
	LCD_setCursorXY(0,20);
    2218:	64 e1       	ldi	r22, 0x14	; 20
    221a:	80 e0       	ldi	r24, 0x00	; 0
    221c:	85 dc       	rcall	.-1782   	; 0x1b28 <LCD_setCursorXY>
	itoa(consigne[0],buffer,10);
    221e:	0e e6       	ldi	r16, 0x6E	; 110
    2220:	1a e0       	ldi	r17, 0x0A	; 10
    2222:	f8 01       	movw	r30, r16
    2224:	80 81       	ld	r24, Z
    } else if (__radix < 2 || __radix > 36) {
	*__s = 0;
	return __s;
    } else {
	extern char *__itoa_ncheck (int, char *, unsigned char);
	return __itoa_ncheck (__val, __s, __radix);
    2226:	4a e0       	ldi	r20, 0x0A	; 10
    2228:	be 01       	movw	r22, r28
    222a:	6f 5f       	subi	r22, 0xFF	; 255
    222c:	7f 4f       	sbci	r23, 0xFF	; 255
    222e:	90 e0       	ldi	r25, 0x00	; 0
    2230:	0e 94 60 26 	call	0x4cc0	; 0x4cc0 <__itoa_ncheck>
	LCD_puts (buffer);
    2234:	ce 01       	movw	r24, r28
    2236:	01 96       	adiw	r24, 0x01	; 1
    2238:	40 dd       	rcall	.-1408   	; 0x1cba <LCD_puts>
	LCD_puts ((uint8_t*)".");
    223a:	80 e5       	ldi	r24, 0x50	; 80
    223c:	91 e0       	ldi	r25, 0x01	; 1
    223e:	3d dd       	rcall	.-1414   	; 0x1cba <LCD_puts>
	itoa(consigne[1],buffer,10);
    2240:	f8 01       	movw	r30, r16
    2242:	81 81       	ldd	r24, Z+1	; 0x01
    2244:	4a e0       	ldi	r20, 0x0A	; 10
    2246:	be 01       	movw	r22, r28
    2248:	6f 5f       	subi	r22, 0xFF	; 255
    224a:	7f 4f       	sbci	r23, 0xFF	; 255
    224c:	90 e0       	ldi	r25, 0x00	; 0
    224e:	0e 94 60 26 	call	0x4cc0	; 0x4cc0 <__itoa_ncheck>
	LCD_puts (buffer);
    2252:	ce 01       	movw	r24, r28
    2254:	01 96       	adiw	r24, 0x01	; 1
    2256:	31 dd       	rcall	.-1438   	; 0x1cba <LCD_puts>
	itoa(consigne[2],buffer,10);
    2258:	f8 01       	movw	r30, r16
    225a:	82 81       	ldd	r24, Z+2	; 0x02
    225c:	4a e0       	ldi	r20, 0x0A	; 10
    225e:	be 01       	movw	r22, r28
    2260:	6f 5f       	subi	r22, 0xFF	; 255
    2262:	7f 4f       	sbci	r23, 0xFF	; 255
    2264:	90 e0       	ldi	r25, 0x00	; 0
    2266:	0e 94 60 26 	call	0x4cc0	; 0x4cc0 <__itoa_ncheck>
	LCD_puts (buffer);
    226a:	ce 01       	movw	r24, r28
    226c:	01 96       	adiw	r24, 0x01	; 1
    226e:	25 dd       	rcall	.-1462   	; 0x1cba <LCD_puts>
	LCD_setCursorXY(3,40);
    2270:	68 e2       	ldi	r22, 0x28	; 40
    2272:	83 e0       	ldi	r24, 0x03	; 3
    2274:	59 dc       	rcall	.-1870   	; 0x1b28 <LCD_setCursorXY>
	LCD_puts ((uint8_t*)" A : Reglage");
    2276:	85 ec       	ldi	r24, 0xC5	; 197
    2278:	92 e0       	ldi	r25, 0x02	; 2
    227a:	1f dd       	rcall	.-1474   	; 0x1cba <LCD_puts>
	LCD_setCursorXY(3,60);
    227c:	6c e3       	ldi	r22, 0x3C	; 60
    227e:	83 e0       	ldi	r24, 0x03	; 3
    2280:	53 dc       	rcall	.-1882   	; 0x1b28 <LCD_setCursorXY>
	LCD_puts ((uint8_t*)" B : BACK");
    2282:	82 ed       	ldi	r24, 0xD2	; 210
    2284:	92 e0       	ldi	r25, 0x02	; 2
    2286:	19 dd       	rcall	.-1486   	; 0x1cba <LCD_puts>
	
	return ST_AUTO;
}
    2288:	85 e1       	ldi	r24, 0x15	; 21
    228a:	64 96       	adiw	r28, 0x14	; 20
    228c:	0f b6       	in	r0, 0x3f	; 63
    228e:	f8 94       	cli
    2290:	de bf       	out	0x3e, r29	; 62
    2292:	0f be       	out	0x3f, r0	; 63
    2294:	cd bf       	out	0x3d, r28	; 61
    2296:	df 91       	pop	r29
    2298:	cf 91       	pop	r28
    229a:	1f 91       	pop	r17
    229c:	0f 91       	pop	r16
    229e:	08 95       	ret

000022a0 <Fct_auto_consigne_change>:

char Fct_auto_consigne_change(char input)
{
    22a0:	0f 93       	push	r16
    22a2:	1f 93       	push	r17
    22a4:	cf 93       	push	r28
    22a6:	df 93       	push	r29
    22a8:	cd b7       	in	r28, 0x3d	; 61
    22aa:	de b7       	in	r29, 0x3e	; 62
    22ac:	64 97       	sbiw	r28, 0x14	; 20
    22ae:	0f b6       	in	r0, 0x3f	; 63
    22b0:	f8 94       	cli
    22b2:	de bf       	out	0x3e, r29	; 62
    22b4:	0f be       	out	0x3f, r0	; 63
    22b6:	cd bf       	out	0x3d, r28	; 61
	input=Previous_Button;
    22b8:	10 91 21 0b 	lds	r17, 0x0B21	; 0x800b21 <Previous_Button>
    22bc:	4a e0       	ldi	r20, 0x0A	; 10
    22be:	be 01       	movw	r22, r28
    22c0:	6f 5f       	subi	r22, 0xFF	; 255
    22c2:	7f 4f       	sbci	r23, 0xFF	; 255
    22c4:	81 2f       	mov	r24, r17
    22c6:	90 e0       	ldi	r25, 0x00	; 0
    22c8:	0e 94 60 26 	call	0x4cc0	; 0x4cc0 <__itoa_ncheck>
	char buffer[20];
	itoa(input,buffer,10);
	Usart_Tx_String(buffer);
    22cc:	ce 01       	movw	r24, r28
    22ce:	01 96       	adiw	r24, 0x01	; 1
    22d0:	0e 94 36 26 	call	0x4c6c	; 0x4c6c <Usart_Tx_String>
	Usart_Tx_String("\n");
    22d4:	84 e4       	ldi	r24, 0x44	; 68
    22d6:	99 e0       	ldi	r25, 0x09	; 9
    22d8:	0e 94 36 26 	call	0x4c6c	; 0x4c6c <Usart_Tx_String>
	if(position!=0)
    22dc:	e0 91 94 09 	lds	r30, 0x0994	; 0x800994 <position>
    22e0:	ee 23       	and	r30, r30
    22e2:	31 f0       	breq	.+12     	; 0x22f0 <Fct_auto_consigne_change+0x50>
	{
		consigne[position-1]=input-1;
    22e4:	f0 e0       	ldi	r31, 0x00	; 0
    22e6:	e3 59       	subi	r30, 0x93	; 147
    22e8:	f5 4f       	sbci	r31, 0xF5	; 245
    22ea:	11 50       	subi	r17, 0x01	; 1
    22ec:	10 83       	st	Z, r17
    22ee:	08 c0       	rjmp	.+16     	; 0x2300 <Fct_auto_consigne_change+0x60>
	}
	else IDCB_Clignotement_consigne = OSEnregistrerCB_TIMER(clignotementconsigne,500);
    22f0:	64 ef       	ldi	r22, 0xF4	; 244
    22f2:	71 e0       	ldi	r23, 0x01	; 1
    22f4:	81 e2       	ldi	r24, 0x21	; 33
    22f6:	90 e1       	ldi	r25, 0x10	; 16
    22f8:	0e 94 b1 23 	call	0x4762	; 0x4762 <OSEnregistrerCB_TIMER>
    22fc:	80 93 1b 0b 	sts	0x0B1B, r24	; 0x800b1b <IDCB_Clignotement_consigne>
	LCD_clr();
    2300:	72 dc       	rcall	.-1820   	; 0x1be6 <LCD_clr>
	LCD_setCursorXY(10,0);
    2302:	60 e0       	ldi	r22, 0x00	; 0
    2304:	8a e0       	ldi	r24, 0x0A	; 10
    2306:	10 dc       	rcall	.-2016   	; 0x1b28 <LCD_setCursorXY>
	LCD_puts ((uint8_t*)"Entrer la consigne:");
    2308:	8c ed       	ldi	r24, 0xDC	; 220
    230a:	92 e0       	ldi	r25, 0x02	; 2
    230c:	d6 dc       	rcall	.-1620   	; 0x1cba <LCD_puts>
	LCD_setCursorXY(0,20);
    230e:	64 e1       	ldi	r22, 0x14	; 20
    2310:	80 e0       	ldi	r24, 0x00	; 0
    2312:	0a dc       	rcall	.-2028   	; 0x1b28 <LCD_setCursorXY>
	itoa(consigne[0],buffer,10);
    2314:	0e e6       	ldi	r16, 0x6E	; 110
    2316:	1a e0       	ldi	r17, 0x0A	; 10
    2318:	f8 01       	movw	r30, r16
    231a:	80 81       	ld	r24, Z
    231c:	4a e0       	ldi	r20, 0x0A	; 10
    231e:	be 01       	movw	r22, r28
    2320:	6f 5f       	subi	r22, 0xFF	; 255
    2322:	7f 4f       	sbci	r23, 0xFF	; 255
    2324:	90 e0       	ldi	r25, 0x00	; 0
    2326:	0e 94 60 26 	call	0x4cc0	; 0x4cc0 <__itoa_ncheck>
	LCD_puts (buffer);
    232a:	ce 01       	movw	r24, r28
    232c:	01 96       	adiw	r24, 0x01	; 1
    232e:	c5 dc       	rcall	.-1654   	; 0x1cba <LCD_puts>
	LCD_puts ((uint8_t*)".");
    2330:	80 e5       	ldi	r24, 0x50	; 80
    2332:	91 e0       	ldi	r25, 0x01	; 1
    2334:	c2 dc       	rcall	.-1660   	; 0x1cba <LCD_puts>
	itoa(consigne[1],buffer,10);
    2336:	f8 01       	movw	r30, r16
    2338:	81 81       	ldd	r24, Z+1	; 0x01
    233a:	4a e0       	ldi	r20, 0x0A	; 10
    233c:	be 01       	movw	r22, r28
    233e:	6f 5f       	subi	r22, 0xFF	; 255
    2340:	7f 4f       	sbci	r23, 0xFF	; 255
    2342:	90 e0       	ldi	r25, 0x00	; 0
    2344:	0e 94 60 26 	call	0x4cc0	; 0x4cc0 <__itoa_ncheck>
	LCD_puts (buffer);
    2348:	ce 01       	movw	r24, r28
    234a:	01 96       	adiw	r24, 0x01	; 1
    234c:	b6 dc       	rcall	.-1684   	; 0x1cba <LCD_puts>
	itoa(consigne[2],buffer,10);
    234e:	f8 01       	movw	r30, r16
    2350:	82 81       	ldd	r24, Z+2	; 0x02
    2352:	4a e0       	ldi	r20, 0x0A	; 10
    2354:	be 01       	movw	r22, r28
    2356:	6f 5f       	subi	r22, 0xFF	; 255
    2358:	7f 4f       	sbci	r23, 0xFF	; 255
    235a:	90 e0       	ldi	r25, 0x00	; 0
    235c:	0e 94 60 26 	call	0x4cc0	; 0x4cc0 <__itoa_ncheck>
	LCD_puts (buffer);
    2360:	ce 01       	movw	r24, r28
    2362:	01 96       	adiw	r24, 0x01	; 1
    2364:	aa dc       	rcall	.-1708   	; 0x1cba <LCD_puts>
	
	position++;
    2366:	80 91 94 09 	lds	r24, 0x0994	; 0x800994 <position>
    236a:	8f 5f       	subi	r24, 0xFF	; 255
	if(position==4)
    236c:	84 30       	cpi	r24, 0x04	; 4
    236e:	21 f0       	breq	.+8      	; 0x2378 <Fct_auto_consigne_change+0xd8>
	itoa(consigne[1],buffer,10);
	LCD_puts (buffer);
	itoa(consigne[2],buffer,10);
	LCD_puts (buffer);
	
	position++;
    2370:	80 93 94 09 	sts	0x0994, r24	; 0x800994 <position>
		Usart_Tx_String("\n");
		
		OSRetirerCB_TIMER(IDCB_Clignotement_consigne);
		return FCT_AUTO;
	}
	else return ST_AUTO_CONSIGNE_CHANGE;
    2374:	8a e2       	ldi	r24, 0x2A	; 42
    2376:	37 c0       	rjmp	.+110    	; 0x23e6 <Fct_auto_consigne_change+0x146>
	LCD_puts (buffer);
	
	position++;
	if(position==4)
	{
		position=0;
    2378:	10 92 94 09 	sts	0x0994, r1	; 0x800994 <position>
		EEPROM_save_consigne();
    237c:	0e 94 0a 09 	call	0x1214	; 0x1214 <EEPROM_save_consigne>
		consigne_int = (int)consigne[2]+(10*((int)consigne[1]))+(100*((int)consigne[0]));
    2380:	ee e6       	ldi	r30, 0x6E	; 110
    2382:	fa e0       	ldi	r31, 0x0A	; 10
    2384:	42 81       	ldd	r20, Z+2	; 0x02
    2386:	21 81       	ldd	r18, Z+1	; 0x01
    2388:	30 e0       	ldi	r19, 0x00	; 0
    238a:	c9 01       	movw	r24, r18
    238c:	88 0f       	add	r24, r24
    238e:	99 1f       	adc	r25, r25
    2390:	22 0f       	add	r18, r18
    2392:	33 1f       	adc	r19, r19
    2394:	22 0f       	add	r18, r18
    2396:	33 1f       	adc	r19, r19
    2398:	22 0f       	add	r18, r18
    239a:	33 1f       	adc	r19, r19
    239c:	82 0f       	add	r24, r18
    239e:	93 1f       	adc	r25, r19
    23a0:	84 0f       	add	r24, r20
    23a2:	91 1d       	adc	r25, r1
    23a4:	20 81       	ld	r18, Z
    23a6:	f4 e6       	ldi	r31, 0x64	; 100
    23a8:	2f 9f       	mul	r18, r31
    23aa:	80 0d       	add	r24, r0
    23ac:	91 1d       	adc	r25, r1
    23ae:	11 24       	eor	r1, r1
    23b0:	90 93 91 09 	sts	0x0991, r25	; 0x800991 <consigne_int+0x1>
    23b4:	80 93 90 09 	sts	0x0990, r24	; 0x800990 <consigne_int>
    23b8:	4a e0       	ldi	r20, 0x0A	; 10
    23ba:	be 01       	movw	r22, r28
    23bc:	6f 5f       	subi	r22, 0xFF	; 255
    23be:	7f 4f       	sbci	r23, 0xFF	; 255
    23c0:	0e 94 60 26 	call	0x4cc0	; 0x4cc0 <__itoa_ncheck>
		itoa(consigne_int,buffer,10);
		Usart_Tx_String("Valeur consigne: ");
    23c4:	80 ef       	ldi	r24, 0xF0	; 240
    23c6:	92 e0       	ldi	r25, 0x02	; 2
    23c8:	0e 94 36 26 	call	0x4c6c	; 0x4c6c <Usart_Tx_String>
		Usart_Tx_String(buffer);
    23cc:	ce 01       	movw	r24, r28
    23ce:	01 96       	adiw	r24, 0x01	; 1
    23d0:	0e 94 36 26 	call	0x4c6c	; 0x4c6c <Usart_Tx_String>
		Usart_Tx_String("\n");
    23d4:	84 e4       	ldi	r24, 0x44	; 68
    23d6:	99 e0       	ldi	r25, 0x09	; 9
    23d8:	0e 94 36 26 	call	0x4c6c	; 0x4c6c <Usart_Tx_String>
		
		OSRetirerCB_TIMER(IDCB_Clignotement_consigne);
    23dc:	80 91 1b 0b 	lds	r24, 0x0B1B	; 0x800b1b <IDCB_Clignotement_consigne>
    23e0:	0e 94 dd 23 	call	0x47ba	; 0x47ba <OSRetirerCB_TIMER>
		return FCT_AUTO;
    23e4:	84 e1       	ldi	r24, 0x14	; 20
	}
	else return ST_AUTO_CONSIGNE_CHANGE;
	
	
}
    23e6:	64 96       	adiw	r28, 0x14	; 20
    23e8:	0f b6       	in	r0, 0x3f	; 63
    23ea:	f8 94       	cli
    23ec:	de bf       	out	0x3e, r29	; 62
    23ee:	0f be       	out	0x3f, r0	; 63
    23f0:	cd bf       	out	0x3d, r28	; 61
    23f2:	df 91       	pop	r29
    23f4:	cf 91       	pop	r28
    23f6:	1f 91       	pop	r17
    23f8:	0f 91       	pop	r16
    23fa:	08 95       	ret

000023fc <Fct_manu>:

char Fct_manu(char input)
{
	automatique=0;
    23fc:	10 92 95 09 	sts	0x0995, r1	; 0x800995 <automatique>
	LCD_clr();
    2400:	f2 db       	rcall	.-2076   	; 0x1be6 <LCD_clr>
	LCD_setCursorXY(45,0);
    2402:	60 e0       	ldi	r22, 0x00	; 0
    2404:	8d e2       	ldi	r24, 0x2D	; 45
    2406:	90 db       	rcall	.-2272   	; 0x1b28 <LCD_setCursorXY>
	LCD_puts ((uint8_t*)"MANU");
    2408:	82 e0       	ldi	r24, 0x02	; 2
    240a:	93 e0       	ldi	r25, 0x03	; 3
    240c:	56 dc       	rcall	.-1876   	; 0x1cba <LCD_puts>
	LCD_setCursorXY(3,10);
    240e:	6a e0       	ldi	r22, 0x0A	; 10
    2410:	83 e0       	ldi	r24, 0x03	; 3
    2412:	8a db       	rcall	.-2284   	; 0x1b28 <LCD_setCursorXY>
	LCD_puts ((uint8_t*)"1.Identification");
    2414:	87 e0       	ldi	r24, 0x07	; 7
    2416:	93 e0       	ldi	r25, 0x03	; 3
    2418:	50 dc       	rcall	.-1888   	; 0x1cba <LCD_puts>
	LCD_setCursorXY(3,20);
    241a:	64 e1       	ldi	r22, 0x14	; 20
    241c:	83 e0       	ldi	r24, 0x03	; 3
    241e:	84 db       	rcall	.-2296   	; 0x1b28 <LCD_setCursorXY>
	LCD_puts ((uint8_t*)"2.Out");
    2420:	88 e1       	ldi	r24, 0x18	; 24
    2422:	93 e0       	ldi	r25, 0x03	; 3
    2424:	4a dc       	rcall	.-1900   	; 0x1cba <LCD_puts>
	LCD_setCursorXY(3,60);
    2426:	6c e3       	ldi	r22, 0x3C	; 60
    2428:	83 e0       	ldi	r24, 0x03	; 3
    242a:	7e db       	rcall	.-2308   	; 0x1b28 <LCD_setCursorXY>
	LCD_puts ((uint8_t*)" B : BACK");
    242c:	82 ed       	ldi	r24, 0xD2	; 210
    242e:	92 e0       	ldi	r25, 0x02	; 2
    2430:	44 dc       	rcall	.-1912   	; 0x1cba <LCD_puts>
	
	return ST_MANU;
}
    2432:	87 e1       	ldi	r24, 0x17	; 23
    2434:	08 95       	ret

00002436 <Fct_identification>:

char Fct_identification(char input)
{
	LCD_clr();
    2436:	d7 db       	rcall	.-2130   	; 0x1be6 <LCD_clr>
	LCD_setCursorXY(25,0);
    2438:	60 e0       	ldi	r22, 0x00	; 0
    243a:	89 e1       	ldi	r24, 0x19	; 25
    243c:	75 db       	rcall	.-2326   	; 0x1b28 <LCD_setCursorXY>
	LCD_puts ((uint8_t*)"Identification");
    243e:	89 e0       	ldi	r24, 0x09	; 9
    2440:	93 e0       	ldi	r25, 0x03	; 3
    2442:	3b dc       	rcall	.-1930   	; 0x1cba <LCD_puts>
	LCD_setCursorXY(3,10);
    2444:	6a e0       	ldi	r22, 0x0A	; 10
    2446:	83 e0       	ldi	r24, 0x03	; 3
    2448:	6f db       	rcall	.-2338   	; 0x1b28 <LCD_setCursorXY>
	LCD_puts ((uint8_t*)"COMING SOON ... BY USART");
    244a:	8e e1       	ldi	r24, 0x1E	; 30
    244c:	93 e0       	ldi	r25, 0x03	; 3
    244e:	35 dc       	rcall	.-1942   	; 0x1cba <LCD_puts>
	LCD_setCursorXY(3,60);
    2450:	6c e3       	ldi	r22, 0x3C	; 60
    2452:	83 e0       	ldi	r24, 0x03	; 3
    2454:	69 db       	rcall	.-2350   	; 0x1b28 <LCD_setCursorXY>
	LCD_puts ((uint8_t*)" B : BACK");
    2456:	82 ed       	ldi	r24, 0xD2	; 210
    2458:	92 e0       	ldi	r25, 0x02	; 2
    245a:	2f dc       	rcall	.-1954   	; 0x1cba <LCD_puts>
	return ST_IDENTIFICATION;
}
    245c:	8c e2       	ldi	r24, 0x2C	; 44
    245e:	08 95       	ret

00002460 <Fct_out>:

char Fct_out(char input)
{
    2460:	0f 93       	push	r16
    2462:	1f 93       	push	r17
    2464:	cf 93       	push	r28
    2466:	df 93       	push	r29
    2468:	cd b7       	in	r28, 0x3d	; 61
    246a:	de b7       	in	r29, 0x3e	; 62
    246c:	64 97       	sbiw	r28, 0x14	; 20
    246e:	0f b6       	in	r0, 0x3f	; 63
    2470:	f8 94       	cli
    2472:	de bf       	out	0x3e, r29	; 62
    2474:	0f be       	out	0x3f, r0	; 63
    2476:	cd bf       	out	0x3d, r28	; 61
	EEPROM_read_out();
    2478:	0e 94 7a 04 	call	0x8f4	; 0x8f4 <EEPROM_read_out>
	char buffer[20];
	LCD_clr();
    247c:	b4 db       	rcall	.-2200   	; 0x1be6 <LCD_clr>
	LCD_setCursorXY(45,0);
    247e:	60 e0       	ldi	r22, 0x00	; 0
    2480:	8d e2       	ldi	r24, 0x2D	; 45
    2482:	52 db       	rcall	.-2396   	; 0x1b28 <LCD_setCursorXY>
	LCD_puts ((uint8_t*)"OUT");
    2484:	87 e3       	ldi	r24, 0x37	; 55
    2486:	93 e0       	ldi	r25, 0x03	; 3
    2488:	18 dc       	rcall	.-2000   	; 0x1cba <LCD_puts>
	LCD_setCursorXY(0,20);
    248a:	64 e1       	ldi	r22, 0x14	; 20
    248c:	80 e0       	ldi	r24, 0x00	; 0
    248e:	4c db       	rcall	.-2408   	; 0x1b28 <LCD_setCursorXY>
	itoa(out[0],buffer,10);
    2490:	0b e6       	ldi	r16, 0x6B	; 107
    2492:	1a e0       	ldi	r17, 0x0A	; 10
    2494:	f8 01       	movw	r30, r16
    2496:	80 81       	ld	r24, Z
    2498:	4a e0       	ldi	r20, 0x0A	; 10
    249a:	be 01       	movw	r22, r28
    249c:	6f 5f       	subi	r22, 0xFF	; 255
    249e:	7f 4f       	sbci	r23, 0xFF	; 255
    24a0:	90 e0       	ldi	r25, 0x00	; 0
    24a2:	0e 94 60 26 	call	0x4cc0	; 0x4cc0 <__itoa_ncheck>
	LCD_puts (buffer);
    24a6:	ce 01       	movw	r24, r28
    24a8:	01 96       	adiw	r24, 0x01	; 1
    24aa:	07 dc       	rcall	.-2034   	; 0x1cba <LCD_puts>
	LCD_puts ((uint8_t*)".");
    24ac:	80 e5       	ldi	r24, 0x50	; 80
    24ae:	91 e0       	ldi	r25, 0x01	; 1
    24b0:	04 dc       	rcall	.-2040   	; 0x1cba <LCD_puts>
	itoa(out[1],buffer,10);
    24b2:	f8 01       	movw	r30, r16
    24b4:	81 81       	ldd	r24, Z+1	; 0x01
    24b6:	4a e0       	ldi	r20, 0x0A	; 10
    24b8:	be 01       	movw	r22, r28
    24ba:	6f 5f       	subi	r22, 0xFF	; 255
    24bc:	7f 4f       	sbci	r23, 0xFF	; 255
    24be:	90 e0       	ldi	r25, 0x00	; 0
    24c0:	0e 94 60 26 	call	0x4cc0	; 0x4cc0 <__itoa_ncheck>
	LCD_puts (buffer);
    24c4:	ce 01       	movw	r24, r28
    24c6:	01 96       	adiw	r24, 0x01	; 1
    24c8:	f8 db       	rcall	.-2064   	; 0x1cba <LCD_puts>
	itoa(out[2],buffer,10);
    24ca:	f8 01       	movw	r30, r16
    24cc:	82 81       	ldd	r24, Z+2	; 0x02
    24ce:	4a e0       	ldi	r20, 0x0A	; 10
    24d0:	be 01       	movw	r22, r28
    24d2:	6f 5f       	subi	r22, 0xFF	; 255
    24d4:	7f 4f       	sbci	r23, 0xFF	; 255
    24d6:	90 e0       	ldi	r25, 0x00	; 0
    24d8:	0e 94 60 26 	call	0x4cc0	; 0x4cc0 <__itoa_ncheck>
	LCD_puts (buffer);
    24dc:	ce 01       	movw	r24, r28
    24de:	01 96       	adiw	r24, 0x01	; 1
    24e0:	ec db       	rcall	.-2088   	; 0x1cba <LCD_puts>
	LCD_setCursorXY(3,40);
    24e2:	68 e2       	ldi	r22, 0x28	; 40
    24e4:	83 e0       	ldi	r24, 0x03	; 3
    24e6:	20 db       	rcall	.-2496   	; 0x1b28 <LCD_setCursorXY>
	LCD_puts ((uint8_t*)" A : Reglage");
    24e8:	85 ec       	ldi	r24, 0xC5	; 197
    24ea:	92 e0       	ldi	r25, 0x02	; 2
    24ec:	e6 db       	rcall	.-2100   	; 0x1cba <LCD_puts>
	LCD_setCursorXY(3,60);
    24ee:	6c e3       	ldi	r22, 0x3C	; 60
    24f0:	83 e0       	ldi	r24, 0x03	; 3
    24f2:	1a db       	rcall	.-2508   	; 0x1b28 <LCD_setCursorXY>
	LCD_puts ((uint8_t*)" B : BACK");
    24f4:	82 ed       	ldi	r24, 0xD2	; 210
    24f6:	92 e0       	ldi	r25, 0x02	; 2
    24f8:	e0 db       	rcall	.-2112   	; 0x1cba <LCD_puts>
	return ST_OUT;
}
    24fa:	8e e2       	ldi	r24, 0x2E	; 46
    24fc:	64 96       	adiw	r28, 0x14	; 20
    24fe:	0f b6       	in	r0, 0x3f	; 63
    2500:	f8 94       	cli
    2502:	de bf       	out	0x3e, r29	; 62
    2504:	0f be       	out	0x3f, r0	; 63
    2506:	cd bf       	out	0x3d, r28	; 61
    2508:	df 91       	pop	r29
    250a:	cf 91       	pop	r28
    250c:	1f 91       	pop	r17
    250e:	0f 91       	pop	r16
    2510:	08 95       	ret

00002512 <Fct_out_change>:


char Fct_out_change(char input)
{
    2512:	0f 93       	push	r16
    2514:	1f 93       	push	r17
    2516:	cf 93       	push	r28
    2518:	df 93       	push	r29
    251a:	cd b7       	in	r28, 0x3d	; 61
    251c:	de b7       	in	r29, 0x3e	; 62
    251e:	64 97       	sbiw	r28, 0x14	; 20
    2520:	0f b6       	in	r0, 0x3f	; 63
    2522:	f8 94       	cli
    2524:	de bf       	out	0x3e, r29	; 62
    2526:	0f be       	out	0x3f, r0	; 63
    2528:	cd bf       	out	0x3d, r28	; 61
	input=Previous_Button;
    252a:	10 91 21 0b 	lds	r17, 0x0B21	; 0x800b21 <Previous_Button>
    252e:	4a e0       	ldi	r20, 0x0A	; 10
    2530:	be 01       	movw	r22, r28
    2532:	6f 5f       	subi	r22, 0xFF	; 255
    2534:	7f 4f       	sbci	r23, 0xFF	; 255
    2536:	81 2f       	mov	r24, r17
    2538:	90 e0       	ldi	r25, 0x00	; 0
    253a:	0e 94 60 26 	call	0x4cc0	; 0x4cc0 <__itoa_ncheck>
	
	char buffer[20];
	itoa(input,buffer,10);
	Usart_Tx_String(buffer);
    253e:	ce 01       	movw	r24, r28
    2540:	01 96       	adiw	r24, 0x01	; 1
    2542:	0e 94 36 26 	call	0x4c6c	; 0x4c6c <Usart_Tx_String>
	Usart_Tx_String("\n");
    2546:	84 e4       	ldi	r24, 0x44	; 68
    2548:	99 e0       	ldi	r25, 0x09	; 9
    254a:	0e 94 36 26 	call	0x4c6c	; 0x4c6c <Usart_Tx_String>
	if(position!=0)
    254e:	e0 91 94 09 	lds	r30, 0x0994	; 0x800994 <position>
    2552:	ee 23       	and	r30, r30
    2554:	31 f0       	breq	.+12     	; 0x2562 <Fct_out_change+0x50>
	{
		out[position-1]=input-1;
    2556:	f0 e0       	ldi	r31, 0x00	; 0
    2558:	e6 59       	subi	r30, 0x96	; 150
    255a:	f5 4f       	sbci	r31, 0xF5	; 245
    255c:	11 50       	subi	r17, 0x01	; 1
    255e:	10 83       	st	Z, r17
    2560:	08 c0       	rjmp	.+16     	; 0x2572 <Fct_out_change+0x60>
	}
	else IDCB_Clignotement_consigne = OSEnregistrerCB_TIMER(clignotementconsigne,500);
    2562:	64 ef       	ldi	r22, 0xF4	; 244
    2564:	71 e0       	ldi	r23, 0x01	; 1
    2566:	81 e2       	ldi	r24, 0x21	; 33
    2568:	90 e1       	ldi	r25, 0x10	; 16
    256a:	0e 94 b1 23 	call	0x4762	; 0x4762 <OSEnregistrerCB_TIMER>
    256e:	80 93 1b 0b 	sts	0x0B1B, r24	; 0x800b1b <IDCB_Clignotement_consigne>
	LCD_clr();
    2572:	39 db       	rcall	.-2446   	; 0x1be6 <LCD_clr>
	LCD_setCursorXY(10,0);
    2574:	60 e0       	ldi	r22, 0x00	; 0
    2576:	8a e0       	ldi	r24, 0x0A	; 10
    2578:	d7 da       	rcall	.-2642   	; 0x1b28 <LCD_setCursorXY>
	LCD_puts ((uint8_t*)"Enter OUT Value:");
    257a:	8b e3       	ldi	r24, 0x3B	; 59
    257c:	93 e0       	ldi	r25, 0x03	; 3
    257e:	9d db       	rcall	.-2246   	; 0x1cba <LCD_puts>
	LCD_setCursorXY(0,20);
    2580:	64 e1       	ldi	r22, 0x14	; 20
    2582:	80 e0       	ldi	r24, 0x00	; 0
    2584:	d1 da       	rcall	.-2654   	; 0x1b28 <LCD_setCursorXY>
	itoa(out[0],buffer,10);
    2586:	0b e6       	ldi	r16, 0x6B	; 107
    2588:	1a e0       	ldi	r17, 0x0A	; 10
    258a:	f8 01       	movw	r30, r16
    258c:	80 81       	ld	r24, Z
    258e:	4a e0       	ldi	r20, 0x0A	; 10
    2590:	be 01       	movw	r22, r28
    2592:	6f 5f       	subi	r22, 0xFF	; 255
    2594:	7f 4f       	sbci	r23, 0xFF	; 255
    2596:	90 e0       	ldi	r25, 0x00	; 0
    2598:	0e 94 60 26 	call	0x4cc0	; 0x4cc0 <__itoa_ncheck>
	LCD_puts (buffer);
    259c:	ce 01       	movw	r24, r28
    259e:	01 96       	adiw	r24, 0x01	; 1
    25a0:	8c db       	rcall	.-2280   	; 0x1cba <LCD_puts>
	LCD_puts ((uint8_t*)".");
    25a2:	80 e5       	ldi	r24, 0x50	; 80
    25a4:	91 e0       	ldi	r25, 0x01	; 1
    25a6:	89 db       	rcall	.-2286   	; 0x1cba <LCD_puts>
	itoa(out[1],buffer,10);
    25a8:	f8 01       	movw	r30, r16
    25aa:	81 81       	ldd	r24, Z+1	; 0x01
    25ac:	4a e0       	ldi	r20, 0x0A	; 10
    25ae:	be 01       	movw	r22, r28
    25b0:	6f 5f       	subi	r22, 0xFF	; 255
    25b2:	7f 4f       	sbci	r23, 0xFF	; 255
    25b4:	90 e0       	ldi	r25, 0x00	; 0
    25b6:	0e 94 60 26 	call	0x4cc0	; 0x4cc0 <__itoa_ncheck>
	LCD_puts (buffer);
    25ba:	ce 01       	movw	r24, r28
    25bc:	01 96       	adiw	r24, 0x01	; 1
    25be:	7d db       	rcall	.-2310   	; 0x1cba <LCD_puts>
	itoa(out[2],buffer,10);
    25c0:	f8 01       	movw	r30, r16
    25c2:	82 81       	ldd	r24, Z+2	; 0x02
    25c4:	4a e0       	ldi	r20, 0x0A	; 10
    25c6:	be 01       	movw	r22, r28
    25c8:	6f 5f       	subi	r22, 0xFF	; 255
    25ca:	7f 4f       	sbci	r23, 0xFF	; 255
    25cc:	90 e0       	ldi	r25, 0x00	; 0
    25ce:	0e 94 60 26 	call	0x4cc0	; 0x4cc0 <__itoa_ncheck>
	LCD_puts (buffer);
    25d2:	ce 01       	movw	r24, r28
    25d4:	01 96       	adiw	r24, 0x01	; 1
    25d6:	71 db       	rcall	.-2334   	; 0x1cba <LCD_puts>
	
	position++;
    25d8:	80 91 94 09 	lds	r24, 0x0994	; 0x800994 <position>
    25dc:	8f 5f       	subi	r24, 0xFF	; 255
	if(position==4)
    25de:	84 30       	cpi	r24, 0x04	; 4
    25e0:	21 f0       	breq	.+8      	; 0x25ea <Fct_out_change+0xd8>
	itoa(out[1],buffer,10);
	LCD_puts (buffer);
	itoa(out[2],buffer,10);
	LCD_puts (buffer);
	
	position++;
    25e2:	80 93 94 09 	sts	0x0994, r24	; 0x800994 <position>
		Usart_Tx_String("\n");
		
		OSRetirerCB_TIMER(IDCB_Clignotement_consigne);
		return FCT_OUT;
	}
	else return ST_OUT_CHANGE;
    25e6:	86 e4       	ldi	r24, 0x46	; 70
    25e8:	37 c0       	rjmp	.+110    	; 0x2658 <Fct_out_change+0x146>
	LCD_puts (buffer);
	
	position++;
	if(position==4)
	{
		position=0;
    25ea:	10 92 94 09 	sts	0x0994, r1	; 0x800994 <position>
		EEPROM_save_out();
    25ee:	0e 94 1c 09 	call	0x1238	; 0x1238 <EEPROM_save_out>
		out_int = (int)out[2]+(10*((int)out[1]))+(100*((int)out[0]));
    25f2:	eb e6       	ldi	r30, 0x6B	; 107
    25f4:	fa e0       	ldi	r31, 0x0A	; 10
    25f6:	42 81       	ldd	r20, Z+2	; 0x02
    25f8:	21 81       	ldd	r18, Z+1	; 0x01
    25fa:	30 e0       	ldi	r19, 0x00	; 0
    25fc:	c9 01       	movw	r24, r18
    25fe:	88 0f       	add	r24, r24
    2600:	99 1f       	adc	r25, r25
    2602:	22 0f       	add	r18, r18
    2604:	33 1f       	adc	r19, r19
    2606:	22 0f       	add	r18, r18
    2608:	33 1f       	adc	r19, r19
    260a:	22 0f       	add	r18, r18
    260c:	33 1f       	adc	r19, r19
    260e:	82 0f       	add	r24, r18
    2610:	93 1f       	adc	r25, r19
    2612:	84 0f       	add	r24, r20
    2614:	91 1d       	adc	r25, r1
    2616:	20 81       	ld	r18, Z
    2618:	f4 e6       	ldi	r31, 0x64	; 100
    261a:	2f 9f       	mul	r18, r31
    261c:	80 0d       	add	r24, r0
    261e:	91 1d       	adc	r25, r1
    2620:	11 24       	eor	r1, r1
    2622:	90 93 8f 09 	sts	0x098F, r25	; 0x80098f <out_int+0x1>
    2626:	80 93 8e 09 	sts	0x098E, r24	; 0x80098e <out_int>
    262a:	4a e0       	ldi	r20, 0x0A	; 10
    262c:	be 01       	movw	r22, r28
    262e:	6f 5f       	subi	r22, 0xFF	; 255
    2630:	7f 4f       	sbci	r23, 0xFF	; 255
    2632:	0e 94 60 26 	call	0x4cc0	; 0x4cc0 <__itoa_ncheck>
		itoa(out_int,buffer,10);
		Usart_Tx_String("Valeur OUT: ");
    2636:	8c e4       	ldi	r24, 0x4C	; 76
    2638:	93 e0       	ldi	r25, 0x03	; 3
    263a:	0e 94 36 26 	call	0x4c6c	; 0x4c6c <Usart_Tx_String>
		Usart_Tx_String(buffer);
    263e:	ce 01       	movw	r24, r28
    2640:	01 96       	adiw	r24, 0x01	; 1
    2642:	0e 94 36 26 	call	0x4c6c	; 0x4c6c <Usart_Tx_String>
		Usart_Tx_String("\n");
    2646:	84 e4       	ldi	r24, 0x44	; 68
    2648:	99 e0       	ldi	r25, 0x09	; 9
    264a:	0e 94 36 26 	call	0x4c6c	; 0x4c6c <Usart_Tx_String>
		
		OSRetirerCB_TIMER(IDCB_Clignotement_consigne);
    264e:	80 91 1b 0b 	lds	r24, 0x0B1B	; 0x800b1b <IDCB_Clignotement_consigne>
    2652:	0e 94 dd 23 	call	0x47ba	; 0x47ba <OSRetirerCB_TIMER>
		return FCT_OUT;
    2656:	8f e2       	ldi	r24, 0x2F	; 47
	}
	else return ST_OUT_CHANGE;
}
    2658:	64 96       	adiw	r28, 0x14	; 20
    265a:	0f b6       	in	r0, 0x3f	; 63
    265c:	f8 94       	cli
    265e:	de bf       	out	0x3e, r29	; 62
    2660:	0f be       	out	0x3f, r0	; 63
    2662:	cd bf       	out	0x3d, r28	; 61
    2664:	df 91       	pop	r29
    2666:	cf 91       	pop	r28
    2668:	1f 91       	pop	r17
    266a:	0f 91       	pop	r16
    266c:	08 95       	ret

0000266e <Fct_parameters>:


char Fct_parameters(char input)
{

	LCD_clr();
    266e:	bb da       	rcall	.-2698   	; 0x1be6 <LCD_clr>
	LCD_setCursorXY(25,0);
    2670:	60 e0       	ldi	r22, 0x00	; 0
    2672:	89 e1       	ldi	r24, 0x19	; 25
    2674:	59 da       	rcall	.-2894   	; 0x1b28 <LCD_setCursorXY>
	LCD_puts ((uint8_t*)"PARAMETRES");
    2676:	89 e5       	ldi	r24, 0x59	; 89
    2678:	93 e0       	ldi	r25, 0x03	; 3
    267a:	1f db       	rcall	.-2498   	; 0x1cba <LCD_puts>
	LCD_setCursorXY(0,10);
    267c:	6a e0       	ldi	r22, 0x0A	; 10
    267e:	80 e0       	ldi	r24, 0x00	; 0
    2680:	53 da       	rcall	.-2906   	; 0x1b28 <LCD_setCursorXY>
	LCD_puts ((uint8_t*)"1.Capteur\n");
    2682:	84 e6       	ldi	r24, 0x64	; 100
    2684:	93 e0       	ldi	r25, 0x03	; 3
    2686:	19 db       	rcall	.-2510   	; 0x1cba <LCD_puts>
	//LCD_setCursorXY(3,20);
	LCD_puts ((uint8_t*)"2.Sortie\n");
    2688:	8f e6       	ldi	r24, 0x6F	; 111
    268a:	93 e0       	ldi	r25, 0x03	; 3
    268c:	16 db       	rcall	.-2516   	; 0x1cba <LCD_puts>
	//LCD_setCursorXY(3,30);
	LCD_puts ((uint8_t*)"3.Alarme\n");
    268e:	89 e7       	ldi	r24, 0x79	; 121
    2690:	93 e0       	ldi	r25, 0x03	; 3
    2692:	13 db       	rcall	.-2522   	; 0x1cba <LCD_puts>
	//LCD_setCursorXY(3,40);
	LCD_puts ((uint8_t*)"4.Reglage regulateur\n");
    2694:	83 e8       	ldi	r24, 0x83	; 131
    2696:	93 e0       	ldi	r25, 0x03	; 3
    2698:	10 db       	rcall	.-2528   	; 0x1cba <LCD_puts>
	//LCD_setCursorXY(3,50);
	LCD_puts ((uint8_t*)"5.Date/heure\n");
    269a:	89 e9       	ldi	r24, 0x99	; 153
    269c:	93 e0       	ldi	r25, 0x03	; 3
    269e:	0d db       	rcall	.-2534   	; 0x1cba <LCD_puts>
	LCD_setCursorXY(3,60);
    26a0:	6c e3       	ldi	r22, 0x3C	; 60
    26a2:	83 e0       	ldi	r24, 0x03	; 3
    26a4:	41 da       	rcall	.-2942   	; 0x1b28 <LCD_setCursorXY>
	LCD_puts ((uint8_t*)"B: BACK");
    26a6:	87 ea       	ldi	r24, 0xA7	; 167
    26a8:	93 e0       	ldi	r25, 0x03	; 3
    26aa:	07 db       	rcall	.-2546   	; 0x1cba <LCD_puts>
	return ST_PARAMETERS;
}
    26ac:	89 e1       	ldi	r24, 0x19	; 25
    26ae:	08 95       	ret

000026b0 <Fct_capteur>:

char Fct_capteur (char input){
	LCD_clr();
    26b0:	9a da       	rcall	.-2764   	; 0x1be6 <LCD_clr>
	LCD_setCursorXY(25,0);
    26b2:	60 e0       	ldi	r22, 0x00	; 0
    26b4:	89 e1       	ldi	r24, 0x19	; 25
    26b6:	38 da       	rcall	.-2960   	; 0x1b28 <LCD_setCursorXY>
	LCD_puts ((uint8_t*)"CHOIX CAPTEUR");
    26b8:	8f ea       	ldi	r24, 0xAF	; 175
    26ba:	93 e0       	ldi	r25, 0x03	; 3
    26bc:	fe da       	rcall	.-2564   	; 0x1cba <LCD_puts>
	switch(capteur){
    26be:	80 91 93 09 	lds	r24, 0x0993	; 0x800993 <capteur>
    26c2:	82 30       	cpi	r24, 0x02	; 2
    26c4:	09 f4       	brne	.+2      	; 0x26c8 <Fct_capteur+0x18>
    26c6:	46 c0       	rjmp	.+140    	; 0x2754 <Fct_capteur+0xa4>
    26c8:	28 f4       	brcc	.+10     	; 0x26d4 <Fct_capteur+0x24>
    26ca:	88 23       	and	r24, r24
    26cc:	51 f0       	breq	.+20     	; 0x26e2 <Fct_capteur+0x32>
    26ce:	81 30       	cpi	r24, 0x01	; 1
    26d0:	09 f1       	breq	.+66     	; 0x2714 <Fct_capteur+0x64>
    26d2:	9f c0       	rjmp	.+318    	; 0x2812 <Fct_capteur+0x162>
    26d4:	83 30       	cpi	r24, 0x03	; 3
    26d6:	09 f4       	brne	.+2      	; 0x26da <Fct_capteur+0x2a>
    26d8:	5d c0       	rjmp	.+186    	; 0x2794 <Fct_capteur+0xe4>
    26da:	84 30       	cpi	r24, 0x04	; 4
    26dc:	09 f4       	brne	.+2      	; 0x26e0 <Fct_capteur+0x30>
    26de:	7a c0       	rjmp	.+244    	; 0x27d4 <Fct_capteur+0x124>
    26e0:	98 c0       	rjmp	.+304    	; 0x2812 <Fct_capteur+0x162>
		case 0:
			LCD_setCursorXY(3,10);
    26e2:	6a e0       	ldi	r22, 0x0A	; 10
    26e4:	83 e0       	ldi	r24, 0x03	; 3
    26e6:	20 da       	rcall	.-3008   	; 0x1b28 <LCD_setCursorXY>
			LCD_puts ((uint8_t*)"1.Temperature");
    26e8:	8d eb       	ldi	r24, 0xBD	; 189
    26ea:	93 e0       	ldi	r25, 0x03	; 3
    26ec:	e6 da       	rcall	.-2612   	; 0x1cba <LCD_puts>
			LCD_setCursorXY(3,20);
    26ee:	64 e1       	ldi	r22, 0x14	; 20
    26f0:	83 e0       	ldi	r24, 0x03	; 3
    26f2:	1a da       	rcall	.-3020   	; 0x1b28 <LCD_setCursorXY>
			LCD_puts ((uint8_t*)"2.Luminosite");
    26f4:	8b ec       	ldi	r24, 0xCB	; 203
    26f6:	93 e0       	ldi	r25, 0x03	; 3
    26f8:	e0 da       	rcall	.-2624   	; 0x1cba <LCD_puts>
			LCD_setCursorXY(3,30);
    26fa:	6e e1       	ldi	r22, 0x1E	; 30
    26fc:	83 e0       	ldi	r24, 0x03	; 3
    26fe:	14 da       	rcall	.-3032   	; 0x1b28 <LCD_setCursorXY>
			LCD_puts ((uint8_t*)"3.Humidite");
    2700:	88 ed       	ldi	r24, 0xD8	; 216
    2702:	93 e0       	ldi	r25, 0x03	; 3
    2704:	da da       	rcall	.-2636   	; 0x1cba <LCD_puts>
			LCD_setCursorXY(3,35);
    2706:	63 e2       	ldi	r22, 0x23	; 35
    2708:	83 e0       	ldi	r24, 0x03	; 3
    270a:	0e da       	rcall	.-3044   	; 0x1b28 <LCD_setCursorXY>
			LCD_puts ((uint8_t*)"4.ADC");
    270c:	83 ee       	ldi	r24, 0xE3	; 227
    270e:	93 e0       	ldi	r25, 0x03	; 3
    2710:	d4 da       	rcall	.-2648   	; 0x1cba <LCD_puts>
		break;
    2712:	7f c0       	rjmp	.+254    	; 0x2812 <Fct_capteur+0x162>
		case 1:
			LCD_setCursorXY(3,10);
    2714:	6a e0       	ldi	r22, 0x0A	; 10
    2716:	83 e0       	ldi	r24, 0x03	; 3
    2718:	07 da       	rcall	.-3058   	; 0x1b28 <LCD_setCursorXY>
			LCD_puts ((uint8_t*)"1.Temperature");
    271a:	8d eb       	ldi	r24, 0xBD	; 189
    271c:	93 e0       	ldi	r25, 0x03	; 3
    271e:	cd da       	rcall	.-2662   	; 0x1cba <LCD_puts>
			LCD_setCursorXY(3,10);
    2720:	6a e0       	ldi	r22, 0x0A	; 10
    2722:	83 e0       	ldi	r24, 0x03	; 3
    2724:	01 da       	rcall	.-3070   	; 0x1b28 <LCD_setCursorXY>
			LCD_invertPage(1,1,80);
    2726:	40 e5       	ldi	r20, 0x50	; 80
    2728:	61 e0       	ldi	r22, 0x01	; 1
    272a:	81 e0       	ldi	r24, 0x01	; 1
    272c:	80 da       	rcall	.-2816   	; 0x1c2e <LCD_invertPage>
			LCD_setCursorXY(3,20);
    272e:	64 e1       	ldi	r22, 0x14	; 20
    2730:	83 e0       	ldi	r24, 0x03	; 3
    2732:	fa d9       	rcall	.-3084   	; 0x1b28 <LCD_setCursorXY>
			LCD_puts ((uint8_t*)"2.Luminosite");
    2734:	8b ec       	ldi	r24, 0xCB	; 203
    2736:	93 e0       	ldi	r25, 0x03	; 3
    2738:	c0 da       	rcall	.-2688   	; 0x1cba <LCD_puts>
			LCD_setCursorXY(3,30);
    273a:	6e e1       	ldi	r22, 0x1E	; 30
    273c:	83 e0       	ldi	r24, 0x03	; 3
    273e:	f4 d9       	rcall	.-3096   	; 0x1b28 <LCD_setCursorXY>
			LCD_puts ((uint8_t*)"3.Humidite");
    2740:	88 ed       	ldi	r24, 0xD8	; 216
    2742:	93 e0       	ldi	r25, 0x03	; 3
    2744:	ba da       	rcall	.-2700   	; 0x1cba <LCD_puts>
			LCD_setCursorXY(3,35);
    2746:	63 e2       	ldi	r22, 0x23	; 35
    2748:	83 e0       	ldi	r24, 0x03	; 3
    274a:	ee d9       	rcall	.-3108   	; 0x1b28 <LCD_setCursorXY>
			LCD_puts ((uint8_t*)"4.ADC");
    274c:	83 ee       	ldi	r24, 0xE3	; 227
    274e:	93 e0       	ldi	r25, 0x03	; 3
    2750:	b4 da       	rcall	.-2712   	; 0x1cba <LCD_puts>
		break;
    2752:	5f c0       	rjmp	.+190    	; 0x2812 <Fct_capteur+0x162>
		case 2:
			LCD_setCursorXY(3,10);
    2754:	6a e0       	ldi	r22, 0x0A	; 10
    2756:	83 e0       	ldi	r24, 0x03	; 3
    2758:	e7 d9       	rcall	.-3122   	; 0x1b28 <LCD_setCursorXY>
			LCD_puts ((uint8_t*)"1.Temperature");
    275a:	8d eb       	ldi	r24, 0xBD	; 189
    275c:	93 e0       	ldi	r25, 0x03	; 3
    275e:	ad da       	rcall	.-2726   	; 0x1cba <LCD_puts>
			LCD_setCursorXY(3,20);
    2760:	64 e1       	ldi	r22, 0x14	; 20
    2762:	83 e0       	ldi	r24, 0x03	; 3
    2764:	e1 d9       	rcall	.-3134   	; 0x1b28 <LCD_setCursorXY>
			LCD_puts ((uint8_t*)"2.Luminosite");
    2766:	8b ec       	ldi	r24, 0xCB	; 203
    2768:	93 e0       	ldi	r25, 0x03	; 3
    276a:	a7 da       	rcall	.-2738   	; 0x1cba <LCD_puts>
			LCD_setCursorXY(3,20);
    276c:	64 e1       	ldi	r22, 0x14	; 20
    276e:	83 e0       	ldi	r24, 0x03	; 3
    2770:	db d9       	rcall	.-3146   	; 0x1b28 <LCD_setCursorXY>
			LCD_invertPage(2,1,80);
    2772:	40 e5       	ldi	r20, 0x50	; 80
    2774:	61 e0       	ldi	r22, 0x01	; 1
    2776:	82 e0       	ldi	r24, 0x02	; 2
    2778:	5a da       	rcall	.-2892   	; 0x1c2e <LCD_invertPage>
			LCD_setCursorXY(3,30);
    277a:	6e e1       	ldi	r22, 0x1E	; 30
    277c:	83 e0       	ldi	r24, 0x03	; 3
    277e:	d4 d9       	rcall	.-3160   	; 0x1b28 <LCD_setCursorXY>
			LCD_puts ((uint8_t*)"3.Humidite");
    2780:	88 ed       	ldi	r24, 0xD8	; 216
    2782:	93 e0       	ldi	r25, 0x03	; 3
    2784:	9a da       	rcall	.-2764   	; 0x1cba <LCD_puts>
			LCD_setCursorXY(3,35);
    2786:	63 e2       	ldi	r22, 0x23	; 35
    2788:	83 e0       	ldi	r24, 0x03	; 3
    278a:	ce d9       	rcall	.-3172   	; 0x1b28 <LCD_setCursorXY>
			LCD_puts ((uint8_t*)"4.ADC");
    278c:	83 ee       	ldi	r24, 0xE3	; 227
    278e:	93 e0       	ldi	r25, 0x03	; 3
    2790:	94 da       	rcall	.-2776   	; 0x1cba <LCD_puts>
		break;
    2792:	3f c0       	rjmp	.+126    	; 0x2812 <Fct_capteur+0x162>
		case 3:
			LCD_setCursorXY(3,10);
    2794:	6a e0       	ldi	r22, 0x0A	; 10
    2796:	83 e0       	ldi	r24, 0x03	; 3
    2798:	c7 d9       	rcall	.-3186   	; 0x1b28 <LCD_setCursorXY>
			LCD_puts ((uint8_t*)"1.Temperature");
    279a:	8d eb       	ldi	r24, 0xBD	; 189
    279c:	93 e0       	ldi	r25, 0x03	; 3
    279e:	8d da       	rcall	.-2790   	; 0x1cba <LCD_puts>
			LCD_setCursorXY(3,20);
    27a0:	64 e1       	ldi	r22, 0x14	; 20
    27a2:	83 e0       	ldi	r24, 0x03	; 3
    27a4:	c1 d9       	rcall	.-3198   	; 0x1b28 <LCD_setCursorXY>
			LCD_puts ((uint8_t*)"2.Luminosite");
    27a6:	8b ec       	ldi	r24, 0xCB	; 203
    27a8:	93 e0       	ldi	r25, 0x03	; 3
    27aa:	87 da       	rcall	.-2802   	; 0x1cba <LCD_puts>
			LCD_setCursorXY(3,30);
    27ac:	6e e1       	ldi	r22, 0x1E	; 30
    27ae:	83 e0       	ldi	r24, 0x03	; 3
    27b0:	bb d9       	rcall	.-3210   	; 0x1b28 <LCD_setCursorXY>
			LCD_puts ((uint8_t*)"3.Humidite");
    27b2:	88 ed       	ldi	r24, 0xD8	; 216
    27b4:	93 e0       	ldi	r25, 0x03	; 3
    27b6:	81 da       	rcall	.-2814   	; 0x1cba <LCD_puts>
			LCD_setCursorXY(3,30);
    27b8:	6e e1       	ldi	r22, 0x1E	; 30
    27ba:	83 e0       	ldi	r24, 0x03	; 3
    27bc:	b5 d9       	rcall	.-3222   	; 0x1b28 <LCD_setCursorXY>
			LCD_invertPage(3,1,80);
    27be:	40 e5       	ldi	r20, 0x50	; 80
    27c0:	61 e0       	ldi	r22, 0x01	; 1
    27c2:	83 e0       	ldi	r24, 0x03	; 3
    27c4:	34 da       	rcall	.-2968   	; 0x1c2e <LCD_invertPage>
			LCD_setCursorXY(3,35);
    27c6:	63 e2       	ldi	r22, 0x23	; 35
    27c8:	83 e0       	ldi	r24, 0x03	; 3
    27ca:	ae d9       	rcall	.-3236   	; 0x1b28 <LCD_setCursorXY>
			LCD_puts ((uint8_t*)"4.ADC");
    27cc:	83 ee       	ldi	r24, 0xE3	; 227
    27ce:	93 e0       	ldi	r25, 0x03	; 3
    27d0:	74 da       	rcall	.-2840   	; 0x1cba <LCD_puts>
		break;
    27d2:	1f c0       	rjmp	.+62     	; 0x2812 <Fct_capteur+0x162>
		case 4:
			LCD_setCursorXY(3,10);
    27d4:	6a e0       	ldi	r22, 0x0A	; 10
    27d6:	83 e0       	ldi	r24, 0x03	; 3
    27d8:	a7 d9       	rcall	.-3250   	; 0x1b28 <LCD_setCursorXY>
			LCD_puts ((uint8_t*)"1.Temperature");
    27da:	8d eb       	ldi	r24, 0xBD	; 189
    27dc:	93 e0       	ldi	r25, 0x03	; 3
    27de:	6d da       	rcall	.-2854   	; 0x1cba <LCD_puts>
			LCD_setCursorXY(3,20);
    27e0:	64 e1       	ldi	r22, 0x14	; 20
    27e2:	83 e0       	ldi	r24, 0x03	; 3
    27e4:	a1 d9       	rcall	.-3262   	; 0x1b28 <LCD_setCursorXY>
			LCD_puts ((uint8_t*)"2.Luminosite");
    27e6:	8b ec       	ldi	r24, 0xCB	; 203
    27e8:	93 e0       	ldi	r25, 0x03	; 3
    27ea:	67 da       	rcall	.-2866   	; 0x1cba <LCD_puts>
			LCD_setCursorXY(3,30);
    27ec:	6e e1       	ldi	r22, 0x1E	; 30
    27ee:	83 e0       	ldi	r24, 0x03	; 3
    27f0:	9b d9       	rcall	.-3274   	; 0x1b28 <LCD_setCursorXY>
			LCD_puts ((uint8_t*)"3.Humidite");
    27f2:	88 ed       	ldi	r24, 0xD8	; 216
    27f4:	93 e0       	ldi	r25, 0x03	; 3
    27f6:	61 da       	rcall	.-2878   	; 0x1cba <LCD_puts>
			LCD_setCursorXY(3,35);
    27f8:	63 e2       	ldi	r22, 0x23	; 35
    27fa:	83 e0       	ldi	r24, 0x03	; 3
    27fc:	95 d9       	rcall	.-3286   	; 0x1b28 <LCD_setCursorXY>
			LCD_puts ((uint8_t*)"4.ADC");
    27fe:	83 ee       	ldi	r24, 0xE3	; 227
    2800:	93 e0       	ldi	r25, 0x03	; 3
    2802:	5b da       	rcall	.-2890   	; 0x1cba <LCD_puts>
			LCD_setCursorXY(3,35);
    2804:	63 e2       	ldi	r22, 0x23	; 35
    2806:	83 e0       	ldi	r24, 0x03	; 3
    2808:	8f d9       	rcall	.-3298   	; 0x1b28 <LCD_setCursorXY>
			LCD_invertPage(4,1,80);
    280a:	40 e5       	ldi	r20, 0x50	; 80
    280c:	61 e0       	ldi	r22, 0x01	; 1
    280e:	84 e0       	ldi	r24, 0x04	; 4
    2810:	0e da       	rcall	.-3044   	; 0x1c2e <LCD_invertPage>
		break;
		
	}
	LCD_setCursorXY(3,60);
    2812:	6c e3       	ldi	r22, 0x3C	; 60
    2814:	83 e0       	ldi	r24, 0x03	; 3
    2816:	88 d9       	rcall	.-3312   	; 0x1b28 <LCD_setCursorXY>
	LCD_puts ((uint8_t*)" B : BACK");
    2818:	82 ed       	ldi	r24, 0xD2	; 210
    281a:	92 e0       	ldi	r25, 0x02	; 2
    281c:	4e da       	rcall	.-2916   	; 0x1cba <LCD_puts>
	return ST_CAPTEUR;
}
    281e:	8d e1       	ldi	r24, 0x1D	; 29
    2820:	08 95       	ret

00002822 <Fct_temperature>:

char Fct_temperature(char input)
{
	capteur=1;
    2822:	81 e0       	ldi	r24, 0x01	; 1
    2824:	80 93 93 09 	sts	0x0993, r24	; 0x800993 <capteur>
	LCD_clr();
    2828:	de d9       	rcall	.-3140   	; 0x1be6 <LCD_clr>
	LCD_setCursorXY(15,0);
    282a:	60 e0       	ldi	r22, 0x00	; 0
    282c:	8f e0       	ldi	r24, 0x0F	; 15
    282e:	7c d9       	rcall	.-3336   	; 0x1b28 <LCD_setCursorXY>
	LCD_puts ((uint8_t*)"Capteur choisi:");
    2830:	89 ee       	ldi	r24, 0xE9	; 233
    2832:	93 e0       	ldi	r25, 0x03	; 3
    2834:	42 da       	rcall	.-2940   	; 0x1cba <LCD_puts>
	LCD_setCursorXY(3,10);
    2836:	6a e0       	ldi	r22, 0x0A	; 10
    2838:	83 e0       	ldi	r24, 0x03	; 3
    283a:	76 d9       	rcall	.-3348   	; 0x1b28 <LCD_setCursorXY>
	LCD_puts ((uint8_t*)"Temperature");
    283c:	8f eb       	ldi	r24, 0xBF	; 191
    283e:	93 e0       	ldi	r25, 0x03	; 3
    2840:	3c da       	rcall	.-2952   	; 0x1cba <LCD_puts>
	LCD_setCursorXY(3,60);
    2842:	6c e3       	ldi	r22, 0x3C	; 60
    2844:	83 e0       	ldi	r24, 0x03	; 3
    2846:	70 d9       	rcall	.-3360   	; 0x1b28 <LCD_setCursorXY>
	LCD_puts ((uint8_t*)"B: BACK");
    2848:	87 ea       	ldi	r24, 0xA7	; 167
    284a:	93 e0       	ldi	r25, 0x03	; 3
    284c:	36 da       	rcall	.-2964   	; 0x1cba <LCD_puts>
	return ST_TEMPERATURE;
	
}
    284e:	88 e4       	ldi	r24, 0x48	; 72
    2850:	08 95       	ret

00002852 <Fct_luminosite>:

char Fct_luminosite(char input)
{
	capteur=2;
    2852:	82 e0       	ldi	r24, 0x02	; 2
    2854:	80 93 93 09 	sts	0x0993, r24	; 0x800993 <capteur>
	LCD_clr();
    2858:	c6 d9       	rcall	.-3188   	; 0x1be6 <LCD_clr>
	LCD_setCursorXY(15,0);
    285a:	60 e0       	ldi	r22, 0x00	; 0
    285c:	8f e0       	ldi	r24, 0x0F	; 15
    285e:	64 d9       	rcall	.-3384   	; 0x1b28 <LCD_setCursorXY>
	LCD_puts ((uint8_t*)"Capteur choisi:");
    2860:	89 ee       	ldi	r24, 0xE9	; 233
    2862:	93 e0       	ldi	r25, 0x03	; 3
    2864:	2a da       	rcall	.-2988   	; 0x1cba <LCD_puts>
	LCD_setCursorXY(3,10);
    2866:	6a e0       	ldi	r22, 0x0A	; 10
    2868:	83 e0       	ldi	r24, 0x03	; 3
    286a:	5e d9       	rcall	.-3396   	; 0x1b28 <LCD_setCursorXY>
	LCD_puts ((uint8_t*)"Luminosite");
    286c:	8d ec       	ldi	r24, 0xCD	; 205
    286e:	93 e0       	ldi	r25, 0x03	; 3
    2870:	24 da       	rcall	.-3000   	; 0x1cba <LCD_puts>
	LCD_setCursorXY(3,60);
    2872:	6c e3       	ldi	r22, 0x3C	; 60
    2874:	83 e0       	ldi	r24, 0x03	; 3
    2876:	58 d9       	rcall	.-3408   	; 0x1b28 <LCD_setCursorXY>
	LCD_puts ((uint8_t*)"B: BACK");
    2878:	87 ea       	ldi	r24, 0xA7	; 167
    287a:	93 e0       	ldi	r25, 0x03	; 3
    287c:	1e da       	rcall	.-3012   	; 0x1cba <LCD_puts>
	return ST_LUMINOSITE;
}
    287e:	8a e4       	ldi	r24, 0x4A	; 74
    2880:	08 95       	ret

00002882 <Fct_humidite>:

char Fct_humidite(char input)
{
	capteur=3;
    2882:	83 e0       	ldi	r24, 0x03	; 3
    2884:	80 93 93 09 	sts	0x0993, r24	; 0x800993 <capteur>
	LCD_clr();
    2888:	ae d9       	rcall	.-3236   	; 0x1be6 <LCD_clr>
	LCD_setCursorXY(15,0);
    288a:	60 e0       	ldi	r22, 0x00	; 0
    288c:	8f e0       	ldi	r24, 0x0F	; 15
    288e:	4c d9       	rcall	.-3432   	; 0x1b28 <LCD_setCursorXY>
	LCD_puts ((uint8_t*)"Capteur choisi:");
    2890:	89 ee       	ldi	r24, 0xE9	; 233
    2892:	93 e0       	ldi	r25, 0x03	; 3
    2894:	12 da       	rcall	.-3036   	; 0x1cba <LCD_puts>
	LCD_setCursorXY(3,10);
    2896:	6a e0       	ldi	r22, 0x0A	; 10
    2898:	83 e0       	ldi	r24, 0x03	; 3
    289a:	46 d9       	rcall	.-3444   	; 0x1b28 <LCD_setCursorXY>
	LCD_puts ((uint8_t*)"Humidite");
    289c:	8a ed       	ldi	r24, 0xDA	; 218
    289e:	93 e0       	ldi	r25, 0x03	; 3
    28a0:	0c da       	rcall	.-3048   	; 0x1cba <LCD_puts>
	LCD_setCursorXY(3,60);
    28a2:	6c e3       	ldi	r22, 0x3C	; 60
    28a4:	83 e0       	ldi	r24, 0x03	; 3
    28a6:	40 d9       	rcall	.-3456   	; 0x1b28 <LCD_setCursorXY>
	LCD_puts ((uint8_t*)"B: BACK");
    28a8:	87 ea       	ldi	r24, 0xA7	; 167
    28aa:	93 e0       	ldi	r25, 0x03	; 3
    28ac:	06 da       	rcall	.-3060   	; 0x1cba <LCD_puts>
	return ST_HUMIDITE;
}
    28ae:	8c e4       	ldi	r24, 0x4C	; 76
    28b0:	08 95       	ret

000028b2 <Fct_adc>:

char Fct_adc(char input)
{
	capteur=4;
    28b2:	84 e0       	ldi	r24, 0x04	; 4
    28b4:	80 93 93 09 	sts	0x0993, r24	; 0x800993 <capteur>
	LCD_clr();
    28b8:	96 d9       	rcall	.-3284   	; 0x1be6 <LCD_clr>
	LCD_setCursorXY(15,0);
    28ba:	60 e0       	ldi	r22, 0x00	; 0
    28bc:	8f e0       	ldi	r24, 0x0F	; 15
    28be:	34 d9       	rcall	.-3480   	; 0x1b28 <LCD_setCursorXY>
	LCD_puts ((uint8_t*)"Capteur choisi:");
    28c0:	89 ee       	ldi	r24, 0xE9	; 233
    28c2:	93 e0       	ldi	r25, 0x03	; 3
    28c4:	fa d9       	rcall	.-3084   	; 0x1cba <LCD_puts>
	LCD_setCursorXY(3,10);
    28c6:	6a e0       	ldi	r22, 0x0A	; 10
    28c8:	83 e0       	ldi	r24, 0x03	; 3
    28ca:	2e d9       	rcall	.-3492   	; 0x1b28 <LCD_setCursorXY>
	LCD_puts ((uint8_t*)"ADC");
    28cc:	85 ee       	ldi	r24, 0xE5	; 229
    28ce:	93 e0       	ldi	r25, 0x03	; 3
    28d0:	f4 d9       	rcall	.-3096   	; 0x1cba <LCD_puts>
	LCD_setCursorXY(3,60);
    28d2:	6c e3       	ldi	r22, 0x3C	; 60
    28d4:	83 e0       	ldi	r24, 0x03	; 3
    28d6:	28 d9       	rcall	.-3504   	; 0x1b28 <LCD_setCursorXY>
	LCD_puts ((uint8_t*)"B: BACK");
    28d8:	87 ea       	ldi	r24, 0xA7	; 167
    28da:	93 e0       	ldi	r25, 0x03	; 3
    28dc:	ee d9       	rcall	.-3108   	; 0x1cba <LCD_puts>
	return ST_ADC;
}
    28de:	8e e4       	ldi	r24, 0x4E	; 78
    28e0:	08 95       	ret

000028e2 <Fct_output>:


char Fct_output(char input)
{
	LCD_clr();
    28e2:	81 d9       	rcall	.-3326   	; 0x1be6 <LCD_clr>
	LCD_setCursorXY(45,0);
    28e4:	60 e0       	ldi	r22, 0x00	; 0
    28e6:	8d e2       	ldi	r24, 0x2D	; 45
    28e8:	1f d9       	rcall	.-3522   	; 0x1b28 <LCD_setCursorXY>
	LCD_puts ((uint8_t*)"SORTIE");
    28ea:	89 ef       	ldi	r24, 0xF9	; 249
    28ec:	93 e0       	ldi	r25, 0x03	; 3
    28ee:	e5 d9       	rcall	.-3126   	; 0x1cba <LCD_puts>
	switch(sortie){
    28f0:	80 91 92 09 	lds	r24, 0x0992	; 0x800992 <sortie>
    28f4:	81 30       	cpi	r24, 0x01	; 1
    28f6:	d9 f0       	breq	.+54     	; 0x292e <Fct_output+0x4c>
    28f8:	38 f0       	brcs	.+14     	; 0x2908 <Fct_output+0x26>
    28fa:	82 30       	cpi	r24, 0x02	; 2
    28fc:	09 f4       	brne	.+2      	; 0x2900 <Fct_output+0x1e>
    28fe:	31 c0       	rjmp	.+98     	; 0x2962 <Fct_output+0x80>
    2900:	83 30       	cpi	r24, 0x03	; 3
    2902:	09 f4       	brne	.+2      	; 0x2906 <Fct_output+0x24>
    2904:	48 c0       	rjmp	.+144    	; 0x2996 <Fct_output+0xb4>
    2906:	60 c0       	rjmp	.+192    	; 0x29c8 <Fct_output+0xe6>
		case 0:
			LCD_setCursorXY(3,10);
    2908:	6a e0       	ldi	r22, 0x0A	; 10
    290a:	83 e0       	ldi	r24, 0x03	; 3
    290c:	0d d9       	rcall	.-3558   	; 0x1b28 <LCD_setCursorXY>
			LCD_puts ((uint8_t*)"1.PWM");
    290e:	80 e0       	ldi	r24, 0x00	; 0
    2910:	94 e0       	ldi	r25, 0x04	; 4
    2912:	d3 d9       	rcall	.-3162   	; 0x1cba <LCD_puts>
			LCD_setCursorXY(3,20);
    2914:	64 e1       	ldi	r22, 0x14	; 20
    2916:	83 e0       	ldi	r24, 0x03	; 3
    2918:	07 d9       	rcall	.-3570   	; 0x1b28 <LCD_setCursorXY>
			LCD_puts ((uint8_t*)"2.Relais");
    291a:	86 e0       	ldi	r24, 0x06	; 6
    291c:	94 e0       	ldi	r25, 0x04	; 4
    291e:	cd d9       	rcall	.-3174   	; 0x1cba <LCD_puts>
			LCD_setCursorXY(3,30);
    2920:	6e e1       	ldi	r22, 0x1E	; 30
    2922:	83 e0       	ldi	r24, 0x03	; 3
    2924:	01 d9       	rcall	.-3582   	; 0x1b28 <LCD_setCursorXY>
			LCD_puts ((uint8_t*)"3.Analogique");
    2926:	8f e0       	ldi	r24, 0x0F	; 15
    2928:	94 e0       	ldi	r25, 0x04	; 4
    292a:	c7 d9       	rcall	.-3186   	; 0x1cba <LCD_puts>
		break;
    292c:	4d c0       	rjmp	.+154    	; 0x29c8 <Fct_output+0xe6>
		case 1:
			LCD_setCursorXY(3,10);
    292e:	6a e0       	ldi	r22, 0x0A	; 10
    2930:	83 e0       	ldi	r24, 0x03	; 3
    2932:	fa d8       	rcall	.-3596   	; 0x1b28 <LCD_setCursorXY>
			LCD_puts ((uint8_t*)"1.PWM");
    2934:	80 e0       	ldi	r24, 0x00	; 0
    2936:	94 e0       	ldi	r25, 0x04	; 4
    2938:	c0 d9       	rcall	.-3200   	; 0x1cba <LCD_puts>
			LCD_setCursorXY(3,10);
    293a:	6a e0       	ldi	r22, 0x0A	; 10
    293c:	83 e0       	ldi	r24, 0x03	; 3
    293e:	f4 d8       	rcall	.-3608   	; 0x1b28 <LCD_setCursorXY>
			LCD_invertPage(1,1,80);
    2940:	40 e5       	ldi	r20, 0x50	; 80
    2942:	61 e0       	ldi	r22, 0x01	; 1
    2944:	81 e0       	ldi	r24, 0x01	; 1
    2946:	73 d9       	rcall	.-3354   	; 0x1c2e <LCD_invertPage>
			LCD_setCursorXY(3,20);
    2948:	64 e1       	ldi	r22, 0x14	; 20
    294a:	83 e0       	ldi	r24, 0x03	; 3
    294c:	ed d8       	rcall	.-3622   	; 0x1b28 <LCD_setCursorXY>
			LCD_puts ((uint8_t*)"2.Relais");
    294e:	86 e0       	ldi	r24, 0x06	; 6
    2950:	94 e0       	ldi	r25, 0x04	; 4
    2952:	b3 d9       	rcall	.-3226   	; 0x1cba <LCD_puts>
			LCD_setCursorXY(3,30);
    2954:	6e e1       	ldi	r22, 0x1E	; 30
    2956:	83 e0       	ldi	r24, 0x03	; 3
    2958:	e7 d8       	rcall	.-3634   	; 0x1b28 <LCD_setCursorXY>
			LCD_puts ((uint8_t*)"3.Analogique");
    295a:	8f e0       	ldi	r24, 0x0F	; 15
    295c:	94 e0       	ldi	r25, 0x04	; 4
    295e:	ad d9       	rcall	.-3238   	; 0x1cba <LCD_puts>
		break;
    2960:	33 c0       	rjmp	.+102    	; 0x29c8 <Fct_output+0xe6>
		case 2:
			LCD_setCursorXY(3,10);
    2962:	6a e0       	ldi	r22, 0x0A	; 10
    2964:	83 e0       	ldi	r24, 0x03	; 3
    2966:	e0 d8       	rcall	.-3648   	; 0x1b28 <LCD_setCursorXY>
			LCD_puts ((uint8_t*)"1.PWM");
    2968:	80 e0       	ldi	r24, 0x00	; 0
    296a:	94 e0       	ldi	r25, 0x04	; 4
    296c:	a6 d9       	rcall	.-3252   	; 0x1cba <LCD_puts>
			LCD_setCursorXY(3,20);
    296e:	64 e1       	ldi	r22, 0x14	; 20
    2970:	83 e0       	ldi	r24, 0x03	; 3
    2972:	da d8       	rcall	.-3660   	; 0x1b28 <LCD_setCursorXY>
			LCD_puts ((uint8_t*)"2.Relais");
    2974:	86 e0       	ldi	r24, 0x06	; 6
    2976:	94 e0       	ldi	r25, 0x04	; 4
    2978:	a0 d9       	rcall	.-3264   	; 0x1cba <LCD_puts>
			LCD_setCursorXY(3,20);
    297a:	64 e1       	ldi	r22, 0x14	; 20
    297c:	83 e0       	ldi	r24, 0x03	; 3
    297e:	d4 d8       	rcall	.-3672   	; 0x1b28 <LCD_setCursorXY>
			LCD_invertPage(2,1,80);
    2980:	40 e5       	ldi	r20, 0x50	; 80
    2982:	61 e0       	ldi	r22, 0x01	; 1
    2984:	82 e0       	ldi	r24, 0x02	; 2
    2986:	53 d9       	rcall	.-3418   	; 0x1c2e <LCD_invertPage>
			LCD_setCursorXY(3,30);
    2988:	6e e1       	ldi	r22, 0x1E	; 30
    298a:	83 e0       	ldi	r24, 0x03	; 3
    298c:	cd d8       	rcall	.-3686   	; 0x1b28 <LCD_setCursorXY>
			LCD_puts ((uint8_t*)"3.Analogique");
    298e:	8f e0       	ldi	r24, 0x0F	; 15
    2990:	94 e0       	ldi	r25, 0x04	; 4
    2992:	93 d9       	rcall	.-3290   	; 0x1cba <LCD_puts>
		break;
    2994:	19 c0       	rjmp	.+50     	; 0x29c8 <Fct_output+0xe6>
		case 3:
			LCD_setCursorXY(3,10);
    2996:	6a e0       	ldi	r22, 0x0A	; 10
    2998:	83 e0       	ldi	r24, 0x03	; 3
    299a:	c6 d8       	rcall	.-3700   	; 0x1b28 <LCD_setCursorXY>
			LCD_puts ((uint8_t*)"1.PWM");
    299c:	80 e0       	ldi	r24, 0x00	; 0
    299e:	94 e0       	ldi	r25, 0x04	; 4
    29a0:	8c d9       	rcall	.-3304   	; 0x1cba <LCD_puts>
			LCD_setCursorXY(3,20);
    29a2:	64 e1       	ldi	r22, 0x14	; 20
    29a4:	83 e0       	ldi	r24, 0x03	; 3
    29a6:	c0 d8       	rcall	.-3712   	; 0x1b28 <LCD_setCursorXY>
			LCD_puts ((uint8_t*)"2.Relais");
    29a8:	86 e0       	ldi	r24, 0x06	; 6
    29aa:	94 e0       	ldi	r25, 0x04	; 4
    29ac:	86 d9       	rcall	.-3316   	; 0x1cba <LCD_puts>
			LCD_setCursorXY(3,30);
    29ae:	6e e1       	ldi	r22, 0x1E	; 30
    29b0:	83 e0       	ldi	r24, 0x03	; 3
    29b2:	ba d8       	rcall	.-3724   	; 0x1b28 <LCD_setCursorXY>
			LCD_puts ((uint8_t*)"3.Analogique");
    29b4:	8f e0       	ldi	r24, 0x0F	; 15
    29b6:	94 e0       	ldi	r25, 0x04	; 4
    29b8:	80 d9       	rcall	.-3328   	; 0x1cba <LCD_puts>
			LCD_setCursorXY(3,30);
    29ba:	6e e1       	ldi	r22, 0x1E	; 30
    29bc:	83 e0       	ldi	r24, 0x03	; 3
    29be:	b4 d8       	rcall	.-3736   	; 0x1b28 <LCD_setCursorXY>
			LCD_invertPage(3,1,80);
    29c0:	40 e5       	ldi	r20, 0x50	; 80
    29c2:	61 e0       	ldi	r22, 0x01	; 1
    29c4:	83 e0       	ldi	r24, 0x03	; 3
    29c6:	33 d9       	rcall	.-3482   	; 0x1c2e <LCD_invertPage>
		break;
	}
	LCD_setCursorXY(3,60);
    29c8:	6c e3       	ldi	r22, 0x3C	; 60
    29ca:	83 e0       	ldi	r24, 0x03	; 3
    29cc:	ad d8       	rcall	.-3750   	; 0x1b28 <LCD_setCursorXY>
	LCD_puts ((uint8_t*)" B : BACK");
    29ce:	82 ed       	ldi	r24, 0xD2	; 210
    29d0:	92 e0       	ldi	r25, 0x02	; 2
    29d2:	73 d9       	rcall	.-3354   	; 0x1cba <LCD_puts>
	return ST_OUTPUT;
}
    29d4:	8f e1       	ldi	r24, 0x1F	; 31
    29d6:	08 95       	ret

000029d8 <Fct_pwm>:

char Fct_pwm(char input)
{
	sortie=1;
    29d8:	81 e0       	ldi	r24, 0x01	; 1
    29da:	80 93 92 09 	sts	0x0992, r24	; 0x800992 <sortie>
	LCD_clr();
    29de:	03 d9       	rcall	.-3578   	; 0x1be6 <LCD_clr>
	LCD_setCursorXY(15,0);
    29e0:	60 e0       	ldi	r22, 0x00	; 0
    29e2:	8f e0       	ldi	r24, 0x0F	; 15
    29e4:	a1 d8       	rcall	.-3774   	; 0x1b28 <LCD_setCursorXY>
	LCD_puts ((uint8_t*)"Sortie choisie:");
    29e6:	8c e1       	ldi	r24, 0x1C	; 28
    29e8:	94 e0       	ldi	r25, 0x04	; 4
    29ea:	67 d9       	rcall	.-3378   	; 0x1cba <LCD_puts>
	LCD_setCursorXY(3,10);
    29ec:	6a e0       	ldi	r22, 0x0A	; 10
    29ee:	83 e0       	ldi	r24, 0x03	; 3
    29f0:	9b d8       	rcall	.-3786   	; 0x1b28 <LCD_setCursorXY>
	LCD_puts ((uint8_t*)"PWM");
    29f2:	82 e0       	ldi	r24, 0x02	; 2
    29f4:	94 e0       	ldi	r25, 0x04	; 4
    29f6:	61 d9       	rcall	.-3390   	; 0x1cba <LCD_puts>
	LCD_setCursorXY(3,60);
    29f8:	6c e3       	ldi	r22, 0x3C	; 60
    29fa:	83 e0       	ldi	r24, 0x03	; 3
    29fc:	95 d8       	rcall	.-3798   	; 0x1b28 <LCD_setCursorXY>
	LCD_puts ((uint8_t*)"B: BACK");
    29fe:	87 ea       	ldi	r24, 0xA7	; 167
    2a00:	93 e0       	ldi	r25, 0x03	; 3
    2a02:	5b d9       	rcall	.-3402   	; 0x1cba <LCD_puts>
	return ST_PWM;
}
    2a04:	80 e5       	ldi	r24, 0x50	; 80
    2a06:	08 95       	ret

00002a08 <Fct_relais>:

char Fct_relais(char input)
{
	sortie=2;
    2a08:	82 e0       	ldi	r24, 0x02	; 2
    2a0a:	80 93 92 09 	sts	0x0992, r24	; 0x800992 <sortie>
	LCD_clr();
    2a0e:	eb d8       	rcall	.-3626   	; 0x1be6 <LCD_clr>
	LCD_setCursorXY(15,0);
    2a10:	60 e0       	ldi	r22, 0x00	; 0
    2a12:	8f e0       	ldi	r24, 0x0F	; 15
    2a14:	89 d8       	rcall	.-3822   	; 0x1b28 <LCD_setCursorXY>
	LCD_puts ((uint8_t*)"Sortie choisie:");
    2a16:	8c e1       	ldi	r24, 0x1C	; 28
    2a18:	94 e0       	ldi	r25, 0x04	; 4
    2a1a:	4f d9       	rcall	.-3426   	; 0x1cba <LCD_puts>
	LCD_setCursorXY(3,10);
    2a1c:	6a e0       	ldi	r22, 0x0A	; 10
    2a1e:	83 e0       	ldi	r24, 0x03	; 3
    2a20:	83 d8       	rcall	.-3834   	; 0x1b28 <LCD_setCursorXY>
	LCD_puts ((uint8_t*)"Relais");
    2a22:	88 e0       	ldi	r24, 0x08	; 8
    2a24:	94 e0       	ldi	r25, 0x04	; 4
    2a26:	49 d9       	rcall	.-3438   	; 0x1cba <LCD_puts>
	LCD_setCursorXY(3,60);
    2a28:	6c e3       	ldi	r22, 0x3C	; 60
    2a2a:	83 e0       	ldi	r24, 0x03	; 3
    2a2c:	7d d8       	rcall	.-3846   	; 0x1b28 <LCD_setCursorXY>
	LCD_puts ((uint8_t*)"B: BACK");
    2a2e:	87 ea       	ldi	r24, 0xA7	; 167
    2a30:	93 e0       	ldi	r25, 0x03	; 3
    2a32:	43 d9       	rcall	.-3450   	; 0x1cba <LCD_puts>
	return ST_RELAIS;
}
    2a34:	82 e5       	ldi	r24, 0x52	; 82
    2a36:	08 95       	ret

00002a38 <Fct_analogique>:

char Fct_analogique(char input)
{
	sortie=3;
    2a38:	83 e0       	ldi	r24, 0x03	; 3
    2a3a:	80 93 92 09 	sts	0x0992, r24	; 0x800992 <sortie>
	LCD_clr();
    2a3e:	d3 d8       	rcall	.-3674   	; 0x1be6 <LCD_clr>
	LCD_setCursorXY(15,0);
    2a40:	60 e0       	ldi	r22, 0x00	; 0
    2a42:	8f e0       	ldi	r24, 0x0F	; 15
    2a44:	71 d8       	rcall	.-3870   	; 0x1b28 <LCD_setCursorXY>
	LCD_puts ((uint8_t*)"Sortie choisie:");
    2a46:	8c e1       	ldi	r24, 0x1C	; 28
    2a48:	94 e0       	ldi	r25, 0x04	; 4
    2a4a:	37 d9       	rcall	.-3474   	; 0x1cba <LCD_puts>
	LCD_setCursorXY(3,10);
    2a4c:	6a e0       	ldi	r22, 0x0A	; 10
    2a4e:	83 e0       	ldi	r24, 0x03	; 3
    2a50:	6b d8       	rcall	.-3882   	; 0x1b28 <LCD_setCursorXY>
	LCD_puts ((uint8_t*)"Analogique");
    2a52:	81 e1       	ldi	r24, 0x11	; 17
    2a54:	94 e0       	ldi	r25, 0x04	; 4
    2a56:	31 d9       	rcall	.-3486   	; 0x1cba <LCD_puts>
	LCD_setCursorXY(3,60);
    2a58:	6c e3       	ldi	r22, 0x3C	; 60
    2a5a:	83 e0       	ldi	r24, 0x03	; 3
    2a5c:	65 d8       	rcall	.-3894   	; 0x1b28 <LCD_setCursorXY>
	LCD_puts ((uint8_t*)"B: BACK");
    2a5e:	87 ea       	ldi	r24, 0xA7	; 167
    2a60:	93 e0       	ldi	r25, 0x03	; 3
    2a62:	2b d9       	rcall	.-3498   	; 0x1cba <LCD_puts>
	return ST_ANALOGIQUE;
}
    2a64:	84 e5       	ldi	r24, 0x54	; 84
    2a66:	08 95       	ret

00002a68 <Fct_alarme>:



char Fct_alarme(char input)
{
	LCD_clr();
    2a68:	be d8       	rcall	.-3716   	; 0x1be6 <LCD_clr>
	LCD_setCursorXY(45,0);
    2a6a:	60 e0       	ldi	r22, 0x00	; 0
    2a6c:	8d e2       	ldi	r24, 0x2D	; 45
    2a6e:	5c d8       	rcall	.-3912   	; 0x1b28 <LCD_setCursorXY>
	LCD_puts ((uint8_t*)"ALARME");
    2a70:	8c e2       	ldi	r24, 0x2C	; 44
    2a72:	94 e0       	ldi	r25, 0x04	; 4
    2a74:	22 d9       	rcall	.-3516   	; 0x1cba <LCD_puts>
	LCD_setCursorXY(3,10);
    2a76:	6a e0       	ldi	r22, 0x0A	; 10
    2a78:	83 e0       	ldi	r24, 0x03	; 3
    2a7a:	56 d8       	rcall	.-3924   	; 0x1b28 <LCD_setCursorXY>
	LCD_puts ((uint8_t*)"1.Valeur haute");
    2a7c:	83 e3       	ldi	r24, 0x33	; 51
    2a7e:	94 e0       	ldi	r25, 0x04	; 4
    2a80:	1c d9       	rcall	.-3528   	; 0x1cba <LCD_puts>
	LCD_setCursorXY(3,20);
    2a82:	64 e1       	ldi	r22, 0x14	; 20
    2a84:	83 e0       	ldi	r24, 0x03	; 3
    2a86:	50 d8       	rcall	.-3936   	; 0x1b28 <LCD_setCursorXY>
	LCD_puts ((uint8_t*)"2.Valeur basse");
    2a88:	82 e4       	ldi	r24, 0x42	; 66
    2a8a:	94 e0       	ldi	r25, 0x04	; 4
    2a8c:	16 d9       	rcall	.-3540   	; 0x1cba <LCD_puts>
	LCD_setCursorXY(3,30);
    2a8e:	6e e1       	ldi	r22, 0x1E	; 30
    2a90:	83 e0       	ldi	r24, 0x03	; 3
    2a92:	4a d8       	rcall	.-3948   	; 0x1b28 <LCD_setCursorXY>
	LCD_puts ((uint8_t*)"3.STOP");
    2a94:	81 e5       	ldi	r24, 0x51	; 81
    2a96:	94 e0       	ldi	r25, 0x04	; 4
    2a98:	10 d9       	rcall	.-3552   	; 0x1cba <LCD_puts>
	LCD_setCursorXY(3,60);
    2a9a:	6c e3       	ldi	r22, 0x3C	; 60
    2a9c:	83 e0       	ldi	r24, 0x03	; 3
    2a9e:	44 d8       	rcall	.-3960   	; 0x1b28 <LCD_setCursorXY>
	LCD_puts ((uint8_t*)" B : BACK");
    2aa0:	82 ed       	ldi	r24, 0xD2	; 210
    2aa2:	92 e0       	ldi	r25, 0x02	; 2
    2aa4:	0a d9       	rcall	.-3564   	; 0x1cba <LCD_puts>
	return ST_ALARM;
}
    2aa6:	81 e2       	ldi	r24, 0x21	; 33
    2aa8:	08 95       	ret

00002aaa <Fct_alarme_high>:

char Fct_alarme_high(char input)
{
    2aaa:	0f 93       	push	r16
    2aac:	1f 93       	push	r17
    2aae:	cf 93       	push	r28
    2ab0:	df 93       	push	r29
    2ab2:	cd b7       	in	r28, 0x3d	; 61
    2ab4:	de b7       	in	r29, 0x3e	; 62
    2ab6:	64 97       	sbiw	r28, 0x14	; 20
    2ab8:	0f b6       	in	r0, 0x3f	; 63
    2aba:	f8 94       	cli
    2abc:	de bf       	out	0x3e, r29	; 62
    2abe:	0f be       	out	0x3f, r0	; 63
    2ac0:	cd bf       	out	0x3d, r28	; 61
	EEPROM_read_alarme_high();
    2ac2:	0e 94 8c 04 	call	0x918	; 0x918 <EEPROM_read_alarme_high>
	char buffer[20];
	LCD_clr();
    2ac6:	8f d8       	rcall	.-3810   	; 0x1be6 <LCD_clr>
	LCD_setCursorXY(45,0);
    2ac8:	60 e0       	ldi	r22, 0x00	; 0
    2aca:	8d e2       	ldi	r24, 0x2D	; 45
    2acc:	2d d8       	rcall	.-4006   	; 0x1b28 <LCD_setCursorXY>
	LCD_puts ((uint8_t*)"SET High");
    2ace:	88 e5       	ldi	r24, 0x58	; 88
    2ad0:	94 e0       	ldi	r25, 0x04	; 4
    2ad2:	f3 d8       	rcall	.-3610   	; 0x1cba <LCD_puts>
	LCD_setCursorXY(0,20);
    2ad4:	64 e1       	ldi	r22, 0x14	; 20
    2ad6:	80 e0       	ldi	r24, 0x00	; 0
    2ad8:	27 d8       	rcall	.-4018   	; 0x1b28 <LCD_setCursorXY>
	itoa(alarme_high[0],buffer,10);
    2ada:	08 e6       	ldi	r16, 0x68	; 104
    2adc:	1a e0       	ldi	r17, 0x0A	; 10
    2ade:	f8 01       	movw	r30, r16
    2ae0:	80 81       	ld	r24, Z
    2ae2:	4a e0       	ldi	r20, 0x0A	; 10
    2ae4:	be 01       	movw	r22, r28
    2ae6:	6f 5f       	subi	r22, 0xFF	; 255
    2ae8:	7f 4f       	sbci	r23, 0xFF	; 255
    2aea:	90 e0       	ldi	r25, 0x00	; 0
    2aec:	0e 94 60 26 	call	0x4cc0	; 0x4cc0 <__itoa_ncheck>
	LCD_puts (buffer);
    2af0:	ce 01       	movw	r24, r28
    2af2:	01 96       	adiw	r24, 0x01	; 1
    2af4:	e2 d8       	rcall	.-3644   	; 0x1cba <LCD_puts>
	itoa(alarme_high[1],buffer,10);
    2af6:	f8 01       	movw	r30, r16
    2af8:	81 81       	ldd	r24, Z+1	; 0x01
    2afa:	4a e0       	ldi	r20, 0x0A	; 10
    2afc:	be 01       	movw	r22, r28
    2afe:	6f 5f       	subi	r22, 0xFF	; 255
    2b00:	7f 4f       	sbci	r23, 0xFF	; 255
    2b02:	90 e0       	ldi	r25, 0x00	; 0
    2b04:	0e 94 60 26 	call	0x4cc0	; 0x4cc0 <__itoa_ncheck>
	LCD_puts (buffer);
    2b08:	ce 01       	movw	r24, r28
    2b0a:	01 96       	adiw	r24, 0x01	; 1
    2b0c:	d6 d8       	rcall	.-3668   	; 0x1cba <LCD_puts>
	itoa(alarme_high[2],buffer,10);
    2b0e:	f8 01       	movw	r30, r16
    2b10:	82 81       	ldd	r24, Z+2	; 0x02
    2b12:	4a e0       	ldi	r20, 0x0A	; 10
    2b14:	be 01       	movw	r22, r28
    2b16:	6f 5f       	subi	r22, 0xFF	; 255
    2b18:	7f 4f       	sbci	r23, 0xFF	; 255
    2b1a:	90 e0       	ldi	r25, 0x00	; 0
    2b1c:	0e 94 60 26 	call	0x4cc0	; 0x4cc0 <__itoa_ncheck>
	LCD_puts (buffer);
    2b20:	ce 01       	movw	r24, r28
    2b22:	01 96       	adiw	r24, 0x01	; 1
    2b24:	ca d8       	rcall	.-3692   	; 0x1cba <LCD_puts>
	LCD_puts ((uint8_t*)"%");
    2b26:	8d ea       	ldi	r24, 0xAD	; 173
    2b28:	97 e0       	ldi	r25, 0x07	; 7
    2b2a:	c7 d8       	rcall	.-3698   	; 0x1cba <LCD_puts>
	LCD_setCursorXY(3,40);
    2b2c:	68 e2       	ldi	r22, 0x28	; 40
    2b2e:	83 e0       	ldi	r24, 0x03	; 3
    2b30:	0e 94 94 0d 	call	0x1b28	; 0x1b28 <LCD_setCursorXY>
	LCD_puts ((uint8_t*)" A : Reglage");
    2b34:	85 ec       	ldi	r24, 0xC5	; 197
    2b36:	92 e0       	ldi	r25, 0x02	; 2
    2b38:	c0 d8       	rcall	.-3712   	; 0x1cba <LCD_puts>
	LCD_setCursorXY(3,60);
    2b3a:	6c e3       	ldi	r22, 0x3C	; 60
    2b3c:	83 e0       	ldi	r24, 0x03	; 3
    2b3e:	0e 94 94 0d 	call	0x1b28	; 0x1b28 <LCD_setCursorXY>
	LCD_puts ((uint8_t*)" B : BACK");
    2b42:	82 ed       	ldi	r24, 0xD2	; 210
    2b44:	92 e0       	ldi	r25, 0x02	; 2
    2b46:	b9 d8       	rcall	.-3726   	; 0x1cba <LCD_puts>
	return ST_ALARME_HIGH;
}
    2b48:	86 e5       	ldi	r24, 0x56	; 86
    2b4a:	64 96       	adiw	r28, 0x14	; 20
    2b4c:	0f b6       	in	r0, 0x3f	; 63
    2b4e:	f8 94       	cli
    2b50:	de bf       	out	0x3e, r29	; 62
    2b52:	0f be       	out	0x3f, r0	; 63
    2b54:	cd bf       	out	0x3d, r28	; 61
    2b56:	df 91       	pop	r29
    2b58:	cf 91       	pop	r28
    2b5a:	1f 91       	pop	r17
    2b5c:	0f 91       	pop	r16
    2b5e:	08 95       	ret

00002b60 <Fct_alarme_high_change>:

char Fct_alarme_high_change(char input)
{
    2b60:	0f 93       	push	r16
    2b62:	1f 93       	push	r17
    2b64:	cf 93       	push	r28
    2b66:	df 93       	push	r29
    2b68:	cd b7       	in	r28, 0x3d	; 61
    2b6a:	de b7       	in	r29, 0x3e	; 62
    2b6c:	64 97       	sbiw	r28, 0x14	; 20
    2b6e:	0f b6       	in	r0, 0x3f	; 63
    2b70:	f8 94       	cli
    2b72:	de bf       	out	0x3e, r29	; 62
    2b74:	0f be       	out	0x3f, r0	; 63
    2b76:	cd bf       	out	0x3d, r28	; 61
	input=Previous_Button;
    2b78:	10 91 21 0b 	lds	r17, 0x0B21	; 0x800b21 <Previous_Button>
    2b7c:	4a e0       	ldi	r20, 0x0A	; 10
    2b7e:	be 01       	movw	r22, r28
    2b80:	6f 5f       	subi	r22, 0xFF	; 255
    2b82:	7f 4f       	sbci	r23, 0xFF	; 255
    2b84:	81 2f       	mov	r24, r17
    2b86:	90 e0       	ldi	r25, 0x00	; 0
    2b88:	0e 94 60 26 	call	0x4cc0	; 0x4cc0 <__itoa_ncheck>
	
	char buffer[20];
	itoa(input,buffer,10);
	Usart_Tx_String(buffer);
    2b8c:	ce 01       	movw	r24, r28
    2b8e:	01 96       	adiw	r24, 0x01	; 1
    2b90:	0e 94 36 26 	call	0x4c6c	; 0x4c6c <Usart_Tx_String>
	Usart_Tx_String("\n");
    2b94:	84 e4       	ldi	r24, 0x44	; 68
    2b96:	99 e0       	ldi	r25, 0x09	; 9
    2b98:	0e 94 36 26 	call	0x4c6c	; 0x4c6c <Usart_Tx_String>
	if(position!=0)
    2b9c:	e0 91 94 09 	lds	r30, 0x0994	; 0x800994 <position>
    2ba0:	ee 23       	and	r30, r30
    2ba2:	31 f0       	breq	.+12     	; 0x2bb0 <Fct_alarme_high_change+0x50>
	{
		alarme_high[position-1]=input-1;
    2ba4:	f0 e0       	ldi	r31, 0x00	; 0
    2ba6:	e9 59       	subi	r30, 0x99	; 153
    2ba8:	f5 4f       	sbci	r31, 0xF5	; 245
    2baa:	11 50       	subi	r17, 0x01	; 1
    2bac:	10 83       	st	Z, r17
    2bae:	08 c0       	rjmp	.+16     	; 0x2bc0 <Fct_alarme_high_change+0x60>
	}
	else IDCB_Clignotement_bp = OSEnregistrerCB_TIMER(clignotementbp,500);
    2bb0:	64 ef       	ldi	r22, 0xF4	; 244
    2bb2:	71 e0       	ldi	r23, 0x01	; 1
    2bb4:	8a ed       	ldi	r24, 0xDA	; 218
    2bb6:	9f e0       	ldi	r25, 0x0F	; 15
    2bb8:	0e 94 b1 23 	call	0x4762	; 0x4762 <OSEnregistrerCB_TIMER>
    2bbc:	80 93 1e 0b 	sts	0x0B1E, r24	; 0x800b1e <IDCB_Clignotement_bp>
	LCD_clr();
    2bc0:	12 d8       	rcall	.-4060   	; 0x1be6 <LCD_clr>
	LCD_setCursorXY(10,0);
    2bc2:	60 e0       	ldi	r22, 0x00	; 0
    2bc4:	8a e0       	ldi	r24, 0x0A	; 10
    2bc6:	0e 94 94 0d 	call	0x1b28	; 0x1b28 <LCD_setCursorXY>
	LCD_puts ((uint8_t*)"Alarm HIGH Value:");
    2bca:	81 e6       	ldi	r24, 0x61	; 97
    2bcc:	94 e0       	ldi	r25, 0x04	; 4
    2bce:	75 d8       	rcall	.-3862   	; 0x1cba <LCD_puts>
	LCD_setCursorXY(0,20);
    2bd0:	64 e1       	ldi	r22, 0x14	; 20
    2bd2:	80 e0       	ldi	r24, 0x00	; 0
    2bd4:	0e 94 94 0d 	call	0x1b28	; 0x1b28 <LCD_setCursorXY>
	itoa(alarme_high[0],buffer,10);
    2bd8:	08 e6       	ldi	r16, 0x68	; 104
    2bda:	1a e0       	ldi	r17, 0x0A	; 10
    2bdc:	f8 01       	movw	r30, r16
    2bde:	80 81       	ld	r24, Z
    2be0:	4a e0       	ldi	r20, 0x0A	; 10
    2be2:	be 01       	movw	r22, r28
    2be4:	6f 5f       	subi	r22, 0xFF	; 255
    2be6:	7f 4f       	sbci	r23, 0xFF	; 255
    2be8:	90 e0       	ldi	r25, 0x00	; 0
    2bea:	0e 94 60 26 	call	0x4cc0	; 0x4cc0 <__itoa_ncheck>
	LCD_puts (buffer);
    2bee:	ce 01       	movw	r24, r28
    2bf0:	01 96       	adiw	r24, 0x01	; 1
    2bf2:	63 d8       	rcall	.-3898   	; 0x1cba <LCD_puts>
	itoa(alarme_high[1],buffer,10);
    2bf4:	f8 01       	movw	r30, r16
    2bf6:	81 81       	ldd	r24, Z+1	; 0x01
    2bf8:	4a e0       	ldi	r20, 0x0A	; 10
    2bfa:	be 01       	movw	r22, r28
    2bfc:	6f 5f       	subi	r22, 0xFF	; 255
    2bfe:	7f 4f       	sbci	r23, 0xFF	; 255
    2c00:	90 e0       	ldi	r25, 0x00	; 0
    2c02:	0e 94 60 26 	call	0x4cc0	; 0x4cc0 <__itoa_ncheck>
	LCD_puts (buffer);
    2c06:	ce 01       	movw	r24, r28
    2c08:	01 96       	adiw	r24, 0x01	; 1
    2c0a:	57 d8       	rcall	.-3922   	; 0x1cba <LCD_puts>
	itoa(alarme_high[2],buffer,10);
    2c0c:	f8 01       	movw	r30, r16
    2c0e:	82 81       	ldd	r24, Z+2	; 0x02
    2c10:	4a e0       	ldi	r20, 0x0A	; 10
    2c12:	be 01       	movw	r22, r28
    2c14:	6f 5f       	subi	r22, 0xFF	; 255
    2c16:	7f 4f       	sbci	r23, 0xFF	; 255
    2c18:	90 e0       	ldi	r25, 0x00	; 0
    2c1a:	0e 94 60 26 	call	0x4cc0	; 0x4cc0 <__itoa_ncheck>
	LCD_puts (buffer);
    2c1e:	ce 01       	movw	r24, r28
    2c20:	01 96       	adiw	r24, 0x01	; 1
    2c22:	4b d8       	rcall	.-3946   	; 0x1cba <LCD_puts>
	LCD_puts ((uint8_t*)"%");
    2c24:	8d ea       	ldi	r24, 0xAD	; 173
    2c26:	97 e0       	ldi	r25, 0x07	; 7
    2c28:	48 d8       	rcall	.-3952   	; 0x1cba <LCD_puts>
	
	position++;
    2c2a:	80 91 94 09 	lds	r24, 0x0994	; 0x800994 <position>
    2c2e:	8f 5f       	subi	r24, 0xFF	; 255
	if(position==4)
    2c30:	84 30       	cpi	r24, 0x04	; 4
    2c32:	21 f0       	breq	.+8      	; 0x2c3c <Fct_alarme_high_change+0xdc>
	LCD_puts (buffer);
	itoa(alarme_high[2],buffer,10);
	LCD_puts (buffer);
	LCD_puts ((uint8_t*)"%");
	
	position++;
    2c34:	80 93 94 09 	sts	0x0994, r24	; 0x800994 <position>
		Usart_Tx_String("\n");
		
		OSRetirerCB_TIMER(IDCB_Clignotement_bp);
		return FCT_ALARME_HIGH;
	}
	else return ST_ALARME_HIGH_CHANGE;
    2c38:	8c e5       	ldi	r24, 0x5C	; 92
    2c3a:	3b c0       	rjmp	.+118    	; 0x2cb2 <Fct_alarme_high_change+0x152>
	LCD_puts ((uint8_t*)"%");
	
	position++;
	if(position==4)
	{
		position=0;
    2c3c:	10 92 94 09 	sts	0x0994, r1	; 0x800994 <position>
		EEPROM_save_alarme_high();
    2c40:	0e 94 2e 09 	call	0x125c	; 0x125c <EEPROM_save_alarme_high>
		alarme_high_int = (int)alarme_high[2]+(10*((int)alarme_high[1]))+(100*((int)alarme_high[0]));
    2c44:	e8 e6       	ldi	r30, 0x68	; 104
    2c46:	fa e0       	ldi	r31, 0x0A	; 10
    2c48:	42 81       	ldd	r20, Z+2	; 0x02
    2c4a:	21 81       	ldd	r18, Z+1	; 0x01
    2c4c:	30 e0       	ldi	r19, 0x00	; 0
    2c4e:	c9 01       	movw	r24, r18
    2c50:	88 0f       	add	r24, r24
    2c52:	99 1f       	adc	r25, r25
    2c54:	22 0f       	add	r18, r18
    2c56:	33 1f       	adc	r19, r19
    2c58:	22 0f       	add	r18, r18
    2c5a:	33 1f       	adc	r19, r19
    2c5c:	22 0f       	add	r18, r18
    2c5e:	33 1f       	adc	r19, r19
    2c60:	82 0f       	add	r24, r18
    2c62:	93 1f       	adc	r25, r19
    2c64:	84 0f       	add	r24, r20
    2c66:	91 1d       	adc	r25, r1
    2c68:	20 81       	ld	r18, Z
    2c6a:	f4 e6       	ldi	r31, 0x64	; 100
    2c6c:	2f 9f       	mul	r18, r31
    2c6e:	80 0d       	add	r24, r0
    2c70:	91 1d       	adc	r25, r1
    2c72:	11 24       	eor	r1, r1
    2c74:	90 93 8d 09 	sts	0x098D, r25	; 0x80098d <alarme_high_int+0x1>
    2c78:	80 93 8c 09 	sts	0x098C, r24	; 0x80098c <alarme_high_int>
    2c7c:	4a e0       	ldi	r20, 0x0A	; 10
    2c7e:	be 01       	movw	r22, r28
    2c80:	6f 5f       	subi	r22, 0xFF	; 255
    2c82:	7f 4f       	sbci	r23, 0xFF	; 255
    2c84:	0e 94 60 26 	call	0x4cc0	; 0x4cc0 <__itoa_ncheck>
		itoa(alarme_high_int,buffer,10);
		Usart_Tx_String("Alarm HIGH Value: ");
    2c88:	83 e7       	ldi	r24, 0x73	; 115
    2c8a:	94 e0       	ldi	r25, 0x04	; 4
    2c8c:	0e 94 36 26 	call	0x4c6c	; 0x4c6c <Usart_Tx_String>
		Usart_Tx_String(buffer);
    2c90:	ce 01       	movw	r24, r28
    2c92:	01 96       	adiw	r24, 0x01	; 1
    2c94:	0e 94 36 26 	call	0x4c6c	; 0x4c6c <Usart_Tx_String>
		Usart_Tx_String("%");
    2c98:	8d ea       	ldi	r24, 0xAD	; 173
    2c9a:	97 e0       	ldi	r25, 0x07	; 7
    2c9c:	0e 94 36 26 	call	0x4c6c	; 0x4c6c <Usart_Tx_String>
		Usart_Tx_String("\n");
    2ca0:	84 e4       	ldi	r24, 0x44	; 68
    2ca2:	99 e0       	ldi	r25, 0x09	; 9
    2ca4:	0e 94 36 26 	call	0x4c6c	; 0x4c6c <Usart_Tx_String>
		
		OSRetirerCB_TIMER(IDCB_Clignotement_bp);
    2ca8:	80 91 1e 0b 	lds	r24, 0x0B1E	; 0x800b1e <IDCB_Clignotement_bp>
    2cac:	0e 94 dd 23 	call	0x47ba	; 0x47ba <OSRetirerCB_TIMER>
		return FCT_ALARME_HIGH;
    2cb0:	87 e5       	ldi	r24, 0x57	; 87
	}
	else return ST_ALARME_HIGH_CHANGE;
	
	
}
    2cb2:	64 96       	adiw	r28, 0x14	; 20
    2cb4:	0f b6       	in	r0, 0x3f	; 63
    2cb6:	f8 94       	cli
    2cb8:	de bf       	out	0x3e, r29	; 62
    2cba:	0f be       	out	0x3f, r0	; 63
    2cbc:	cd bf       	out	0x3d, r28	; 61
    2cbe:	df 91       	pop	r29
    2cc0:	cf 91       	pop	r28
    2cc2:	1f 91       	pop	r17
    2cc4:	0f 91       	pop	r16
    2cc6:	08 95       	ret

00002cc8 <Fct_alarme_low>:


char Fct_alarme_low(char input)
{
    2cc8:	0f 93       	push	r16
    2cca:	1f 93       	push	r17
    2ccc:	cf 93       	push	r28
    2cce:	df 93       	push	r29
    2cd0:	cd b7       	in	r28, 0x3d	; 61
    2cd2:	de b7       	in	r29, 0x3e	; 62
    2cd4:	64 97       	sbiw	r28, 0x14	; 20
    2cd6:	0f b6       	in	r0, 0x3f	; 63
    2cd8:	f8 94       	cli
    2cda:	de bf       	out	0x3e, r29	; 62
    2cdc:	0f be       	out	0x3f, r0	; 63
    2cde:	cd bf       	out	0x3d, r28	; 61
	EEPROM_read_alarme_low();
    2ce0:	0e 94 9e 04 	call	0x93c	; 0x93c <EEPROM_read_alarme_low>
	char buffer[20];
	LCD_clr();
    2ce4:	0e 94 f3 0d 	call	0x1be6	; 0x1be6 <LCD_clr>
	LCD_setCursorXY(45,0);
    2ce8:	60 e0       	ldi	r22, 0x00	; 0
    2cea:	8d e2       	ldi	r24, 0x2D	; 45
    2cec:	0e 94 94 0d 	call	0x1b28	; 0x1b28 <LCD_setCursorXY>
	LCD_puts ((uint8_t*)"SET Low");
    2cf0:	86 e8       	ldi	r24, 0x86	; 134
    2cf2:	94 e0       	ldi	r25, 0x04	; 4
    2cf4:	0e 94 5d 0e 	call	0x1cba	; 0x1cba <LCD_puts>
	LCD_setCursorXY(0,20);
    2cf8:	64 e1       	ldi	r22, 0x14	; 20
    2cfa:	80 e0       	ldi	r24, 0x00	; 0
    2cfc:	0e 94 94 0d 	call	0x1b28	; 0x1b28 <LCD_setCursorXY>
	itoa(alarme_low[0],buffer,10);
    2d00:	05 e6       	ldi	r16, 0x65	; 101
    2d02:	1a e0       	ldi	r17, 0x0A	; 10
    2d04:	f8 01       	movw	r30, r16
    2d06:	80 81       	ld	r24, Z
    2d08:	4a e0       	ldi	r20, 0x0A	; 10
    2d0a:	be 01       	movw	r22, r28
    2d0c:	6f 5f       	subi	r22, 0xFF	; 255
    2d0e:	7f 4f       	sbci	r23, 0xFF	; 255
    2d10:	90 e0       	ldi	r25, 0x00	; 0
    2d12:	0e 94 60 26 	call	0x4cc0	; 0x4cc0 <__itoa_ncheck>
	LCD_puts (buffer);
    2d16:	ce 01       	movw	r24, r28
    2d18:	01 96       	adiw	r24, 0x01	; 1
    2d1a:	0e 94 5d 0e 	call	0x1cba	; 0x1cba <LCD_puts>
	itoa(alarme_low[1],buffer,10);
    2d1e:	f8 01       	movw	r30, r16
    2d20:	81 81       	ldd	r24, Z+1	; 0x01
    2d22:	4a e0       	ldi	r20, 0x0A	; 10
    2d24:	be 01       	movw	r22, r28
    2d26:	6f 5f       	subi	r22, 0xFF	; 255
    2d28:	7f 4f       	sbci	r23, 0xFF	; 255
    2d2a:	90 e0       	ldi	r25, 0x00	; 0
    2d2c:	0e 94 60 26 	call	0x4cc0	; 0x4cc0 <__itoa_ncheck>
	LCD_puts (buffer);
    2d30:	ce 01       	movw	r24, r28
    2d32:	01 96       	adiw	r24, 0x01	; 1
    2d34:	0e 94 5d 0e 	call	0x1cba	; 0x1cba <LCD_puts>
	itoa(alarme_low[2],buffer,10);
    2d38:	f8 01       	movw	r30, r16
    2d3a:	82 81       	ldd	r24, Z+2	; 0x02
    2d3c:	4a e0       	ldi	r20, 0x0A	; 10
    2d3e:	be 01       	movw	r22, r28
    2d40:	6f 5f       	subi	r22, 0xFF	; 255
    2d42:	7f 4f       	sbci	r23, 0xFF	; 255
    2d44:	90 e0       	ldi	r25, 0x00	; 0
    2d46:	0e 94 60 26 	call	0x4cc0	; 0x4cc0 <__itoa_ncheck>
	LCD_puts (buffer);
    2d4a:	ce 01       	movw	r24, r28
    2d4c:	01 96       	adiw	r24, 0x01	; 1
    2d4e:	0e 94 5d 0e 	call	0x1cba	; 0x1cba <LCD_puts>
	LCD_puts ((uint8_t*)"%");
    2d52:	8d ea       	ldi	r24, 0xAD	; 173
    2d54:	97 e0       	ldi	r25, 0x07	; 7
    2d56:	0e 94 5d 0e 	call	0x1cba	; 0x1cba <LCD_puts>
	LCD_setCursorXY(3,40);
    2d5a:	68 e2       	ldi	r22, 0x28	; 40
    2d5c:	83 e0       	ldi	r24, 0x03	; 3
    2d5e:	0e 94 94 0d 	call	0x1b28	; 0x1b28 <LCD_setCursorXY>
	LCD_puts ((uint8_t*)" A : Reglage");
    2d62:	85 ec       	ldi	r24, 0xC5	; 197
    2d64:	92 e0       	ldi	r25, 0x02	; 2
    2d66:	0e 94 5d 0e 	call	0x1cba	; 0x1cba <LCD_puts>
	LCD_setCursorXY(3,60);
    2d6a:	6c e3       	ldi	r22, 0x3C	; 60
    2d6c:	83 e0       	ldi	r24, 0x03	; 3
    2d6e:	0e 94 94 0d 	call	0x1b28	; 0x1b28 <LCD_setCursorXY>
	LCD_puts ((uint8_t*)" B : BACK");
    2d72:	82 ed       	ldi	r24, 0xD2	; 210
    2d74:	92 e0       	ldi	r25, 0x02	; 2
    2d76:	0e 94 5d 0e 	call	0x1cba	; 0x1cba <LCD_puts>
	return ST_ALARME_LOW;
}
    2d7a:	88 e5       	ldi	r24, 0x58	; 88
    2d7c:	64 96       	adiw	r28, 0x14	; 20
    2d7e:	0f b6       	in	r0, 0x3f	; 63
    2d80:	f8 94       	cli
    2d82:	de bf       	out	0x3e, r29	; 62
    2d84:	0f be       	out	0x3f, r0	; 63
    2d86:	cd bf       	out	0x3d, r28	; 61
    2d88:	df 91       	pop	r29
    2d8a:	cf 91       	pop	r28
    2d8c:	1f 91       	pop	r17
    2d8e:	0f 91       	pop	r16
    2d90:	08 95       	ret

00002d92 <Fct_alarme_low_change>:


char Fct_alarme_low_change(char input)
{
    2d92:	0f 93       	push	r16
    2d94:	1f 93       	push	r17
    2d96:	cf 93       	push	r28
    2d98:	df 93       	push	r29
    2d9a:	cd b7       	in	r28, 0x3d	; 61
    2d9c:	de b7       	in	r29, 0x3e	; 62
    2d9e:	64 97       	sbiw	r28, 0x14	; 20
    2da0:	0f b6       	in	r0, 0x3f	; 63
    2da2:	f8 94       	cli
    2da4:	de bf       	out	0x3e, r29	; 62
    2da6:	0f be       	out	0x3f, r0	; 63
    2da8:	cd bf       	out	0x3d, r28	; 61
	input=Previous_Button;
    2daa:	10 91 21 0b 	lds	r17, 0x0B21	; 0x800b21 <Previous_Button>
    2dae:	4a e0       	ldi	r20, 0x0A	; 10
    2db0:	be 01       	movw	r22, r28
    2db2:	6f 5f       	subi	r22, 0xFF	; 255
    2db4:	7f 4f       	sbci	r23, 0xFF	; 255
    2db6:	81 2f       	mov	r24, r17
    2db8:	90 e0       	ldi	r25, 0x00	; 0
    2dba:	0e 94 60 26 	call	0x4cc0	; 0x4cc0 <__itoa_ncheck>
	
	char buffer[20];
	itoa(input,buffer,10);
	Usart_Tx_String(buffer);
    2dbe:	ce 01       	movw	r24, r28
    2dc0:	01 96       	adiw	r24, 0x01	; 1
    2dc2:	0e 94 36 26 	call	0x4c6c	; 0x4c6c <Usart_Tx_String>
	Usart_Tx_String("\n");
    2dc6:	84 e4       	ldi	r24, 0x44	; 68
    2dc8:	99 e0       	ldi	r25, 0x09	; 9
    2dca:	0e 94 36 26 	call	0x4c6c	; 0x4c6c <Usart_Tx_String>
	if(position!=0)
    2dce:	e0 91 94 09 	lds	r30, 0x0994	; 0x800994 <position>
    2dd2:	ee 23       	and	r30, r30
    2dd4:	31 f0       	breq	.+12     	; 0x2de2 <Fct_alarme_low_change+0x50>
	{
		alarme_low[position-1]=input-1;
    2dd6:	f0 e0       	ldi	r31, 0x00	; 0
    2dd8:	ec 59       	subi	r30, 0x9C	; 156
    2dda:	f5 4f       	sbci	r31, 0xF5	; 245
    2ddc:	11 50       	subi	r17, 0x01	; 1
    2dde:	10 83       	st	Z, r17
    2de0:	08 c0       	rjmp	.+16     	; 0x2df2 <Fct_alarme_low_change+0x60>
	}
	else IDCB_Clignotement_bp = OSEnregistrerCB_TIMER(clignotementbp,500);
    2de2:	64 ef       	ldi	r22, 0xF4	; 244
    2de4:	71 e0       	ldi	r23, 0x01	; 1
    2de6:	8a ed       	ldi	r24, 0xDA	; 218
    2de8:	9f e0       	ldi	r25, 0x0F	; 15
    2dea:	0e 94 b1 23 	call	0x4762	; 0x4762 <OSEnregistrerCB_TIMER>
    2dee:	80 93 1e 0b 	sts	0x0B1E, r24	; 0x800b1e <IDCB_Clignotement_bp>
	LCD_clr();
    2df2:	0e 94 f3 0d 	call	0x1be6	; 0x1be6 <LCD_clr>
	LCD_setCursorXY(10,0);
    2df6:	60 e0       	ldi	r22, 0x00	; 0
    2df8:	8a e0       	ldi	r24, 0x0A	; 10
    2dfa:	0e 94 94 0d 	call	0x1b28	; 0x1b28 <LCD_setCursorXY>
	LCD_puts ((uint8_t*)"Alarm LOW Value:");
    2dfe:	8e e8       	ldi	r24, 0x8E	; 142
    2e00:	94 e0       	ldi	r25, 0x04	; 4
    2e02:	0e 94 5d 0e 	call	0x1cba	; 0x1cba <LCD_puts>
	LCD_setCursorXY(0,20);
    2e06:	64 e1       	ldi	r22, 0x14	; 20
    2e08:	80 e0       	ldi	r24, 0x00	; 0
    2e0a:	0e 94 94 0d 	call	0x1b28	; 0x1b28 <LCD_setCursorXY>
	itoa(alarme_low[0],buffer,10);
    2e0e:	05 e6       	ldi	r16, 0x65	; 101
    2e10:	1a e0       	ldi	r17, 0x0A	; 10
    2e12:	f8 01       	movw	r30, r16
    2e14:	80 81       	ld	r24, Z
    2e16:	4a e0       	ldi	r20, 0x0A	; 10
    2e18:	be 01       	movw	r22, r28
    2e1a:	6f 5f       	subi	r22, 0xFF	; 255
    2e1c:	7f 4f       	sbci	r23, 0xFF	; 255
    2e1e:	90 e0       	ldi	r25, 0x00	; 0
    2e20:	0e 94 60 26 	call	0x4cc0	; 0x4cc0 <__itoa_ncheck>
	LCD_puts (buffer);
    2e24:	ce 01       	movw	r24, r28
    2e26:	01 96       	adiw	r24, 0x01	; 1
    2e28:	0e 94 5d 0e 	call	0x1cba	; 0x1cba <LCD_puts>
	itoa(alarme_low[1],buffer,10);
    2e2c:	f8 01       	movw	r30, r16
    2e2e:	81 81       	ldd	r24, Z+1	; 0x01
    2e30:	4a e0       	ldi	r20, 0x0A	; 10
    2e32:	be 01       	movw	r22, r28
    2e34:	6f 5f       	subi	r22, 0xFF	; 255
    2e36:	7f 4f       	sbci	r23, 0xFF	; 255
    2e38:	90 e0       	ldi	r25, 0x00	; 0
    2e3a:	0e 94 60 26 	call	0x4cc0	; 0x4cc0 <__itoa_ncheck>
	LCD_puts (buffer);
    2e3e:	ce 01       	movw	r24, r28
    2e40:	01 96       	adiw	r24, 0x01	; 1
    2e42:	0e 94 5d 0e 	call	0x1cba	; 0x1cba <LCD_puts>
	itoa(alarme_low[2],buffer,10);
    2e46:	f8 01       	movw	r30, r16
    2e48:	82 81       	ldd	r24, Z+2	; 0x02
    2e4a:	4a e0       	ldi	r20, 0x0A	; 10
    2e4c:	be 01       	movw	r22, r28
    2e4e:	6f 5f       	subi	r22, 0xFF	; 255
    2e50:	7f 4f       	sbci	r23, 0xFF	; 255
    2e52:	90 e0       	ldi	r25, 0x00	; 0
    2e54:	0e 94 60 26 	call	0x4cc0	; 0x4cc0 <__itoa_ncheck>
	LCD_puts (buffer);
    2e58:	ce 01       	movw	r24, r28
    2e5a:	01 96       	adiw	r24, 0x01	; 1
    2e5c:	0e 94 5d 0e 	call	0x1cba	; 0x1cba <LCD_puts>
	LCD_puts ((uint8_t*)"%");
    2e60:	8d ea       	ldi	r24, 0xAD	; 173
    2e62:	97 e0       	ldi	r25, 0x07	; 7
    2e64:	0e 94 5d 0e 	call	0x1cba	; 0x1cba <LCD_puts>
	
	position++;
    2e68:	80 91 94 09 	lds	r24, 0x0994	; 0x800994 <position>
    2e6c:	8f 5f       	subi	r24, 0xFF	; 255
	if(position==4)
    2e6e:	84 30       	cpi	r24, 0x04	; 4
    2e70:	21 f0       	breq	.+8      	; 0x2e7a <Fct_alarme_low_change+0xe8>
	LCD_puts (buffer);
	itoa(alarme_low[2],buffer,10);
	LCD_puts (buffer);
	LCD_puts ((uint8_t*)"%");
	
	position++;
    2e72:	80 93 94 09 	sts	0x0994, r24	; 0x800994 <position>
		Usart_Tx_String("\n");
		
		OSRetirerCB_TIMER(IDCB_Clignotement_bp);
		return FCT_ALARME_LOW;
	}
	else return ST_ALARME_LOW_CHANGE;
    2e76:	8e e5       	ldi	r24, 0x5E	; 94
    2e78:	3b c0       	rjmp	.+118    	; 0x2ef0 <Fct_alarme_low_change+0x15e>
	LCD_puts ((uint8_t*)"%");
	
	position++;
	if(position==4)
	{
		position=0;
    2e7a:	10 92 94 09 	sts	0x0994, r1	; 0x800994 <position>
		EEPROM_save_alarme_low();
    2e7e:	0e 94 40 09 	call	0x1280	; 0x1280 <EEPROM_save_alarme_low>
		alarme_low_int = (int)alarme_low[2]+(10*((int)alarme_low[1]))+(100*((int)alarme_low[0]));
    2e82:	e5 e6       	ldi	r30, 0x65	; 101
    2e84:	fa e0       	ldi	r31, 0x0A	; 10
    2e86:	42 81       	ldd	r20, Z+2	; 0x02
    2e88:	21 81       	ldd	r18, Z+1	; 0x01
    2e8a:	30 e0       	ldi	r19, 0x00	; 0
    2e8c:	c9 01       	movw	r24, r18
    2e8e:	88 0f       	add	r24, r24
    2e90:	99 1f       	adc	r25, r25
    2e92:	22 0f       	add	r18, r18
    2e94:	33 1f       	adc	r19, r19
    2e96:	22 0f       	add	r18, r18
    2e98:	33 1f       	adc	r19, r19
    2e9a:	22 0f       	add	r18, r18
    2e9c:	33 1f       	adc	r19, r19
    2e9e:	82 0f       	add	r24, r18
    2ea0:	93 1f       	adc	r25, r19
    2ea2:	84 0f       	add	r24, r20
    2ea4:	91 1d       	adc	r25, r1
    2ea6:	20 81       	ld	r18, Z
    2ea8:	f4 e6       	ldi	r31, 0x64	; 100
    2eaa:	2f 9f       	mul	r18, r31
    2eac:	80 0d       	add	r24, r0
    2eae:	91 1d       	adc	r25, r1
    2eb0:	11 24       	eor	r1, r1
    2eb2:	90 93 8b 09 	sts	0x098B, r25	; 0x80098b <alarme_low_int+0x1>
    2eb6:	80 93 8a 09 	sts	0x098A, r24	; 0x80098a <alarme_low_int>
    2eba:	4a e0       	ldi	r20, 0x0A	; 10
    2ebc:	be 01       	movw	r22, r28
    2ebe:	6f 5f       	subi	r22, 0xFF	; 255
    2ec0:	7f 4f       	sbci	r23, 0xFF	; 255
    2ec2:	0e 94 60 26 	call	0x4cc0	; 0x4cc0 <__itoa_ncheck>
		itoa(alarme_low_int,buffer,10);
		Usart_Tx_String("Valeur alarme basse: ");
    2ec6:	8f e9       	ldi	r24, 0x9F	; 159
    2ec8:	94 e0       	ldi	r25, 0x04	; 4
    2eca:	0e 94 36 26 	call	0x4c6c	; 0x4c6c <Usart_Tx_String>
		Usart_Tx_String(buffer);
    2ece:	ce 01       	movw	r24, r28
    2ed0:	01 96       	adiw	r24, 0x01	; 1
    2ed2:	0e 94 36 26 	call	0x4c6c	; 0x4c6c <Usart_Tx_String>
		Usart_Tx_String("%");
    2ed6:	8d ea       	ldi	r24, 0xAD	; 173
    2ed8:	97 e0       	ldi	r25, 0x07	; 7
    2eda:	0e 94 36 26 	call	0x4c6c	; 0x4c6c <Usart_Tx_String>
		Usart_Tx_String("\n");
    2ede:	84 e4       	ldi	r24, 0x44	; 68
    2ee0:	99 e0       	ldi	r25, 0x09	; 9
    2ee2:	0e 94 36 26 	call	0x4c6c	; 0x4c6c <Usart_Tx_String>
		
		OSRetirerCB_TIMER(IDCB_Clignotement_bp);
    2ee6:	80 91 1e 0b 	lds	r24, 0x0B1E	; 0x800b1e <IDCB_Clignotement_bp>
    2eea:	0e 94 dd 23 	call	0x47ba	; 0x47ba <OSRetirerCB_TIMER>
		return FCT_ALARME_LOW;
    2eee:	89 e5       	ldi	r24, 0x59	; 89
	}
	else return ST_ALARME_LOW_CHANGE;
	
	
}
    2ef0:	64 96       	adiw	r28, 0x14	; 20
    2ef2:	0f b6       	in	r0, 0x3f	; 63
    2ef4:	f8 94       	cli
    2ef6:	de bf       	out	0x3e, r29	; 62
    2ef8:	0f be       	out	0x3f, r0	; 63
    2efa:	cd bf       	out	0x3d, r28	; 61
    2efc:	df 91       	pop	r29
    2efe:	cf 91       	pop	r28
    2f00:	1f 91       	pop	r17
    2f02:	0f 91       	pop	r16
    2f04:	08 95       	ret

00002f06 <Fct_alarme_stop>:


char Fct_alarme_stop(char input)
{
	LCD_clr();
    2f06:	0e 94 f3 0d 	call	0x1be6	; 0x1be6 <LCD_clr>
	LCD_setCursorXY(45,0);
    2f0a:	60 e0       	ldi	r22, 0x00	; 0
    2f0c:	8d e2       	ldi	r24, 0x2D	; 45
    2f0e:	0e 94 94 0d 	call	0x1b28	; 0x1b28 <LCD_setCursorXY>
	LCD_puts ((uint8_t*)"ALARME:");
    2f12:	85 eb       	ldi	r24, 0xB5	; 181
    2f14:	94 e0       	ldi	r25, 0x04	; 4
    2f16:	0e 94 5d 0e 	call	0x1cba	; 0x1cba <LCD_puts>
	LCD_setCursorXY(3,20);
    2f1a:	64 e1       	ldi	r22, 0x14	; 20
    2f1c:	83 e0       	ldi	r24, 0x03	; 3
    2f1e:	0e 94 94 0d 	call	0x1b28	; 0x1b28 <LCD_setCursorXY>
	LCD_puts ((uint8_t*)" Arretee");
    2f22:	8d eb       	ldi	r24, 0xBD	; 189
    2f24:	94 e0       	ldi	r25, 0x04	; 4
    2f26:	0e 94 5d 0e 	call	0x1cba	; 0x1cba <LCD_puts>
	LCD_setCursorXY(3,60);
    2f2a:	6c e3       	ldi	r22, 0x3C	; 60
    2f2c:	83 e0       	ldi	r24, 0x03	; 3
    2f2e:	0e 94 94 0d 	call	0x1b28	; 0x1b28 <LCD_setCursorXY>
	LCD_puts ((uint8_t*)" B : BACK");
    2f32:	82 ed       	ldi	r24, 0xD2	; 210
    2f34:	92 e0       	ldi	r25, 0x02	; 2
    2f36:	0e 94 5d 0e 	call	0x1cba	; 0x1cba <LCD_puts>
	return ST_ALARME_STOP;
}
    2f3a:	8a e5       	ldi	r24, 0x5A	; 90
    2f3c:	08 95       	ret

00002f3e <Fct_reg_settings>:


char Fct_reg_settings(char input)
{
	EEPROM_read_recurrence_a();
    2f3e:	0e 94 46 05 	call	0xa8c	; 0xa8c <EEPROM_read_recurrence_a>
	LCD_clr();
    2f42:	0e 94 f3 0d 	call	0x1be6	; 0x1be6 <LCD_clr>
	LCD_setCursorXY(10,0);
    2f46:	60 e0       	ldi	r22, 0x00	; 0
    2f48:	8a e0       	ldi	r24, 0x0A	; 10
    2f4a:	0e 94 94 0d 	call	0x1b28	; 0x1b28 <LCD_setCursorXY>
	LCD_puts ((uint8_t*)"REGLAGE REGULATEUR");
    2f4e:	86 ec       	ldi	r24, 0xC6	; 198
    2f50:	94 e0       	ldi	r25, 0x04	; 4
    2f52:	0e 94 5d 0e 	call	0x1cba	; 0x1cba <LCD_puts>
	LCD_setCursorXY(3,10);
    2f56:	6a e0       	ldi	r22, 0x0A	; 10
    2f58:	83 e0       	ldi	r24, 0x03	; 3
    2f5a:	0e 94 94 0d 	call	0x1b28	; 0x1b28 <LCD_setCursorXY>
	LCD_puts ((uint8_t*)"1.Recurrence");
    2f5e:	89 ed       	ldi	r24, 0xD9	; 217
    2f60:	94 e0       	ldi	r25, 0x04	; 4
    2f62:	0e 94 5d 0e 	call	0x1cba	; 0x1cba <LCD_puts>
	LCD_setCursorXY(3,20);
    2f66:	64 e1       	ldi	r22, 0x14	; 20
    2f68:	83 e0       	ldi	r24, 0x03	; 3
    2f6a:	0e 94 94 0d 	call	0x1b28	; 0x1b28 <LCD_setCursorXY>
	LCD_puts ((uint8_t*)"2.PID");
    2f6e:	86 ee       	ldi	r24, 0xE6	; 230
    2f70:	94 e0       	ldi	r25, 0x04	; 4
    2f72:	0e 94 5d 0e 	call	0x1cba	; 0x1cba <LCD_puts>
	LCD_setCursorXY(3,30);
    2f76:	6e e1       	ldi	r22, 0x1E	; 30
    2f78:	83 e0       	ldi	r24, 0x03	; 3
    2f7a:	0e 94 94 0d 	call	0x1b28	; 0x1b28 <LCD_setCursorXY>
	LCD_puts ((uint8_t*)"3.Hysteresis");
    2f7e:	8c ee       	ldi	r24, 0xEC	; 236
    2f80:	94 e0       	ldi	r25, 0x04	; 4
    2f82:	0e 94 5d 0e 	call	0x1cba	; 0x1cba <LCD_puts>
	LCD_setCursorXY(3,60);
    2f86:	6c e3       	ldi	r22, 0x3C	; 60
    2f88:	83 e0       	ldi	r24, 0x03	; 3
    2f8a:	0e 94 94 0d 	call	0x1b28	; 0x1b28 <LCD_setCursorXY>
	LCD_puts ((uint8_t*)" B : BACK");
    2f8e:	82 ed       	ldi	r24, 0xD2	; 210
    2f90:	92 e0       	ldi	r25, 0x02	; 2
    2f92:	0e 94 5d 0e 	call	0x1cba	; 0x1cba <LCD_puts>
	return ST_REG_SETTINGS;
}
    2f96:	83 e2       	ldi	r24, 0x23	; 35
    2f98:	08 95       	ret

00002f9a <Fct_recurrence>:

char Fct_recurrence(char input)
{
	EEPROM_read_recurrence_b();
    2f9a:	0e 94 b0 06 	call	0xd60	; 0xd60 <EEPROM_read_recurrence_b>
	LCD_clr();
    2f9e:	0e 94 f3 0d 	call	0x1be6	; 0x1be6 <LCD_clr>
	LCD_setCursorXY(35,0);
    2fa2:	60 e0       	ldi	r22, 0x00	; 0
    2fa4:	83 e2       	ldi	r24, 0x23	; 35
    2fa6:	0e 94 94 0d 	call	0x1b28	; 0x1b28 <LCD_setCursorXY>
	LCD_puts ((uint8_t*)"RECURRENCE");
    2faa:	89 ef       	ldi	r24, 0xF9	; 249
    2fac:	94 e0       	ldi	r25, 0x04	; 4
    2fae:	0e 94 5d 0e 	call	0x1cba	; 0x1cba <LCD_puts>
	LCD_setCursorXY(0,10);
    2fb2:	6a e0       	ldi	r22, 0x0A	; 10
    2fb4:	80 e0       	ldi	r24, 0x00	; 0
    2fb6:	0e 94 94 0d 	call	0x1b28	; 0x1b28 <LCD_setCursorXY>
	LCD_puts ((uint8_t*)" 1 : Reglage A USART");
    2fba:	84 e0       	ldi	r24, 0x04	; 4
    2fbc:	95 e0       	ldi	r25, 0x05	; 5
    2fbe:	0e 94 5d 0e 	call	0x1cba	; 0x1cba <LCD_puts>
	LCD_setCursorXY(0,20);
    2fc2:	64 e1       	ldi	r22, 0x14	; 20
    2fc4:	80 e0       	ldi	r24, 0x00	; 0
    2fc6:	0e 94 94 0d 	call	0x1b28	; 0x1b28 <LCD_setCursorXY>
	LCD_puts ((uint8_t*)" 2 : Reglage B USART");
    2fca:	89 e1       	ldi	r24, 0x19	; 25
    2fcc:	95 e0       	ldi	r25, 0x05	; 5
    2fce:	0e 94 5d 0e 	call	0x1cba	; 0x1cba <LCD_puts>
	LCD_setCursorXY(3,60);
    2fd2:	6c e3       	ldi	r22, 0x3C	; 60
    2fd4:	83 e0       	ldi	r24, 0x03	; 3
    2fd6:	0e 94 94 0d 	call	0x1b28	; 0x1b28 <LCD_setCursorXY>
	LCD_puts ((uint8_t*)" B : BACK");
    2fda:	82 ed       	ldi	r24, 0xD2	; 210
    2fdc:	92 e0       	ldi	r25, 0x02	; 2
    2fde:	0e 94 5d 0e 	call	0x1cba	; 0x1cba <LCD_puts>
	Usart_Tx_String("\nParamtres A actuels : \n");
    2fe2:	8e e2       	ldi	r24, 0x2E	; 46
    2fe4:	95 e0       	ldi	r25, 0x05	; 5
    2fe6:	0e 94 36 26 	call	0x4c6c	; 0x4c6c <Usart_Tx_String>
	Usart_Tx_String(recurrence_a);
    2fea:	80 ef       	ldi	r24, 0xF0	; 240
    2fec:	99 e0       	ldi	r25, 0x09	; 9
    2fee:	0e 94 36 26 	call	0x4c6c	; 0x4c6c <Usart_Tx_String>
	Usart_Tx_String("\nParamtres B actuels : \n");
    2ff2:	88 e4       	ldi	r24, 0x48	; 72
    2ff4:	95 e0       	ldi	r25, 0x05	; 5
    2ff6:	0e 94 36 26 	call	0x4c6c	; 0x4c6c <Usart_Tx_String>
	Usart_Tx_String(recurrence_b);
    2ffa:	86 e9       	ldi	r24, 0x96	; 150
    2ffc:	99 e0       	ldi	r25, 0x09	; 9
    2ffe:	0e 94 36 26 	call	0x4c6c	; 0x4c6c <Usart_Tx_String>
	Usart_Tx_String("\nPour modifier les coefficients A, appuyer sur 1, puis entrer les paramtres sous la forme:\n");
    3002:	82 e6       	ldi	r24, 0x62	; 98
    3004:	95 e0       	ldi	r25, 0x05	; 5
    3006:	0e 94 36 26 	call	0x4c6c	; 0x4c6c <Usart_Tx_String>
	Usart_Tx_String("00.00000,00.00000,00.00000,00.00000,00.00000,00.00000,00.00000,00.00000,00.00000,00.00000\n");
    300a:	8f eb       	ldi	r24, 0xBF	; 191
    300c:	95 e0       	ldi	r25, 0x05	; 5
    300e:	0e 94 36 26 	call	0x4c6c	; 0x4c6c <Usart_Tx_String>
	Usart_Tx_String("correspondant aux paramtres: a0,a1,a2,a3,a4,a5,a6,a7,a8,a9\n");
    3012:	8a e1       	ldi	r24, 0x1A	; 26
    3014:	96 e0       	ldi	r25, 0x06	; 6
    3016:	0e 94 36 26 	call	0x4c6c	; 0x4c6c <Usart_Tx_String>
	Usart_Tx_String("\nPour modifier les coefficients B, appuyer sur , puis entrer les paramtres sous la forme:\n");
    301a:	87 e5       	ldi	r24, 0x57	; 87
    301c:	96 e0       	ldi	r25, 0x06	; 6
    301e:	0e 94 36 26 	call	0x4c6c	; 0x4c6c <Usart_Tx_String>
	Usart_Tx_String("00.00000,00.00000,00.00000,00.00000,00.00000,00.00000,00.00000,00.00000,00.00000,00.00000\n");
    3022:	8f eb       	ldi	r24, 0xBF	; 191
    3024:	95 e0       	ldi	r25, 0x05	; 5
    3026:	0e 94 36 26 	call	0x4c6c	; 0x4c6c <Usart_Tx_String>
	Usart_Tx_String("correspondant aux paramtres: b0,b1,b2,b3,b4,b5,b6,b8,b9\n");
    302a:	83 eb       	ldi	r24, 0xB3	; 179
    302c:	96 e0       	ldi	r25, 0x06	; 6
    302e:	0e 94 36 26 	call	0x4c6c	; 0x4c6c <Usart_Tx_String>
	
	return ST_RECURRENCE;
	
}
    3032:	80 e3       	ldi	r24, 0x30	; 48
    3034:	08 95       	ret

00003036 <Fct_recurrence_change_a>:

char Fct_recurrence_change_a(char input)
{
	static unsigned char First = TRUE;
	if(First)
    3036:	80 91 01 01 	lds	r24, 0x0101	; 0x800101 <First.2669>
    303a:	88 23       	and	r24, r24
    303c:	c1 f0       	breq	.+48     	; 0x306e <Fct_recurrence_change_a+0x38>
	{
		Usart_Tx_String("Introduiser les paramtres:\n");
    303e:	8d ee       	ldi	r24, 0xED	; 237
    3040:	96 e0       	ldi	r25, 0x06	; 6
    3042:	0e 94 36 26 	call	0x4c6c	; 0x4c6c <Usart_Tx_String>
		LCD_clr();
    3046:	0e 94 f3 0d 	call	0x1be6	; 0x1be6 <LCD_clr>
		LCD_setCursorXY(35,0);
    304a:	60 e0       	ldi	r22, 0x00	; 0
    304c:	83 e2       	ldi	r24, 0x23	; 35
    304e:	0e 94 94 0d 	call	0x1b28	; 0x1b28 <LCD_setCursorXY>
		LCD_puts ((uint8_t*)"RECURRENCE");
    3052:	89 ef       	ldi	r24, 0xF9	; 249
    3054:	94 e0       	ldi	r25, 0x04	; 4
    3056:	0e 94 5d 0e 	call	0x1cba	; 0x1cba <LCD_puts>
		LCD_setCursorXY(0,10);
    305a:	6a e0       	ldi	r22, 0x0A	; 10
    305c:	80 e0       	ldi	r24, 0x00	; 0
    305e:	0e 94 94 0d 	call	0x1b28	; 0x1b28 <LCD_setCursorXY>
		LCD_puts ((uint8_t*)"Introduisez A's usart");
    3062:	8a e0       	ldi	r24, 0x0A	; 10
    3064:	97 e0       	ldi	r25, 0x07	; 7
    3066:	0e 94 5d 0e 	call	0x1cba	; 0x1cba <LCD_puts>
		First=FALSE;
    306a:	10 92 01 01 	sts	0x0101, r1	; 0x800101 <First.2669>
	}
	if(USARTReception)
    306e:	80 91 b2 0b 	lds	r24, 0x0BB2	; 0x800bb2 <USARTReception>
    3072:	88 23       	and	r24, r24
    3074:	99 f0       	breq	.+38     	; 0x309c <Fct_recurrence_change_a+0x66>
	{
		strcpy(recurrence_a,bufRS232);
    3076:	6c e4       	ldi	r22, 0x4C	; 76
    3078:	7b e0       	ldi	r23, 0x0B	; 11
    307a:	80 ef       	ldi	r24, 0xF0	; 240
    307c:	99 e0       	ldi	r25, 0x09	; 9
    307e:	0e 94 59 26 	call	0x4cb2	; 0x4cb2 <strcpy>
		EEPROM_save_recurrence_a();
    3082:	0e 94 e8 09 	call	0x13d0	; 0x13d0 <EEPROM_save_recurrence_a>
		Usart_Tx_String("Paramtres enregistrs !\n");
    3086:	80 e2       	ldi	r24, 0x20	; 32
    3088:	97 e0       	ldi	r25, 0x07	; 7
    308a:	0e 94 36 26 	call	0x4c6c	; 0x4c6c <Usart_Tx_String>
		USARTReception=FALSE;
    308e:	10 92 b2 0b 	sts	0x0BB2, r1	; 0x800bb2 <USARTReception>
		First=TRUE;
    3092:	81 e0       	ldi	r24, 0x01	; 1
    3094:	80 93 01 01 	sts	0x0101, r24	; 0x800101 <First.2669>
		return FCT_RECURRENCE;
    3098:	81 e3       	ldi	r24, 0x31	; 49
    309a:	08 95       	ret
	}
	else
	{
		return FCT_RECURRENCE_CHANGE_A;
    309c:	8f e6       	ldi	r24, 0x6F	; 111
	}
}
    309e:	08 95       	ret

000030a0 <Fct_recurrence_change_b>:

char Fct_recurrence_change_b(char input)
{
	static unsigned char First = TRUE;
	if(First)
    30a0:	80 91 00 01 	lds	r24, 0x0100	; 0x800100 <__data_start>
    30a4:	88 23       	and	r24, r24
    30a6:	c1 f0       	breq	.+48     	; 0x30d8 <Fct_recurrence_change_b+0x38>
	{
		Usart_Tx_String("Introduiser les paramtres:\n");
    30a8:	8d ee       	ldi	r24, 0xED	; 237
    30aa:	96 e0       	ldi	r25, 0x06	; 6
    30ac:	0e 94 36 26 	call	0x4c6c	; 0x4c6c <Usart_Tx_String>
		LCD_clr();
    30b0:	0e 94 f3 0d 	call	0x1be6	; 0x1be6 <LCD_clr>
		LCD_setCursorXY(35,0);
    30b4:	60 e0       	ldi	r22, 0x00	; 0
    30b6:	83 e2       	ldi	r24, 0x23	; 35
    30b8:	0e 94 94 0d 	call	0x1b28	; 0x1b28 <LCD_setCursorXY>
		LCD_puts ((uint8_t*)"RECURRENCE");
    30bc:	89 ef       	ldi	r24, 0xF9	; 249
    30be:	94 e0       	ldi	r25, 0x04	; 4
    30c0:	0e 94 5d 0e 	call	0x1cba	; 0x1cba <LCD_puts>
		LCD_setCursorXY(0,10);
    30c4:	6a e0       	ldi	r22, 0x0A	; 10
    30c6:	80 e0       	ldi	r24, 0x00	; 0
    30c8:	0e 94 94 0d 	call	0x1b28	; 0x1b28 <LCD_setCursorXY>
		LCD_puts ((uint8_t*)"Introduisez B's usart");
    30cc:	8a e3       	ldi	r24, 0x3A	; 58
    30ce:	97 e0       	ldi	r25, 0x07	; 7
    30d0:	0e 94 5d 0e 	call	0x1cba	; 0x1cba <LCD_puts>
		First=FALSE;
    30d4:	10 92 00 01 	sts	0x0100, r1	; 0x800100 <__data_start>
	}
	if(USARTReception)
    30d8:	80 91 b2 0b 	lds	r24, 0x0BB2	; 0x800bb2 <USARTReception>
    30dc:	88 23       	and	r24, r24
    30de:	99 f0       	breq	.+38     	; 0x3106 <Fct_recurrence_change_b+0x66>
	{
		strcpy(recurrence_b,bufRS232);
    30e0:	6c e4       	ldi	r22, 0x4C	; 76
    30e2:	7b e0       	ldi	r23, 0x0B	; 11
    30e4:	86 e9       	ldi	r24, 0x96	; 150
    30e6:	99 e0       	ldi	r25, 0x09	; 9
    30e8:	0e 94 59 26 	call	0x4cb2	; 0x4cb2 <strcpy>
		EEPROM_save_recurrence_b();
    30ec:	0e 94 52 0b 	call	0x16a4	; 0x16a4 <EEPROM_save_recurrence_b>
		Usart_Tx_String("Paramtres enregistrs !\n");
    30f0:	80 e2       	ldi	r24, 0x20	; 32
    30f2:	97 e0       	ldi	r25, 0x07	; 7
    30f4:	0e 94 36 26 	call	0x4c6c	; 0x4c6c <Usart_Tx_String>
		USARTReception=FALSE;
    30f8:	10 92 b2 0b 	sts	0x0BB2, r1	; 0x800bb2 <USARTReception>
		First=TRUE;
    30fc:	81 e0       	ldi	r24, 0x01	; 1
    30fe:	80 93 00 01 	sts	0x0100, r24	; 0x800100 <__data_start>
		return FCT_RECURRENCE;
    3102:	81 e3       	ldi	r24, 0x31	; 49
    3104:	08 95       	ret
	}
	else
	{
		return FCT_RECURRENCE_CHANGE_B;
    3106:	81 e7       	ldi	r24, 0x71	; 113
	}
}
    3108:	08 95       	ret

0000310a <Fct_pid>:

char Fct_pid(char input)
{
	LCD_clr();
    310a:	0e 94 f3 0d 	call	0x1be6	; 0x1be6 <LCD_clr>
	LCD_setCursorXY(15,0);
    310e:	60 e0       	ldi	r22, 0x00	; 0
    3110:	8f e0       	ldi	r24, 0x0F	; 15
    3112:	0e 94 94 0d 	call	0x1b28	; 0x1b28 <LCD_setCursorXY>
	LCD_puts ((uint8_t*)"PID PARAMETERS");
    3116:	80 e5       	ldi	r24, 0x50	; 80
    3118:	97 e0       	ldi	r25, 0x07	; 7
    311a:	0e 94 5d 0e 	call	0x1cba	; 0x1cba <LCD_puts>
	LCD_setCursorXY(0,10);
    311e:	6a e0       	ldi	r22, 0x0A	; 10
    3120:	80 e0       	ldi	r24, 0x00	; 0
    3122:	0e 94 94 0d 	call	0x1b28	; 0x1b28 <LCD_setCursorXY>
	LCD_puts ((uint8_t*)"1.BP\n");
    3126:	8f e5       	ldi	r24, 0x5F	; 95
    3128:	97 e0       	ldi	r25, 0x07	; 7
    312a:	0e 94 5d 0e 	call	0x1cba	; 0x1cba <LCD_puts>
	LCD_puts ((uint8_t*)"2.Ti\n");
    312e:	85 e6       	ldi	r24, 0x65	; 101
    3130:	97 e0       	ldi	r25, 0x07	; 7
    3132:	0e 94 5d 0e 	call	0x1cba	; 0x1cba <LCD_puts>
	LCD_puts ((uint8_t*)"3.Td\n");
    3136:	8b e6       	ldi	r24, 0x6B	; 107
    3138:	97 e0       	ldi	r25, 0x07	; 7
    313a:	0e 94 5d 0e 	call	0x1cba	; 0x1cba <LCD_puts>
	LCD_puts ((uint8_t*)"4.Te\n");
    313e:	81 e7       	ldi	r24, 0x71	; 113
    3140:	97 e0       	ldi	r25, 0x07	; 7
    3142:	0e 94 5d 0e 	call	0x1cba	; 0x1cba <LCD_puts>
	LCD_puts ((uint8_t*)"5.OUT0\n");
    3146:	87 e7       	ldi	r24, 0x77	; 119
    3148:	97 e0       	ldi	r25, 0x07	; 7
    314a:	0e 94 5d 0e 	call	0x1cba	; 0x1cba <LCD_puts>
	LCD_setCursorXY(3,60);
    314e:	6c e3       	ldi	r22, 0x3C	; 60
    3150:	83 e0       	ldi	r24, 0x03	; 3
    3152:	0e 94 94 0d 	call	0x1b28	; 0x1b28 <LCD_setCursorXY>
	LCD_puts ((uint8_t*)" B : BACK");
    3156:	82 ed       	ldi	r24, 0xD2	; 210
    3158:	92 e0       	ldi	r25, 0x02	; 2
    315a:	0e 94 5d 0e 	call	0x1cba	; 0x1cba <LCD_puts>
	return ST_PID;
}
    315e:	82 e3       	ldi	r24, 0x32	; 50
    3160:	08 95       	ret

00003162 <Fct_pid_bp>:

char Fct_pid_bp(char input)
{
    3162:	0f 93       	push	r16
    3164:	1f 93       	push	r17
    3166:	cf 93       	push	r28
    3168:	df 93       	push	r29
    316a:	cd b7       	in	r28, 0x3d	; 61
    316c:	de b7       	in	r29, 0x3e	; 62
    316e:	64 97       	sbiw	r28, 0x14	; 20
    3170:	0f b6       	in	r0, 0x3f	; 63
    3172:	f8 94       	cli
    3174:	de bf       	out	0x3e, r29	; 62
    3176:	0f be       	out	0x3f, r0	; 63
    3178:	cd bf       	out	0x3d, r28	; 61
	EEPROM_read_bp();
    317a:	0e 94 d4 04 	call	0x9a8	; 0x9a8 <EEPROM_read_bp>
	char buffer[20];
	LCD_clr();
    317e:	0e 94 f3 0d 	call	0x1be6	; 0x1be6 <LCD_clr>
	LCD_setCursorXY(2,0);
    3182:	60 e0       	ldi	r22, 0x00	; 0
    3184:	82 e0       	ldi	r24, 0x02	; 2
    3186:	0e 94 94 0d 	call	0x1b28	; 0x1b28 <LCD_setCursorXY>
	LCD_puts ((uint8_t*)"Bande Proportionnelle");
    318a:	8f e7       	ldi	r24, 0x7F	; 127
    318c:	97 e0       	ldi	r25, 0x07	; 7
    318e:	0e 94 5d 0e 	call	0x1cba	; 0x1cba <LCD_puts>
	LCD_setCursorXY(0,20);
    3192:	64 e1       	ldi	r22, 0x14	; 20
    3194:	80 e0       	ldi	r24, 0x00	; 0
    3196:	0e 94 94 0d 	call	0x1b28	; 0x1b28 <LCD_setCursorXY>
	itoa(bp[0],buffer,10);
    319a:	02 e6       	ldi	r16, 0x62	; 98
    319c:	1a e0       	ldi	r17, 0x0A	; 10
    319e:	f8 01       	movw	r30, r16
    31a0:	80 81       	ld	r24, Z
    31a2:	4a e0       	ldi	r20, 0x0A	; 10
    31a4:	be 01       	movw	r22, r28
    31a6:	6f 5f       	subi	r22, 0xFF	; 255
    31a8:	7f 4f       	sbci	r23, 0xFF	; 255
    31aa:	90 e0       	ldi	r25, 0x00	; 0
    31ac:	0e 94 60 26 	call	0x4cc0	; 0x4cc0 <__itoa_ncheck>
	LCD_puts (buffer);
    31b0:	ce 01       	movw	r24, r28
    31b2:	01 96       	adiw	r24, 0x01	; 1
    31b4:	0e 94 5d 0e 	call	0x1cba	; 0x1cba <LCD_puts>
	itoa(bp[1],buffer,10);
    31b8:	f8 01       	movw	r30, r16
    31ba:	81 81       	ldd	r24, Z+1	; 0x01
    31bc:	4a e0       	ldi	r20, 0x0A	; 10
    31be:	be 01       	movw	r22, r28
    31c0:	6f 5f       	subi	r22, 0xFF	; 255
    31c2:	7f 4f       	sbci	r23, 0xFF	; 255
    31c4:	90 e0       	ldi	r25, 0x00	; 0
    31c6:	0e 94 60 26 	call	0x4cc0	; 0x4cc0 <__itoa_ncheck>
	LCD_puts (buffer);
    31ca:	ce 01       	movw	r24, r28
    31cc:	01 96       	adiw	r24, 0x01	; 1
    31ce:	0e 94 5d 0e 	call	0x1cba	; 0x1cba <LCD_puts>
	itoa(bp[2],buffer,10);
    31d2:	f8 01       	movw	r30, r16
    31d4:	82 81       	ldd	r24, Z+2	; 0x02
    31d6:	4a e0       	ldi	r20, 0x0A	; 10
    31d8:	be 01       	movw	r22, r28
    31da:	6f 5f       	subi	r22, 0xFF	; 255
    31dc:	7f 4f       	sbci	r23, 0xFF	; 255
    31de:	90 e0       	ldi	r25, 0x00	; 0
    31e0:	0e 94 60 26 	call	0x4cc0	; 0x4cc0 <__itoa_ncheck>
	LCD_puts (buffer);
    31e4:	ce 01       	movw	r24, r28
    31e6:	01 96       	adiw	r24, 0x01	; 1
    31e8:	0e 94 5d 0e 	call	0x1cba	; 0x1cba <LCD_puts>
	LCD_puts ((uint8_t*)"%");
    31ec:	8d ea       	ldi	r24, 0xAD	; 173
    31ee:	97 e0       	ldi	r25, 0x07	; 7
    31f0:	0e 94 5d 0e 	call	0x1cba	; 0x1cba <LCD_puts>
	LCD_setCursorXY(3,40);
    31f4:	68 e2       	ldi	r22, 0x28	; 40
    31f6:	83 e0       	ldi	r24, 0x03	; 3
    31f8:	0e 94 94 0d 	call	0x1b28	; 0x1b28 <LCD_setCursorXY>
	LCD_puts ((uint8_t*)" A : Reglage");
    31fc:	85 ec       	ldi	r24, 0xC5	; 197
    31fe:	92 e0       	ldi	r25, 0x02	; 2
    3200:	0e 94 5d 0e 	call	0x1cba	; 0x1cba <LCD_puts>
	LCD_setCursorXY(3,60);
    3204:	6c e3       	ldi	r22, 0x3C	; 60
    3206:	83 e0       	ldi	r24, 0x03	; 3
    3208:	0e 94 94 0d 	call	0x1b28	; 0x1b28 <LCD_setCursorXY>
	LCD_puts ((uint8_t*)" B : BACK");	
    320c:	82 ed       	ldi	r24, 0xD2	; 210
    320e:	92 e0       	ldi	r25, 0x02	; 2
    3210:	0e 94 5d 0e 	call	0x1cba	; 0x1cba <LCD_puts>
	return ST_PID_BP;
}
    3214:	8c e3       	ldi	r24, 0x3C	; 60
    3216:	64 96       	adiw	r28, 0x14	; 20
    3218:	0f b6       	in	r0, 0x3f	; 63
    321a:	f8 94       	cli
    321c:	de bf       	out	0x3e, r29	; 62
    321e:	0f be       	out	0x3f, r0	; 63
    3220:	cd bf       	out	0x3d, r28	; 61
    3222:	df 91       	pop	r29
    3224:	cf 91       	pop	r28
    3226:	1f 91       	pop	r17
    3228:	0f 91       	pop	r16
    322a:	08 95       	ret

0000322c <Fct_pid_bp_change>:

char Fct_pid_bp_change(char input)
{
    322c:	0f 93       	push	r16
    322e:	1f 93       	push	r17
    3230:	cf 93       	push	r28
    3232:	df 93       	push	r29
    3234:	cd b7       	in	r28, 0x3d	; 61
    3236:	de b7       	in	r29, 0x3e	; 62
    3238:	64 97       	sbiw	r28, 0x14	; 20
    323a:	0f b6       	in	r0, 0x3f	; 63
    323c:	f8 94       	cli
    323e:	de bf       	out	0x3e, r29	; 62
    3240:	0f be       	out	0x3f, r0	; 63
    3242:	cd bf       	out	0x3d, r28	; 61
	input=Previous_Button;
    3244:	10 91 21 0b 	lds	r17, 0x0B21	; 0x800b21 <Previous_Button>
    3248:	4a e0       	ldi	r20, 0x0A	; 10
    324a:	be 01       	movw	r22, r28
    324c:	6f 5f       	subi	r22, 0xFF	; 255
    324e:	7f 4f       	sbci	r23, 0xFF	; 255
    3250:	81 2f       	mov	r24, r17
    3252:	90 e0       	ldi	r25, 0x00	; 0
    3254:	0e 94 60 26 	call	0x4cc0	; 0x4cc0 <__itoa_ncheck>
	
	char buffer[20];
	itoa(input,buffer,10);
	Usart_Tx_String(buffer);
    3258:	ce 01       	movw	r24, r28
    325a:	01 96       	adiw	r24, 0x01	; 1
    325c:	0e 94 36 26 	call	0x4c6c	; 0x4c6c <Usart_Tx_String>
	Usart_Tx_String("\n");
    3260:	84 e4       	ldi	r24, 0x44	; 68
    3262:	99 e0       	ldi	r25, 0x09	; 9
    3264:	0e 94 36 26 	call	0x4c6c	; 0x4c6c <Usart_Tx_String>
	if(position!=0)
    3268:	e0 91 94 09 	lds	r30, 0x0994	; 0x800994 <position>
    326c:	ee 23       	and	r30, r30
    326e:	31 f0       	breq	.+12     	; 0x327c <Fct_pid_bp_change+0x50>
	{
		bp[position-1]=input-1;
    3270:	f0 e0       	ldi	r31, 0x00	; 0
    3272:	ef 59       	subi	r30, 0x9F	; 159
    3274:	f5 4f       	sbci	r31, 0xF5	; 245
    3276:	11 50       	subi	r17, 0x01	; 1
    3278:	10 83       	st	Z, r17
    327a:	08 c0       	rjmp	.+16     	; 0x328c <Fct_pid_bp_change+0x60>
	}
	else IDCB_Clignotement_bp = OSEnregistrerCB_TIMER(clignotementbp,500);
    327c:	64 ef       	ldi	r22, 0xF4	; 244
    327e:	71 e0       	ldi	r23, 0x01	; 1
    3280:	8a ed       	ldi	r24, 0xDA	; 218
    3282:	9f e0       	ldi	r25, 0x0F	; 15
    3284:	0e 94 b1 23 	call	0x4762	; 0x4762 <OSEnregistrerCB_TIMER>
    3288:	80 93 1e 0b 	sts	0x0B1E, r24	; 0x800b1e <IDCB_Clignotement_bp>
	LCD_clr();
    328c:	0e 94 f3 0d 	call	0x1be6	; 0x1be6 <LCD_clr>
	LCD_setCursorXY(2,0);
    3290:	60 e0       	ldi	r22, 0x00	; 0
    3292:	82 e0       	ldi	r24, 0x02	; 2
    3294:	0e 94 94 0d 	call	0x1b28	; 0x1b28 <LCD_setCursorXY>
	LCD_puts ((uint8_t*)"Bande Proportionnelle:");
    3298:	85 e9       	ldi	r24, 0x95	; 149
    329a:	97 e0       	ldi	r25, 0x07	; 7
    329c:	0e 94 5d 0e 	call	0x1cba	; 0x1cba <LCD_puts>
	LCD_setCursorXY(0,20);
    32a0:	64 e1       	ldi	r22, 0x14	; 20
    32a2:	80 e0       	ldi	r24, 0x00	; 0
    32a4:	0e 94 94 0d 	call	0x1b28	; 0x1b28 <LCD_setCursorXY>
	itoa(bp[0],buffer,10);
    32a8:	02 e6       	ldi	r16, 0x62	; 98
    32aa:	1a e0       	ldi	r17, 0x0A	; 10
    32ac:	f8 01       	movw	r30, r16
    32ae:	80 81       	ld	r24, Z
    32b0:	4a e0       	ldi	r20, 0x0A	; 10
    32b2:	be 01       	movw	r22, r28
    32b4:	6f 5f       	subi	r22, 0xFF	; 255
    32b6:	7f 4f       	sbci	r23, 0xFF	; 255
    32b8:	90 e0       	ldi	r25, 0x00	; 0
    32ba:	0e 94 60 26 	call	0x4cc0	; 0x4cc0 <__itoa_ncheck>
	LCD_puts (buffer);
    32be:	ce 01       	movw	r24, r28
    32c0:	01 96       	adiw	r24, 0x01	; 1
    32c2:	0e 94 5d 0e 	call	0x1cba	; 0x1cba <LCD_puts>
	itoa(bp[1],buffer,10);
    32c6:	f8 01       	movw	r30, r16
    32c8:	81 81       	ldd	r24, Z+1	; 0x01
    32ca:	4a e0       	ldi	r20, 0x0A	; 10
    32cc:	be 01       	movw	r22, r28
    32ce:	6f 5f       	subi	r22, 0xFF	; 255
    32d0:	7f 4f       	sbci	r23, 0xFF	; 255
    32d2:	90 e0       	ldi	r25, 0x00	; 0
    32d4:	0e 94 60 26 	call	0x4cc0	; 0x4cc0 <__itoa_ncheck>
	LCD_puts (buffer);
    32d8:	ce 01       	movw	r24, r28
    32da:	01 96       	adiw	r24, 0x01	; 1
    32dc:	0e 94 5d 0e 	call	0x1cba	; 0x1cba <LCD_puts>
	itoa(bp[2],buffer,10);
    32e0:	f8 01       	movw	r30, r16
    32e2:	82 81       	ldd	r24, Z+2	; 0x02
    32e4:	4a e0       	ldi	r20, 0x0A	; 10
    32e6:	be 01       	movw	r22, r28
    32e8:	6f 5f       	subi	r22, 0xFF	; 255
    32ea:	7f 4f       	sbci	r23, 0xFF	; 255
    32ec:	90 e0       	ldi	r25, 0x00	; 0
    32ee:	0e 94 60 26 	call	0x4cc0	; 0x4cc0 <__itoa_ncheck>
	LCD_puts (buffer);
    32f2:	ce 01       	movw	r24, r28
    32f4:	01 96       	adiw	r24, 0x01	; 1
    32f6:	0e 94 5d 0e 	call	0x1cba	; 0x1cba <LCD_puts>
	LCD_puts ((uint8_t*)"%");
    32fa:	8d ea       	ldi	r24, 0xAD	; 173
    32fc:	97 e0       	ldi	r25, 0x07	; 7
    32fe:	0e 94 5d 0e 	call	0x1cba	; 0x1cba <LCD_puts>
	
	position++;
    3302:	80 91 94 09 	lds	r24, 0x0994	; 0x800994 <position>
    3306:	8f 5f       	subi	r24, 0xFF	; 255
	if(position==4)
    3308:	84 30       	cpi	r24, 0x04	; 4
    330a:	21 f0       	breq	.+8      	; 0x3314 <Fct_pid_bp_change+0xe8>
	LCD_puts (buffer);
	itoa(bp[2],buffer,10);
	LCD_puts (buffer);
	LCD_puts ((uint8_t*)"%");
	
	position++;
    330c:	80 93 94 09 	sts	0x0994, r24	; 0x800994 <position>
		Usart_Tx_String("\n");
		
		OSRetirerCB_TIMER(IDCB_Clignotement_bp);
		return FCT_PID_BP;
	}
	else return ST_PID_BP_CHANGE;
    3310:	80 e6       	ldi	r24, 0x60	; 96
    3312:	3b c0       	rjmp	.+118    	; 0x338a <Fct_pid_bp_change+0x15e>
	LCD_puts ((uint8_t*)"%");
	
	position++;
	if(position==4)
	{
		position=0;
    3314:	10 92 94 09 	sts	0x0994, r1	; 0x800994 <position>
		EEPROM_save_bp();
    3318:	0e 94 76 09 	call	0x12ec	; 0x12ec <EEPROM_save_bp>
		bp_int = (int)bp[2]+(10*((int)bp[1]))+(100*((int)bp[0]));
    331c:	e2 e6       	ldi	r30, 0x62	; 98
    331e:	fa e0       	ldi	r31, 0x0A	; 10
    3320:	42 81       	ldd	r20, Z+2	; 0x02
    3322:	21 81       	ldd	r18, Z+1	; 0x01
    3324:	30 e0       	ldi	r19, 0x00	; 0
    3326:	c9 01       	movw	r24, r18
    3328:	88 0f       	add	r24, r24
    332a:	99 1f       	adc	r25, r25
    332c:	22 0f       	add	r18, r18
    332e:	33 1f       	adc	r19, r19
    3330:	22 0f       	add	r18, r18
    3332:	33 1f       	adc	r19, r19
    3334:	22 0f       	add	r18, r18
    3336:	33 1f       	adc	r19, r19
    3338:	82 0f       	add	r24, r18
    333a:	93 1f       	adc	r25, r19
    333c:	84 0f       	add	r24, r20
    333e:	91 1d       	adc	r25, r1
    3340:	20 81       	ld	r18, Z
    3342:	f4 e6       	ldi	r31, 0x64	; 100
    3344:	2f 9f       	mul	r18, r31
    3346:	80 0d       	add	r24, r0
    3348:	91 1d       	adc	r25, r1
    334a:	11 24       	eor	r1, r1
    334c:	90 93 89 09 	sts	0x0989, r25	; 0x800989 <bp_int+0x1>
    3350:	80 93 88 09 	sts	0x0988, r24	; 0x800988 <bp_int>
    3354:	4a e0       	ldi	r20, 0x0A	; 10
    3356:	be 01       	movw	r22, r28
    3358:	6f 5f       	subi	r22, 0xFF	; 255
    335a:	7f 4f       	sbci	r23, 0xFF	; 255
    335c:	0e 94 60 26 	call	0x4cc0	; 0x4cc0 <__itoa_ncheck>
		itoa(bp_int,buffer,10);
		Usart_Tx_String("Bande Proportionnelle:");
    3360:	85 e9       	ldi	r24, 0x95	; 149
    3362:	97 e0       	ldi	r25, 0x07	; 7
    3364:	0e 94 36 26 	call	0x4c6c	; 0x4c6c <Usart_Tx_String>
		Usart_Tx_String(buffer);
    3368:	ce 01       	movw	r24, r28
    336a:	01 96       	adiw	r24, 0x01	; 1
    336c:	0e 94 36 26 	call	0x4c6c	; 0x4c6c <Usart_Tx_String>
		Usart_Tx_String(" %");
    3370:	8c ea       	ldi	r24, 0xAC	; 172
    3372:	97 e0       	ldi	r25, 0x07	; 7
    3374:	0e 94 36 26 	call	0x4c6c	; 0x4c6c <Usart_Tx_String>
		Usart_Tx_String("\n");
    3378:	84 e4       	ldi	r24, 0x44	; 68
    337a:	99 e0       	ldi	r25, 0x09	; 9
    337c:	0e 94 36 26 	call	0x4c6c	; 0x4c6c <Usart_Tx_String>
		
		OSRetirerCB_TIMER(IDCB_Clignotement_bp);
    3380:	80 91 1e 0b 	lds	r24, 0x0B1E	; 0x800b1e <IDCB_Clignotement_bp>
    3384:	0e 94 dd 23 	call	0x47ba	; 0x47ba <OSRetirerCB_TIMER>
		return FCT_PID_BP;
    3388:	8d e3       	ldi	r24, 0x3D	; 61
	}
	else return ST_PID_BP_CHANGE;
	
	
}
    338a:	64 96       	adiw	r28, 0x14	; 20
    338c:	0f b6       	in	r0, 0x3f	; 63
    338e:	f8 94       	cli
    3390:	de bf       	out	0x3e, r29	; 62
    3392:	0f be       	out	0x3f, r0	; 63
    3394:	cd bf       	out	0x3d, r28	; 61
    3396:	df 91       	pop	r29
    3398:	cf 91       	pop	r28
    339a:	1f 91       	pop	r17
    339c:	0f 91       	pop	r16
    339e:	08 95       	ret

000033a0 <Fct_pid_ti>:



char Fct_pid_ti(char input)
{
    33a0:	0f 93       	push	r16
    33a2:	1f 93       	push	r17
    33a4:	cf 93       	push	r28
    33a6:	df 93       	push	r29
    33a8:	cd b7       	in	r28, 0x3d	; 61
    33aa:	de b7       	in	r29, 0x3e	; 62
    33ac:	64 97       	sbiw	r28, 0x14	; 20
    33ae:	0f b6       	in	r0, 0x3f	; 63
    33b0:	f8 94       	cli
    33b2:	de bf       	out	0x3e, r29	; 62
    33b4:	0f be       	out	0x3f, r0	; 63
    33b6:	cd bf       	out	0x3d, r28	; 61
	EEPROM_read_ti();
    33b8:	0e 94 e6 04 	call	0x9cc	; 0x9cc <EEPROM_read_ti>
	char buffer[20];
	LCD_clr();
    33bc:	0e 94 f3 0d 	call	0x1be6	; 0x1be6 <LCD_clr>
	LCD_setCursorXY(2,0);
    33c0:	60 e0       	ldi	r22, 0x00	; 0
    33c2:	82 e0       	ldi	r24, 0x02	; 2
    33c4:	0e 94 94 0d 	call	0x1b28	; 0x1b28 <LCD_setCursorXY>
	LCD_puts ((uint8_t*)"Constante integration");
    33c8:	8f ea       	ldi	r24, 0xAF	; 175
    33ca:	97 e0       	ldi	r25, 0x07	; 7
    33cc:	0e 94 5d 0e 	call	0x1cba	; 0x1cba <LCD_puts>
	LCD_setCursorXY(0,20);
    33d0:	64 e1       	ldi	r22, 0x14	; 20
    33d2:	80 e0       	ldi	r24, 0x00	; 0
    33d4:	0e 94 94 0d 	call	0x1b28	; 0x1b28 <LCD_setCursorXY>
	itoa(ti[0],buffer,10);
    33d8:	0d e5       	ldi	r16, 0x5D	; 93
    33da:	1a e0       	ldi	r17, 0x0A	; 10
    33dc:	f8 01       	movw	r30, r16
    33de:	80 81       	ld	r24, Z
    33e0:	4a e0       	ldi	r20, 0x0A	; 10
    33e2:	be 01       	movw	r22, r28
    33e4:	6f 5f       	subi	r22, 0xFF	; 255
    33e6:	7f 4f       	sbci	r23, 0xFF	; 255
    33e8:	90 e0       	ldi	r25, 0x00	; 0
    33ea:	0e 94 60 26 	call	0x4cc0	; 0x4cc0 <__itoa_ncheck>
	LCD_puts (buffer);
    33ee:	ce 01       	movw	r24, r28
    33f0:	01 96       	adiw	r24, 0x01	; 1
    33f2:	0e 94 5d 0e 	call	0x1cba	; 0x1cba <LCD_puts>
	itoa(ti[1],buffer,10);
    33f6:	f8 01       	movw	r30, r16
    33f8:	81 81       	ldd	r24, Z+1	; 0x01
    33fa:	4a e0       	ldi	r20, 0x0A	; 10
    33fc:	be 01       	movw	r22, r28
    33fe:	6f 5f       	subi	r22, 0xFF	; 255
    3400:	7f 4f       	sbci	r23, 0xFF	; 255
    3402:	90 e0       	ldi	r25, 0x00	; 0
    3404:	0e 94 60 26 	call	0x4cc0	; 0x4cc0 <__itoa_ncheck>
	LCD_puts (buffer);
    3408:	ce 01       	movw	r24, r28
    340a:	01 96       	adiw	r24, 0x01	; 1
    340c:	0e 94 5d 0e 	call	0x1cba	; 0x1cba <LCD_puts>
	itoa(ti[2],buffer,10);
    3410:	f8 01       	movw	r30, r16
    3412:	82 81       	ldd	r24, Z+2	; 0x02
    3414:	4a e0       	ldi	r20, 0x0A	; 10
    3416:	be 01       	movw	r22, r28
    3418:	6f 5f       	subi	r22, 0xFF	; 255
    341a:	7f 4f       	sbci	r23, 0xFF	; 255
    341c:	90 e0       	ldi	r25, 0x00	; 0
    341e:	0e 94 60 26 	call	0x4cc0	; 0x4cc0 <__itoa_ncheck>
	LCD_puts (buffer);
    3422:	ce 01       	movw	r24, r28
    3424:	01 96       	adiw	r24, 0x01	; 1
    3426:	0e 94 5d 0e 	call	0x1cba	; 0x1cba <LCD_puts>
	itoa(ti[3],buffer,10);
    342a:	f8 01       	movw	r30, r16
    342c:	83 81       	ldd	r24, Z+3	; 0x03
    342e:	4a e0       	ldi	r20, 0x0A	; 10
    3430:	be 01       	movw	r22, r28
    3432:	6f 5f       	subi	r22, 0xFF	; 255
    3434:	7f 4f       	sbci	r23, 0xFF	; 255
    3436:	90 e0       	ldi	r25, 0x00	; 0
    3438:	0e 94 60 26 	call	0x4cc0	; 0x4cc0 <__itoa_ncheck>
	LCD_puts (buffer);
    343c:	ce 01       	movw	r24, r28
    343e:	01 96       	adiw	r24, 0x01	; 1
    3440:	0e 94 5d 0e 	call	0x1cba	; 0x1cba <LCD_puts>
	itoa(ti[4],buffer,10);
    3444:	f8 01       	movw	r30, r16
    3446:	84 81       	ldd	r24, Z+4	; 0x04
    3448:	4a e0       	ldi	r20, 0x0A	; 10
    344a:	be 01       	movw	r22, r28
    344c:	6f 5f       	subi	r22, 0xFF	; 255
    344e:	7f 4f       	sbci	r23, 0xFF	; 255
    3450:	90 e0       	ldi	r25, 0x00	; 0
    3452:	0e 94 60 26 	call	0x4cc0	; 0x4cc0 <__itoa_ncheck>
	LCD_puts (buffer);
    3456:	ce 01       	movw	r24, r28
    3458:	01 96       	adiw	r24, 0x01	; 1
    345a:	0e 94 5d 0e 	call	0x1cba	; 0x1cba <LCD_puts>
	LCD_setCursorXY(3,40);
    345e:	68 e2       	ldi	r22, 0x28	; 40
    3460:	83 e0       	ldi	r24, 0x03	; 3
    3462:	0e 94 94 0d 	call	0x1b28	; 0x1b28 <LCD_setCursorXY>
	LCD_puts ((uint8_t*)" A : Reglage");
    3466:	85 ec       	ldi	r24, 0xC5	; 197
    3468:	92 e0       	ldi	r25, 0x02	; 2
    346a:	0e 94 5d 0e 	call	0x1cba	; 0x1cba <LCD_puts>
	LCD_setCursorXY(3,60);
    346e:	6c e3       	ldi	r22, 0x3C	; 60
    3470:	83 e0       	ldi	r24, 0x03	; 3
    3472:	0e 94 94 0d 	call	0x1b28	; 0x1b28 <LCD_setCursorXY>
	LCD_puts ((uint8_t*)" B : BACK");
    3476:	82 ed       	ldi	r24, 0xD2	; 210
    3478:	92 e0       	ldi	r25, 0x02	; 2
    347a:	0e 94 5d 0e 	call	0x1cba	; 0x1cba <LCD_puts>
	return ST_PID_TI;
}
    347e:	8e e3       	ldi	r24, 0x3E	; 62
    3480:	64 96       	adiw	r28, 0x14	; 20
    3482:	0f b6       	in	r0, 0x3f	; 63
    3484:	f8 94       	cli
    3486:	de bf       	out	0x3e, r29	; 62
    3488:	0f be       	out	0x3f, r0	; 63
    348a:	cd bf       	out	0x3d, r28	; 61
    348c:	df 91       	pop	r29
    348e:	cf 91       	pop	r28
    3490:	1f 91       	pop	r17
    3492:	0f 91       	pop	r16
    3494:	08 95       	ret

00003496 <Fct_pid_ti_change>:


char Fct_pid_ti_change(char input)
{
    3496:	0f 93       	push	r16
    3498:	1f 93       	push	r17
    349a:	cf 93       	push	r28
    349c:	df 93       	push	r29
    349e:	cd b7       	in	r28, 0x3d	; 61
    34a0:	de b7       	in	r29, 0x3e	; 62
    34a2:	64 97       	sbiw	r28, 0x14	; 20
    34a4:	0f b6       	in	r0, 0x3f	; 63
    34a6:	f8 94       	cli
    34a8:	de bf       	out	0x3e, r29	; 62
    34aa:	0f be       	out	0x3f, r0	; 63
    34ac:	cd bf       	out	0x3d, r28	; 61
	input=Previous_Button;
    34ae:	10 91 21 0b 	lds	r17, 0x0B21	; 0x800b21 <Previous_Button>
    34b2:	4a e0       	ldi	r20, 0x0A	; 10
    34b4:	be 01       	movw	r22, r28
    34b6:	6f 5f       	subi	r22, 0xFF	; 255
    34b8:	7f 4f       	sbci	r23, 0xFF	; 255
    34ba:	81 2f       	mov	r24, r17
    34bc:	90 e0       	ldi	r25, 0x00	; 0
    34be:	0e 94 60 26 	call	0x4cc0	; 0x4cc0 <__itoa_ncheck>
	
	char buffer[20];
	itoa(input,buffer,10);
	Usart_Tx_String(buffer);
    34c2:	ce 01       	movw	r24, r28
    34c4:	01 96       	adiw	r24, 0x01	; 1
    34c6:	0e 94 36 26 	call	0x4c6c	; 0x4c6c <Usart_Tx_String>
	Usart_Tx_String("\n");
    34ca:	84 e4       	ldi	r24, 0x44	; 68
    34cc:	99 e0       	ldi	r25, 0x09	; 9
    34ce:	0e 94 36 26 	call	0x4c6c	; 0x4c6c <Usart_Tx_String>
	if(position!=0)
    34d2:	e0 91 94 09 	lds	r30, 0x0994	; 0x800994 <position>
    34d6:	ee 23       	and	r30, r30
    34d8:	31 f0       	breq	.+12     	; 0x34e6 <Fct_pid_ti_change+0x50>
	{
		ti[position-1]=input-1;
    34da:	f0 e0       	ldi	r31, 0x00	; 0
    34dc:	e4 5a       	subi	r30, 0xA4	; 164
    34de:	f5 4f       	sbci	r31, 0xF5	; 245
    34e0:	11 50       	subi	r17, 0x01	; 1
    34e2:	10 83       	st	Z, r17
    34e4:	08 c0       	rjmp	.+16     	; 0x34f6 <Fct_pid_ti_change+0x60>
	}
	else IDCB_Clignotement_ti = OSEnregistrerCB_TIMER(clignotementti,500);
    34e6:	64 ef       	ldi	r22, 0xF4	; 244
    34e8:	71 e0       	ldi	r23, 0x01	; 1
    34ea:	85 ef       	ldi	r24, 0xF5	; 245
    34ec:	9f e0       	ldi	r25, 0x0F	; 15
    34ee:	0e 94 b1 23 	call	0x4762	; 0x4762 <OSEnregistrerCB_TIMER>
    34f2:	80 93 20 0b 	sts	0x0B20, r24	; 0x800b20 <IDCB_Clignotement_ti>
	LCD_clr();
    34f6:	0e 94 f3 0d 	call	0x1be6	; 0x1be6 <LCD_clr>
	LCD_setCursorXY(2,0);
    34fa:	60 e0       	ldi	r22, 0x00	; 0
    34fc:	82 e0       	ldi	r24, 0x02	; 2
    34fe:	0e 94 94 0d 	call	0x1b28	; 0x1b28 <LCD_setCursorXY>
	LCD_puts ((uint8_t*)"Constante integration:");
    3502:	85 ec       	ldi	r24, 0xC5	; 197
    3504:	97 e0       	ldi	r25, 0x07	; 7
    3506:	0e 94 5d 0e 	call	0x1cba	; 0x1cba <LCD_puts>
	LCD_setCursorXY(0,20);
    350a:	64 e1       	ldi	r22, 0x14	; 20
    350c:	80 e0       	ldi	r24, 0x00	; 0
    350e:	0e 94 94 0d 	call	0x1b28	; 0x1b28 <LCD_setCursorXY>
	itoa(ti[0],buffer,10);
    3512:	0d e5       	ldi	r16, 0x5D	; 93
    3514:	1a e0       	ldi	r17, 0x0A	; 10
    3516:	f8 01       	movw	r30, r16
    3518:	80 81       	ld	r24, Z
    351a:	4a e0       	ldi	r20, 0x0A	; 10
    351c:	be 01       	movw	r22, r28
    351e:	6f 5f       	subi	r22, 0xFF	; 255
    3520:	7f 4f       	sbci	r23, 0xFF	; 255
    3522:	90 e0       	ldi	r25, 0x00	; 0
    3524:	0e 94 60 26 	call	0x4cc0	; 0x4cc0 <__itoa_ncheck>
	LCD_puts (buffer);
    3528:	ce 01       	movw	r24, r28
    352a:	01 96       	adiw	r24, 0x01	; 1
    352c:	0e 94 5d 0e 	call	0x1cba	; 0x1cba <LCD_puts>
	itoa(ti[1],buffer,10);
    3530:	f8 01       	movw	r30, r16
    3532:	81 81       	ldd	r24, Z+1	; 0x01
    3534:	4a e0       	ldi	r20, 0x0A	; 10
    3536:	be 01       	movw	r22, r28
    3538:	6f 5f       	subi	r22, 0xFF	; 255
    353a:	7f 4f       	sbci	r23, 0xFF	; 255
    353c:	90 e0       	ldi	r25, 0x00	; 0
    353e:	0e 94 60 26 	call	0x4cc0	; 0x4cc0 <__itoa_ncheck>
	LCD_puts (buffer);
    3542:	ce 01       	movw	r24, r28
    3544:	01 96       	adiw	r24, 0x01	; 1
    3546:	0e 94 5d 0e 	call	0x1cba	; 0x1cba <LCD_puts>
	itoa(ti[2],buffer,10);
    354a:	f8 01       	movw	r30, r16
    354c:	82 81       	ldd	r24, Z+2	; 0x02
    354e:	4a e0       	ldi	r20, 0x0A	; 10
    3550:	be 01       	movw	r22, r28
    3552:	6f 5f       	subi	r22, 0xFF	; 255
    3554:	7f 4f       	sbci	r23, 0xFF	; 255
    3556:	90 e0       	ldi	r25, 0x00	; 0
    3558:	0e 94 60 26 	call	0x4cc0	; 0x4cc0 <__itoa_ncheck>
	LCD_puts (buffer);
    355c:	ce 01       	movw	r24, r28
    355e:	01 96       	adiw	r24, 0x01	; 1
    3560:	0e 94 5d 0e 	call	0x1cba	; 0x1cba <LCD_puts>
	itoa(ti[3],buffer,10);
    3564:	f8 01       	movw	r30, r16
    3566:	83 81       	ldd	r24, Z+3	; 0x03
    3568:	4a e0       	ldi	r20, 0x0A	; 10
    356a:	be 01       	movw	r22, r28
    356c:	6f 5f       	subi	r22, 0xFF	; 255
    356e:	7f 4f       	sbci	r23, 0xFF	; 255
    3570:	90 e0       	ldi	r25, 0x00	; 0
    3572:	0e 94 60 26 	call	0x4cc0	; 0x4cc0 <__itoa_ncheck>
	LCD_puts (buffer);
    3576:	ce 01       	movw	r24, r28
    3578:	01 96       	adiw	r24, 0x01	; 1
    357a:	0e 94 5d 0e 	call	0x1cba	; 0x1cba <LCD_puts>
	itoa(ti[4],buffer,10);
    357e:	f8 01       	movw	r30, r16
    3580:	84 81       	ldd	r24, Z+4	; 0x04
    3582:	4a e0       	ldi	r20, 0x0A	; 10
    3584:	be 01       	movw	r22, r28
    3586:	6f 5f       	subi	r22, 0xFF	; 255
    3588:	7f 4f       	sbci	r23, 0xFF	; 255
    358a:	90 e0       	ldi	r25, 0x00	; 0
    358c:	0e 94 60 26 	call	0x4cc0	; 0x4cc0 <__itoa_ncheck>
	LCD_puts (buffer);
    3590:	ce 01       	movw	r24, r28
    3592:	01 96       	adiw	r24, 0x01	; 1
    3594:	0e 94 5d 0e 	call	0x1cba	; 0x1cba <LCD_puts>
	
	
	position++;
    3598:	80 91 94 09 	lds	r24, 0x0994	; 0x800994 <position>
    359c:	8f 5f       	subi	r24, 0xFF	; 255
	if(position==6)
    359e:	86 30       	cpi	r24, 0x06	; 6
    35a0:	21 f0       	breq	.+8      	; 0x35aa <Fct_pid_ti_change+0x114>
	LCD_puts (buffer);
	itoa(ti[4],buffer,10);
	LCD_puts (buffer);
	
	
	position++;
    35a2:	80 93 94 09 	sts	0x0994, r24	; 0x800994 <position>
		Usart_Tx_String("\n");
		
		OSRetirerCB_TIMER(IDCB_Clignotement_ti);
		return FCT_PID_TI;
	}
	else return ST_PID_TI_CHANGE;
    35a6:	82 e6       	ldi	r24, 0x62	; 98
    35a8:	4b c0       	rjmp	.+150    	; 0x3640 <Fct_pid_ti_change+0x1aa>
	
	
	position++;
	if(position==6)
	{
		position=0;
    35aa:	10 92 94 09 	sts	0x0994, r1	; 0x800994 <position>
		EEPROM_save_ti();
    35ae:	0e 94 88 09 	call	0x1310	; 0x1310 <EEPROM_save_ti>
		ti_int = (int)ti[4]+(10*((int)ti[3]))+(100*((int)ti[2]))+(1000*((int)ti[1]))+(10000*((int)ti[0]));
    35b2:	ed e5       	ldi	r30, 0x5D	; 93
    35b4:	fa e0       	ldi	r31, 0x0A	; 10
    35b6:	24 81       	ldd	r18, Z+4	; 0x04
    35b8:	83 81       	ldd	r24, Z+3	; 0x03
    35ba:	90 e0       	ldi	r25, 0x00	; 0
    35bc:	ac 01       	movw	r20, r24
    35be:	44 0f       	add	r20, r20
    35c0:	55 1f       	adc	r21, r21
    35c2:	88 0f       	add	r24, r24
    35c4:	99 1f       	adc	r25, r25
    35c6:	88 0f       	add	r24, r24
    35c8:	99 1f       	adc	r25, r25
    35ca:	88 0f       	add	r24, r24
    35cc:	99 1f       	adc	r25, r25
    35ce:	84 0f       	add	r24, r20
    35d0:	95 1f       	adc	r25, r21
    35d2:	82 0f       	add	r24, r18
    35d4:	91 1d       	adc	r25, r1
    35d6:	22 81       	ldd	r18, Z+2	; 0x02
    35d8:	34 e6       	ldi	r19, 0x64	; 100
    35da:	23 9f       	mul	r18, r19
    35dc:	80 0d       	add	r24, r0
    35de:	91 1d       	adc	r25, r1
    35e0:	11 24       	eor	r1, r1
    35e2:	61 81       	ldd	r22, Z+1	; 0x01
    35e4:	48 ee       	ldi	r20, 0xE8	; 232
    35e6:	53 e0       	ldi	r21, 0x03	; 3
    35e8:	64 9f       	mul	r22, r20
    35ea:	90 01       	movw	r18, r0
    35ec:	65 9f       	mul	r22, r21
    35ee:	30 0d       	add	r19, r0
    35f0:	11 24       	eor	r1, r1
    35f2:	82 0f       	add	r24, r18
    35f4:	93 1f       	adc	r25, r19
    35f6:	60 81       	ld	r22, Z
    35f8:	40 e1       	ldi	r20, 0x10	; 16
    35fa:	57 e2       	ldi	r21, 0x27	; 39
    35fc:	64 9f       	mul	r22, r20
    35fe:	90 01       	movw	r18, r0
    3600:	65 9f       	mul	r22, r21
    3602:	30 0d       	add	r19, r0
    3604:	11 24       	eor	r1, r1
    3606:	82 0f       	add	r24, r18
    3608:	93 1f       	adc	r25, r19
    360a:	90 93 87 09 	sts	0x0987, r25	; 0x800987 <ti_int+0x1>
    360e:	80 93 86 09 	sts	0x0986, r24	; 0x800986 <ti_int>
    3612:	4a e0       	ldi	r20, 0x0A	; 10
    3614:	be 01       	movw	r22, r28
    3616:	6f 5f       	subi	r22, 0xFF	; 255
    3618:	7f 4f       	sbci	r23, 0xFF	; 255
    361a:	0e 94 60 26 	call	0x4cc0	; 0x4cc0 <__itoa_ncheck>
		itoa(ti_int,buffer,10);
		Usart_Tx_String("Constante integration:");
    361e:	85 ec       	ldi	r24, 0xC5	; 197
    3620:	97 e0       	ldi	r25, 0x07	; 7
    3622:	0e 94 36 26 	call	0x4c6c	; 0x4c6c <Usart_Tx_String>
		Usart_Tx_String(buffer);
    3626:	ce 01       	movw	r24, r28
    3628:	01 96       	adiw	r24, 0x01	; 1
    362a:	0e 94 36 26 	call	0x4c6c	; 0x4c6c <Usart_Tx_String>
		Usart_Tx_String("\n");
    362e:	84 e4       	ldi	r24, 0x44	; 68
    3630:	99 e0       	ldi	r25, 0x09	; 9
    3632:	0e 94 36 26 	call	0x4c6c	; 0x4c6c <Usart_Tx_String>
		
		OSRetirerCB_TIMER(IDCB_Clignotement_ti);
    3636:	80 91 20 0b 	lds	r24, 0x0B20	; 0x800b20 <IDCB_Clignotement_ti>
    363a:	0e 94 dd 23 	call	0x47ba	; 0x47ba <OSRetirerCB_TIMER>
		return FCT_PID_TI;
    363e:	8f e3       	ldi	r24, 0x3F	; 63
	}
	else return ST_PID_TI_CHANGE;
	
	
}
    3640:	64 96       	adiw	r28, 0x14	; 20
    3642:	0f b6       	in	r0, 0x3f	; 63
    3644:	f8 94       	cli
    3646:	de bf       	out	0x3e, r29	; 62
    3648:	0f be       	out	0x3f, r0	; 63
    364a:	cd bf       	out	0x3d, r28	; 61
    364c:	df 91       	pop	r29
    364e:	cf 91       	pop	r28
    3650:	1f 91       	pop	r17
    3652:	0f 91       	pop	r16
    3654:	08 95       	ret

00003656 <Fct_pid_td>:


char Fct_pid_td(char input)
{
    3656:	0f 93       	push	r16
    3658:	1f 93       	push	r17
    365a:	cf 93       	push	r28
    365c:	df 93       	push	r29
    365e:	cd b7       	in	r28, 0x3d	; 61
    3660:	de b7       	in	r29, 0x3e	; 62
    3662:	64 97       	sbiw	r28, 0x14	; 20
    3664:	0f b6       	in	r0, 0x3f	; 63
    3666:	f8 94       	cli
    3668:	de bf       	out	0x3e, r29	; 62
    366a:	0f be       	out	0x3f, r0	; 63
    366c:	cd bf       	out	0x3d, r28	; 61
	EEPROM_read_td();
    366e:	0e 94 00 05 	call	0xa00	; 0xa00 <EEPROM_read_td>
	char buffer[20];
	LCD_clr();
    3672:	0e 94 f3 0d 	call	0x1be6	; 0x1be6 <LCD_clr>
	LCD_setCursorXY(5,0);
    3676:	60 e0       	ldi	r22, 0x00	; 0
    3678:	85 e0       	ldi	r24, 0x05	; 5
    367a:	0e 94 94 0d 	call	0x1b28	; 0x1b28 <LCD_setCursorXY>
	LCD_puts ((uint8_t*)"Constante derivation");
    367e:	8c ed       	ldi	r24, 0xDC	; 220
    3680:	97 e0       	ldi	r25, 0x07	; 7
    3682:	0e 94 5d 0e 	call	0x1cba	; 0x1cba <LCD_puts>
	LCD_setCursorXY(0,20);
    3686:	64 e1       	ldi	r22, 0x14	; 20
    3688:	80 e0       	ldi	r24, 0x00	; 0
    368a:	0e 94 94 0d 	call	0x1b28	; 0x1b28 <LCD_setCursorXY>
	itoa(td[0],buffer,10);
    368e:	08 e5       	ldi	r16, 0x58	; 88
    3690:	1a e0       	ldi	r17, 0x0A	; 10
    3692:	f8 01       	movw	r30, r16
    3694:	80 81       	ld	r24, Z
    3696:	4a e0       	ldi	r20, 0x0A	; 10
    3698:	be 01       	movw	r22, r28
    369a:	6f 5f       	subi	r22, 0xFF	; 255
    369c:	7f 4f       	sbci	r23, 0xFF	; 255
    369e:	90 e0       	ldi	r25, 0x00	; 0
    36a0:	0e 94 60 26 	call	0x4cc0	; 0x4cc0 <__itoa_ncheck>
	LCD_puts (buffer);
    36a4:	ce 01       	movw	r24, r28
    36a6:	01 96       	adiw	r24, 0x01	; 1
    36a8:	0e 94 5d 0e 	call	0x1cba	; 0x1cba <LCD_puts>
	itoa(td[1],buffer,10);
    36ac:	f8 01       	movw	r30, r16
    36ae:	81 81       	ldd	r24, Z+1	; 0x01
    36b0:	4a e0       	ldi	r20, 0x0A	; 10
    36b2:	be 01       	movw	r22, r28
    36b4:	6f 5f       	subi	r22, 0xFF	; 255
    36b6:	7f 4f       	sbci	r23, 0xFF	; 255
    36b8:	90 e0       	ldi	r25, 0x00	; 0
    36ba:	0e 94 60 26 	call	0x4cc0	; 0x4cc0 <__itoa_ncheck>
	LCD_puts (buffer);
    36be:	ce 01       	movw	r24, r28
    36c0:	01 96       	adiw	r24, 0x01	; 1
    36c2:	0e 94 5d 0e 	call	0x1cba	; 0x1cba <LCD_puts>
	itoa(td[2],buffer,10);
    36c6:	f8 01       	movw	r30, r16
    36c8:	82 81       	ldd	r24, Z+2	; 0x02
    36ca:	4a e0       	ldi	r20, 0x0A	; 10
    36cc:	be 01       	movw	r22, r28
    36ce:	6f 5f       	subi	r22, 0xFF	; 255
    36d0:	7f 4f       	sbci	r23, 0xFF	; 255
    36d2:	90 e0       	ldi	r25, 0x00	; 0
    36d4:	0e 94 60 26 	call	0x4cc0	; 0x4cc0 <__itoa_ncheck>
	LCD_puts (buffer);
    36d8:	ce 01       	movw	r24, r28
    36da:	01 96       	adiw	r24, 0x01	; 1
    36dc:	0e 94 5d 0e 	call	0x1cba	; 0x1cba <LCD_puts>
	itoa(td[3],buffer,10);
    36e0:	f8 01       	movw	r30, r16
    36e2:	83 81       	ldd	r24, Z+3	; 0x03
    36e4:	4a e0       	ldi	r20, 0x0A	; 10
    36e6:	be 01       	movw	r22, r28
    36e8:	6f 5f       	subi	r22, 0xFF	; 255
    36ea:	7f 4f       	sbci	r23, 0xFF	; 255
    36ec:	90 e0       	ldi	r25, 0x00	; 0
    36ee:	0e 94 60 26 	call	0x4cc0	; 0x4cc0 <__itoa_ncheck>
	LCD_puts (buffer);
    36f2:	ce 01       	movw	r24, r28
    36f4:	01 96       	adiw	r24, 0x01	; 1
    36f6:	0e 94 5d 0e 	call	0x1cba	; 0x1cba <LCD_puts>
	itoa(td[4],buffer,10);
    36fa:	f8 01       	movw	r30, r16
    36fc:	84 81       	ldd	r24, Z+4	; 0x04
    36fe:	4a e0       	ldi	r20, 0x0A	; 10
    3700:	be 01       	movw	r22, r28
    3702:	6f 5f       	subi	r22, 0xFF	; 255
    3704:	7f 4f       	sbci	r23, 0xFF	; 255
    3706:	90 e0       	ldi	r25, 0x00	; 0
    3708:	0e 94 60 26 	call	0x4cc0	; 0x4cc0 <__itoa_ncheck>
	LCD_puts (buffer);
    370c:	ce 01       	movw	r24, r28
    370e:	01 96       	adiw	r24, 0x01	; 1
    3710:	0e 94 5d 0e 	call	0x1cba	; 0x1cba <LCD_puts>
	LCD_setCursorXY(3,40);
    3714:	68 e2       	ldi	r22, 0x28	; 40
    3716:	83 e0       	ldi	r24, 0x03	; 3
    3718:	0e 94 94 0d 	call	0x1b28	; 0x1b28 <LCD_setCursorXY>
	LCD_puts ((uint8_t*)" A : Reglage");
    371c:	85 ec       	ldi	r24, 0xC5	; 197
    371e:	92 e0       	ldi	r25, 0x02	; 2
    3720:	0e 94 5d 0e 	call	0x1cba	; 0x1cba <LCD_puts>
	LCD_setCursorXY(3,60);
    3724:	6c e3       	ldi	r22, 0x3C	; 60
    3726:	83 e0       	ldi	r24, 0x03	; 3
    3728:	0e 94 94 0d 	call	0x1b28	; 0x1b28 <LCD_setCursorXY>
	LCD_puts ((uint8_t*)" B : BACK");
    372c:	82 ed       	ldi	r24, 0xD2	; 210
    372e:	92 e0       	ldi	r25, 0x02	; 2
    3730:	0e 94 5d 0e 	call	0x1cba	; 0x1cba <LCD_puts>
	return ST_PID_TD;
}
    3734:	80 e4       	ldi	r24, 0x40	; 64
    3736:	64 96       	adiw	r28, 0x14	; 20
    3738:	0f b6       	in	r0, 0x3f	; 63
    373a:	f8 94       	cli
    373c:	de bf       	out	0x3e, r29	; 62
    373e:	0f be       	out	0x3f, r0	; 63
    3740:	cd bf       	out	0x3d, r28	; 61
    3742:	df 91       	pop	r29
    3744:	cf 91       	pop	r28
    3746:	1f 91       	pop	r17
    3748:	0f 91       	pop	r16
    374a:	08 95       	ret

0000374c <Fct_pid_td_change>:


char Fct_pid_td_change(char input)
{
    374c:	0f 93       	push	r16
    374e:	1f 93       	push	r17
    3750:	cf 93       	push	r28
    3752:	df 93       	push	r29
    3754:	cd b7       	in	r28, 0x3d	; 61
    3756:	de b7       	in	r29, 0x3e	; 62
    3758:	64 97       	sbiw	r28, 0x14	; 20
    375a:	0f b6       	in	r0, 0x3f	; 63
    375c:	f8 94       	cli
    375e:	de bf       	out	0x3e, r29	; 62
    3760:	0f be       	out	0x3f, r0	; 63
    3762:	cd bf       	out	0x3d, r28	; 61
	input=Previous_Button;
    3764:	10 91 21 0b 	lds	r17, 0x0B21	; 0x800b21 <Previous_Button>
    3768:	4a e0       	ldi	r20, 0x0A	; 10
    376a:	be 01       	movw	r22, r28
    376c:	6f 5f       	subi	r22, 0xFF	; 255
    376e:	7f 4f       	sbci	r23, 0xFF	; 255
    3770:	81 2f       	mov	r24, r17
    3772:	90 e0       	ldi	r25, 0x00	; 0
    3774:	0e 94 60 26 	call	0x4cc0	; 0x4cc0 <__itoa_ncheck>
	
	char buffer[20];
	itoa(input,buffer,10);
	Usart_Tx_String(buffer);
    3778:	ce 01       	movw	r24, r28
    377a:	01 96       	adiw	r24, 0x01	; 1
    377c:	0e 94 36 26 	call	0x4c6c	; 0x4c6c <Usart_Tx_String>
	Usart_Tx_String("\n");
    3780:	84 e4       	ldi	r24, 0x44	; 68
    3782:	99 e0       	ldi	r25, 0x09	; 9
    3784:	0e 94 36 26 	call	0x4c6c	; 0x4c6c <Usart_Tx_String>
	if(position!=0)
    3788:	e0 91 94 09 	lds	r30, 0x0994	; 0x800994 <position>
    378c:	ee 23       	and	r30, r30
    378e:	31 f0       	breq	.+12     	; 0x379c <Fct_pid_td_change+0x50>
	{
		td[position-1]=input-1;
    3790:	f0 e0       	ldi	r31, 0x00	; 0
    3792:	e9 5a       	subi	r30, 0xA9	; 169
    3794:	f5 4f       	sbci	r31, 0xF5	; 245
    3796:	11 50       	subi	r17, 0x01	; 1
    3798:	10 83       	st	Z, r17
    379a:	07 c0       	rjmp	.+14     	; 0x37aa <Fct_pid_td_change+0x5e>
	}
	else IDCB_Clignotement_ti = OSEnregistrerCB_TIMER(clignotementti,500);
    379c:	64 ef       	ldi	r22, 0xF4	; 244
    379e:	71 e0       	ldi	r23, 0x01	; 1
    37a0:	85 ef       	ldi	r24, 0xF5	; 245
    37a2:	9f e0       	ldi	r25, 0x0F	; 15
    37a4:	de d7       	rcall	.+4028   	; 0x4762 <OSEnregistrerCB_TIMER>
    37a6:	80 93 20 0b 	sts	0x0B20, r24	; 0x800b20 <IDCB_Clignotement_ti>
	LCD_clr();
    37aa:	0e 94 f3 0d 	call	0x1be6	; 0x1be6 <LCD_clr>
	LCD_setCursorXY(5,0);
    37ae:	60 e0       	ldi	r22, 0x00	; 0
    37b0:	85 e0       	ldi	r24, 0x05	; 5
    37b2:	0e 94 94 0d 	call	0x1b28	; 0x1b28 <LCD_setCursorXY>
	LCD_puts ((uint8_t*)"Constante derivation:");
    37b6:	81 ef       	ldi	r24, 0xF1	; 241
    37b8:	97 e0       	ldi	r25, 0x07	; 7
    37ba:	0e 94 5d 0e 	call	0x1cba	; 0x1cba <LCD_puts>
	LCD_setCursorXY(0,20);
    37be:	64 e1       	ldi	r22, 0x14	; 20
    37c0:	80 e0       	ldi	r24, 0x00	; 0
    37c2:	0e 94 94 0d 	call	0x1b28	; 0x1b28 <LCD_setCursorXY>
	itoa(td[0],buffer,10);
    37c6:	08 e5       	ldi	r16, 0x58	; 88
    37c8:	1a e0       	ldi	r17, 0x0A	; 10
    37ca:	f8 01       	movw	r30, r16
    37cc:	80 81       	ld	r24, Z
    37ce:	4a e0       	ldi	r20, 0x0A	; 10
    37d0:	be 01       	movw	r22, r28
    37d2:	6f 5f       	subi	r22, 0xFF	; 255
    37d4:	7f 4f       	sbci	r23, 0xFF	; 255
    37d6:	90 e0       	ldi	r25, 0x00	; 0
    37d8:	0e 94 60 26 	call	0x4cc0	; 0x4cc0 <__itoa_ncheck>
	LCD_puts (buffer);
    37dc:	ce 01       	movw	r24, r28
    37de:	01 96       	adiw	r24, 0x01	; 1
    37e0:	0e 94 5d 0e 	call	0x1cba	; 0x1cba <LCD_puts>
	itoa(td[1],buffer,10);
    37e4:	f8 01       	movw	r30, r16
    37e6:	81 81       	ldd	r24, Z+1	; 0x01
    37e8:	4a e0       	ldi	r20, 0x0A	; 10
    37ea:	be 01       	movw	r22, r28
    37ec:	6f 5f       	subi	r22, 0xFF	; 255
    37ee:	7f 4f       	sbci	r23, 0xFF	; 255
    37f0:	90 e0       	ldi	r25, 0x00	; 0
    37f2:	0e 94 60 26 	call	0x4cc0	; 0x4cc0 <__itoa_ncheck>
	LCD_puts (buffer);
    37f6:	ce 01       	movw	r24, r28
    37f8:	01 96       	adiw	r24, 0x01	; 1
    37fa:	0e 94 5d 0e 	call	0x1cba	; 0x1cba <LCD_puts>
	itoa(td[2],buffer,10);
    37fe:	f8 01       	movw	r30, r16
    3800:	82 81       	ldd	r24, Z+2	; 0x02
    3802:	4a e0       	ldi	r20, 0x0A	; 10
    3804:	be 01       	movw	r22, r28
    3806:	6f 5f       	subi	r22, 0xFF	; 255
    3808:	7f 4f       	sbci	r23, 0xFF	; 255
    380a:	90 e0       	ldi	r25, 0x00	; 0
    380c:	0e 94 60 26 	call	0x4cc0	; 0x4cc0 <__itoa_ncheck>
	LCD_puts (buffer);
    3810:	ce 01       	movw	r24, r28
    3812:	01 96       	adiw	r24, 0x01	; 1
    3814:	0e 94 5d 0e 	call	0x1cba	; 0x1cba <LCD_puts>
	itoa(td[3],buffer,10);
    3818:	f8 01       	movw	r30, r16
    381a:	83 81       	ldd	r24, Z+3	; 0x03
    381c:	4a e0       	ldi	r20, 0x0A	; 10
    381e:	be 01       	movw	r22, r28
    3820:	6f 5f       	subi	r22, 0xFF	; 255
    3822:	7f 4f       	sbci	r23, 0xFF	; 255
    3824:	90 e0       	ldi	r25, 0x00	; 0
    3826:	0e 94 60 26 	call	0x4cc0	; 0x4cc0 <__itoa_ncheck>
	LCD_puts (buffer);
    382a:	ce 01       	movw	r24, r28
    382c:	01 96       	adiw	r24, 0x01	; 1
    382e:	0e 94 5d 0e 	call	0x1cba	; 0x1cba <LCD_puts>
	itoa(td[4],buffer,10);
    3832:	f8 01       	movw	r30, r16
    3834:	84 81       	ldd	r24, Z+4	; 0x04
    3836:	4a e0       	ldi	r20, 0x0A	; 10
    3838:	be 01       	movw	r22, r28
    383a:	6f 5f       	subi	r22, 0xFF	; 255
    383c:	7f 4f       	sbci	r23, 0xFF	; 255
    383e:	90 e0       	ldi	r25, 0x00	; 0
    3840:	0e 94 60 26 	call	0x4cc0	; 0x4cc0 <__itoa_ncheck>
	LCD_puts (buffer);
    3844:	ce 01       	movw	r24, r28
    3846:	01 96       	adiw	r24, 0x01	; 1
    3848:	0e 94 5d 0e 	call	0x1cba	; 0x1cba <LCD_puts>
	
	
	position++;
    384c:	80 91 94 09 	lds	r24, 0x0994	; 0x800994 <position>
    3850:	8f 5f       	subi	r24, 0xFF	; 255
	if(position==6)
    3852:	86 30       	cpi	r24, 0x06	; 6
    3854:	21 f0       	breq	.+8      	; 0x385e <Fct_pid_td_change+0x112>
	LCD_puts (buffer);
	itoa(td[4],buffer,10);
	LCD_puts (buffer);
	
	
	position++;
    3856:	80 93 94 09 	sts	0x0994, r24	; 0x800994 <position>
		Usart_Tx_String("\n");
		
		OSRetirerCB_TIMER(IDCB_Clignotement_ti);
		return FCT_PID_TD;
	}
	else return ST_PID_TD_CHANGE;
    385a:	84 e6       	ldi	r24, 0x64	; 100
    385c:	4a c0       	rjmp	.+148    	; 0x38f2 <Fct_pid_td_change+0x1a6>
	
	
	position++;
	if(position==6)
	{
		position=0;
    385e:	10 92 94 09 	sts	0x0994, r1	; 0x800994 <position>
		EEPROM_save_td();
    3862:	0e 94 a2 09 	call	0x1344	; 0x1344 <EEPROM_save_td>
		td_int = (int)td[4]+(10*((int)td[3]))+(100*((int)td[2]))+(1000*((int)td[1]))+(10000*((int)td[0]));
    3866:	e8 e5       	ldi	r30, 0x58	; 88
    3868:	fa e0       	ldi	r31, 0x0A	; 10
    386a:	24 81       	ldd	r18, Z+4	; 0x04
    386c:	83 81       	ldd	r24, Z+3	; 0x03
    386e:	90 e0       	ldi	r25, 0x00	; 0
    3870:	ac 01       	movw	r20, r24
    3872:	44 0f       	add	r20, r20
    3874:	55 1f       	adc	r21, r21
    3876:	88 0f       	add	r24, r24
    3878:	99 1f       	adc	r25, r25
    387a:	88 0f       	add	r24, r24
    387c:	99 1f       	adc	r25, r25
    387e:	88 0f       	add	r24, r24
    3880:	99 1f       	adc	r25, r25
    3882:	84 0f       	add	r24, r20
    3884:	95 1f       	adc	r25, r21
    3886:	82 0f       	add	r24, r18
    3888:	91 1d       	adc	r25, r1
    388a:	22 81       	ldd	r18, Z+2	; 0x02
    388c:	34 e6       	ldi	r19, 0x64	; 100
    388e:	23 9f       	mul	r18, r19
    3890:	80 0d       	add	r24, r0
    3892:	91 1d       	adc	r25, r1
    3894:	11 24       	eor	r1, r1
    3896:	61 81       	ldd	r22, Z+1	; 0x01
    3898:	48 ee       	ldi	r20, 0xE8	; 232
    389a:	53 e0       	ldi	r21, 0x03	; 3
    389c:	64 9f       	mul	r22, r20
    389e:	90 01       	movw	r18, r0
    38a0:	65 9f       	mul	r22, r21
    38a2:	30 0d       	add	r19, r0
    38a4:	11 24       	eor	r1, r1
    38a6:	82 0f       	add	r24, r18
    38a8:	93 1f       	adc	r25, r19
    38aa:	60 81       	ld	r22, Z
    38ac:	40 e1       	ldi	r20, 0x10	; 16
    38ae:	57 e2       	ldi	r21, 0x27	; 39
    38b0:	64 9f       	mul	r22, r20
    38b2:	90 01       	movw	r18, r0
    38b4:	65 9f       	mul	r22, r21
    38b6:	30 0d       	add	r19, r0
    38b8:	11 24       	eor	r1, r1
    38ba:	82 0f       	add	r24, r18
    38bc:	93 1f       	adc	r25, r19
    38be:	90 93 85 09 	sts	0x0985, r25	; 0x800985 <td_int+0x1>
    38c2:	80 93 84 09 	sts	0x0984, r24	; 0x800984 <td_int>
    38c6:	4a e0       	ldi	r20, 0x0A	; 10
    38c8:	be 01       	movw	r22, r28
    38ca:	6f 5f       	subi	r22, 0xFF	; 255
    38cc:	7f 4f       	sbci	r23, 0xFF	; 255
    38ce:	0e 94 60 26 	call	0x4cc0	; 0x4cc0 <__itoa_ncheck>
		itoa(td_int,buffer,10);
		Usart_Tx_String("Constante derivation:");
    38d2:	81 ef       	ldi	r24, 0xF1	; 241
    38d4:	97 e0       	ldi	r25, 0x07	; 7
    38d6:	0e 94 36 26 	call	0x4c6c	; 0x4c6c <Usart_Tx_String>
		Usart_Tx_String(buffer);
    38da:	ce 01       	movw	r24, r28
    38dc:	01 96       	adiw	r24, 0x01	; 1
    38de:	0e 94 36 26 	call	0x4c6c	; 0x4c6c <Usart_Tx_String>
		Usart_Tx_String("\n");
    38e2:	84 e4       	ldi	r24, 0x44	; 68
    38e4:	99 e0       	ldi	r25, 0x09	; 9
    38e6:	0e 94 36 26 	call	0x4c6c	; 0x4c6c <Usart_Tx_String>
		
		OSRetirerCB_TIMER(IDCB_Clignotement_ti);
    38ea:	80 91 20 0b 	lds	r24, 0x0B20	; 0x800b20 <IDCB_Clignotement_ti>
    38ee:	65 d7       	rcall	.+3786   	; 0x47ba <OSRetirerCB_TIMER>
		return FCT_PID_TD;
    38f0:	81 e4       	ldi	r24, 0x41	; 65
	}
	else return ST_PID_TD_CHANGE;
	
	
}
    38f2:	64 96       	adiw	r28, 0x14	; 20
    38f4:	0f b6       	in	r0, 0x3f	; 63
    38f6:	f8 94       	cli
    38f8:	de bf       	out	0x3e, r29	; 62
    38fa:	0f be       	out	0x3f, r0	; 63
    38fc:	cd bf       	out	0x3d, r28	; 61
    38fe:	df 91       	pop	r29
    3900:	cf 91       	pop	r28
    3902:	1f 91       	pop	r17
    3904:	0f 91       	pop	r16
    3906:	08 95       	ret

00003908 <Fct_pid_te>:


char Fct_pid_te(char input)
{
    3908:	0f 93       	push	r16
    390a:	1f 93       	push	r17
    390c:	cf 93       	push	r28
    390e:	df 93       	push	r29
    3910:	cd b7       	in	r28, 0x3d	; 61
    3912:	de b7       	in	r29, 0x3e	; 62
    3914:	64 97       	sbiw	r28, 0x14	; 20
    3916:	0f b6       	in	r0, 0x3f	; 63
    3918:	f8 94       	cli
    391a:	de bf       	out	0x3e, r29	; 62
    391c:	0f be       	out	0x3f, r0	; 63
    391e:	cd bf       	out	0x3d, r28	; 61
	EEPROM_read_te();
    3920:	0e 94 1a 05 	call	0xa34	; 0xa34 <EEPROM_read_te>
	char buffer[20];
	LCD_clr();
    3924:	0e 94 f3 0d 	call	0x1be6	; 0x1be6 <LCD_clr>
	LCD_setCursorXY(5,0);
    3928:	60 e0       	ldi	r22, 0x00	; 0
    392a:	85 e0       	ldi	r24, 0x05	; 5
    392c:	0e 94 94 0d 	call	0x1b28	; 0x1b28 <LCD_setCursorXY>
	LCD_puts ((uint8_t*)"Periode echantillon");
    3930:	87 e0       	ldi	r24, 0x07	; 7
    3932:	98 e0       	ldi	r25, 0x08	; 8
    3934:	0e 94 5d 0e 	call	0x1cba	; 0x1cba <LCD_puts>
	LCD_setCursorXY(0,20);
    3938:	64 e1       	ldi	r22, 0x14	; 20
    393a:	80 e0       	ldi	r24, 0x00	; 0
    393c:	0e 94 94 0d 	call	0x1b28	; 0x1b28 <LCD_setCursorXY>
	itoa(te[0],buffer,10);
    3940:	03 e5       	ldi	r16, 0x53	; 83
    3942:	1a e0       	ldi	r17, 0x0A	; 10
    3944:	f8 01       	movw	r30, r16
    3946:	80 81       	ld	r24, Z
    3948:	4a e0       	ldi	r20, 0x0A	; 10
    394a:	be 01       	movw	r22, r28
    394c:	6f 5f       	subi	r22, 0xFF	; 255
    394e:	7f 4f       	sbci	r23, 0xFF	; 255
    3950:	90 e0       	ldi	r25, 0x00	; 0
    3952:	0e 94 60 26 	call	0x4cc0	; 0x4cc0 <__itoa_ncheck>
	LCD_puts (buffer);
    3956:	ce 01       	movw	r24, r28
    3958:	01 96       	adiw	r24, 0x01	; 1
    395a:	0e 94 5d 0e 	call	0x1cba	; 0x1cba <LCD_puts>
	itoa(te[1],buffer,10);
    395e:	f8 01       	movw	r30, r16
    3960:	81 81       	ldd	r24, Z+1	; 0x01
    3962:	4a e0       	ldi	r20, 0x0A	; 10
    3964:	be 01       	movw	r22, r28
    3966:	6f 5f       	subi	r22, 0xFF	; 255
    3968:	7f 4f       	sbci	r23, 0xFF	; 255
    396a:	90 e0       	ldi	r25, 0x00	; 0
    396c:	0e 94 60 26 	call	0x4cc0	; 0x4cc0 <__itoa_ncheck>
	LCD_puts (buffer);
    3970:	ce 01       	movw	r24, r28
    3972:	01 96       	adiw	r24, 0x01	; 1
    3974:	0e 94 5d 0e 	call	0x1cba	; 0x1cba <LCD_puts>
	itoa(te[2],buffer,10);
    3978:	f8 01       	movw	r30, r16
    397a:	82 81       	ldd	r24, Z+2	; 0x02
    397c:	4a e0       	ldi	r20, 0x0A	; 10
    397e:	be 01       	movw	r22, r28
    3980:	6f 5f       	subi	r22, 0xFF	; 255
    3982:	7f 4f       	sbci	r23, 0xFF	; 255
    3984:	90 e0       	ldi	r25, 0x00	; 0
    3986:	0e 94 60 26 	call	0x4cc0	; 0x4cc0 <__itoa_ncheck>
	LCD_puts (buffer);
    398a:	ce 01       	movw	r24, r28
    398c:	01 96       	adiw	r24, 0x01	; 1
    398e:	0e 94 5d 0e 	call	0x1cba	; 0x1cba <LCD_puts>
	itoa(te[3],buffer,10);
    3992:	f8 01       	movw	r30, r16
    3994:	83 81       	ldd	r24, Z+3	; 0x03
    3996:	4a e0       	ldi	r20, 0x0A	; 10
    3998:	be 01       	movw	r22, r28
    399a:	6f 5f       	subi	r22, 0xFF	; 255
    399c:	7f 4f       	sbci	r23, 0xFF	; 255
    399e:	90 e0       	ldi	r25, 0x00	; 0
    39a0:	0e 94 60 26 	call	0x4cc0	; 0x4cc0 <__itoa_ncheck>
	LCD_puts (buffer);
    39a4:	ce 01       	movw	r24, r28
    39a6:	01 96       	adiw	r24, 0x01	; 1
    39a8:	0e 94 5d 0e 	call	0x1cba	; 0x1cba <LCD_puts>
	itoa(te[4],buffer,10);
    39ac:	f8 01       	movw	r30, r16
    39ae:	84 81       	ldd	r24, Z+4	; 0x04
    39b0:	4a e0       	ldi	r20, 0x0A	; 10
    39b2:	be 01       	movw	r22, r28
    39b4:	6f 5f       	subi	r22, 0xFF	; 255
    39b6:	7f 4f       	sbci	r23, 0xFF	; 255
    39b8:	90 e0       	ldi	r25, 0x00	; 0
    39ba:	0e 94 60 26 	call	0x4cc0	; 0x4cc0 <__itoa_ncheck>
	LCD_puts (buffer);
    39be:	ce 01       	movw	r24, r28
    39c0:	01 96       	adiw	r24, 0x01	; 1
    39c2:	0e 94 5d 0e 	call	0x1cba	; 0x1cba <LCD_puts>
	LCD_setCursorXY(3,40);
    39c6:	68 e2       	ldi	r22, 0x28	; 40
    39c8:	83 e0       	ldi	r24, 0x03	; 3
    39ca:	0e 94 94 0d 	call	0x1b28	; 0x1b28 <LCD_setCursorXY>
	LCD_puts ((uint8_t*)" A : Reglage");
    39ce:	85 ec       	ldi	r24, 0xC5	; 197
    39d0:	92 e0       	ldi	r25, 0x02	; 2
    39d2:	0e 94 5d 0e 	call	0x1cba	; 0x1cba <LCD_puts>
	LCD_setCursorXY(3,60);
    39d6:	6c e3       	ldi	r22, 0x3C	; 60
    39d8:	83 e0       	ldi	r24, 0x03	; 3
    39da:	0e 94 94 0d 	call	0x1b28	; 0x1b28 <LCD_setCursorXY>
	LCD_puts ((uint8_t*)" B : BACK");
    39de:	82 ed       	ldi	r24, 0xD2	; 210
    39e0:	92 e0       	ldi	r25, 0x02	; 2
    39e2:	0e 94 5d 0e 	call	0x1cba	; 0x1cba <LCD_puts>
	return ST_PID_TE;
}
    39e6:	82 e4       	ldi	r24, 0x42	; 66
    39e8:	64 96       	adiw	r28, 0x14	; 20
    39ea:	0f b6       	in	r0, 0x3f	; 63
    39ec:	f8 94       	cli
    39ee:	de bf       	out	0x3e, r29	; 62
    39f0:	0f be       	out	0x3f, r0	; 63
    39f2:	cd bf       	out	0x3d, r28	; 61
    39f4:	df 91       	pop	r29
    39f6:	cf 91       	pop	r28
    39f8:	1f 91       	pop	r17
    39fa:	0f 91       	pop	r16
    39fc:	08 95       	ret

000039fe <Fct_pid_te_change>:


char Fct_pid_te_change(char input)
{
    39fe:	0f 93       	push	r16
    3a00:	1f 93       	push	r17
    3a02:	cf 93       	push	r28
    3a04:	df 93       	push	r29
    3a06:	cd b7       	in	r28, 0x3d	; 61
    3a08:	de b7       	in	r29, 0x3e	; 62
    3a0a:	64 97       	sbiw	r28, 0x14	; 20
    3a0c:	0f b6       	in	r0, 0x3f	; 63
    3a0e:	f8 94       	cli
    3a10:	de bf       	out	0x3e, r29	; 62
    3a12:	0f be       	out	0x3f, r0	; 63
    3a14:	cd bf       	out	0x3d, r28	; 61
	input=Previous_Button;
    3a16:	10 91 21 0b 	lds	r17, 0x0B21	; 0x800b21 <Previous_Button>
    3a1a:	4a e0       	ldi	r20, 0x0A	; 10
    3a1c:	be 01       	movw	r22, r28
    3a1e:	6f 5f       	subi	r22, 0xFF	; 255
    3a20:	7f 4f       	sbci	r23, 0xFF	; 255
    3a22:	81 2f       	mov	r24, r17
    3a24:	90 e0       	ldi	r25, 0x00	; 0
    3a26:	0e 94 60 26 	call	0x4cc0	; 0x4cc0 <__itoa_ncheck>
	
	char buffer[20];
	itoa(input,buffer,10);
	Usart_Tx_String(buffer);
    3a2a:	ce 01       	movw	r24, r28
    3a2c:	01 96       	adiw	r24, 0x01	; 1
    3a2e:	0e 94 36 26 	call	0x4c6c	; 0x4c6c <Usart_Tx_String>
	Usart_Tx_String("\n");
    3a32:	84 e4       	ldi	r24, 0x44	; 68
    3a34:	99 e0       	ldi	r25, 0x09	; 9
    3a36:	0e 94 36 26 	call	0x4c6c	; 0x4c6c <Usart_Tx_String>
	if(position!=0)
    3a3a:	e0 91 94 09 	lds	r30, 0x0994	; 0x800994 <position>
    3a3e:	ee 23       	and	r30, r30
    3a40:	31 f0       	breq	.+12     	; 0x3a4e <Fct_pid_te_change+0x50>
	{
		te[position-1]=input-1;
    3a42:	f0 e0       	ldi	r31, 0x00	; 0
    3a44:	ee 5a       	subi	r30, 0xAE	; 174
    3a46:	f5 4f       	sbci	r31, 0xF5	; 245
    3a48:	11 50       	subi	r17, 0x01	; 1
    3a4a:	10 83       	st	Z, r17
    3a4c:	07 c0       	rjmp	.+14     	; 0x3a5c <Fct_pid_te_change+0x5e>
	}
	else IDCB_Clignotement_ti = OSEnregistrerCB_TIMER(clignotementti,500);
    3a4e:	64 ef       	ldi	r22, 0xF4	; 244
    3a50:	71 e0       	ldi	r23, 0x01	; 1
    3a52:	85 ef       	ldi	r24, 0xF5	; 245
    3a54:	9f e0       	ldi	r25, 0x0F	; 15
    3a56:	85 d6       	rcall	.+3338   	; 0x4762 <OSEnregistrerCB_TIMER>
    3a58:	80 93 20 0b 	sts	0x0B20, r24	; 0x800b20 <IDCB_Clignotement_ti>
	LCD_clr();
    3a5c:	0e 94 f3 0d 	call	0x1be6	; 0x1be6 <LCD_clr>
	LCD_setCursorXY(5,0);
    3a60:	60 e0       	ldi	r22, 0x00	; 0
    3a62:	85 e0       	ldi	r24, 0x05	; 5
    3a64:	0e 94 94 0d 	call	0x1b28	; 0x1b28 <LCD_setCursorXY>
	LCD_puts ((uint8_t*)"Periode echantillon:");
    3a68:	8b e1       	ldi	r24, 0x1B	; 27
    3a6a:	98 e0       	ldi	r25, 0x08	; 8
    3a6c:	0e 94 5d 0e 	call	0x1cba	; 0x1cba <LCD_puts>
	LCD_setCursorXY(0,20);
    3a70:	64 e1       	ldi	r22, 0x14	; 20
    3a72:	80 e0       	ldi	r24, 0x00	; 0
    3a74:	0e 94 94 0d 	call	0x1b28	; 0x1b28 <LCD_setCursorXY>
	itoa(te[0],buffer,10);
    3a78:	03 e5       	ldi	r16, 0x53	; 83
    3a7a:	1a e0       	ldi	r17, 0x0A	; 10
    3a7c:	f8 01       	movw	r30, r16
    3a7e:	80 81       	ld	r24, Z
    3a80:	4a e0       	ldi	r20, 0x0A	; 10
    3a82:	be 01       	movw	r22, r28
    3a84:	6f 5f       	subi	r22, 0xFF	; 255
    3a86:	7f 4f       	sbci	r23, 0xFF	; 255
    3a88:	90 e0       	ldi	r25, 0x00	; 0
    3a8a:	0e 94 60 26 	call	0x4cc0	; 0x4cc0 <__itoa_ncheck>
	LCD_puts (buffer);
    3a8e:	ce 01       	movw	r24, r28
    3a90:	01 96       	adiw	r24, 0x01	; 1
    3a92:	0e 94 5d 0e 	call	0x1cba	; 0x1cba <LCD_puts>
	itoa(te[1],buffer,10);
    3a96:	f8 01       	movw	r30, r16
    3a98:	81 81       	ldd	r24, Z+1	; 0x01
    3a9a:	4a e0       	ldi	r20, 0x0A	; 10
    3a9c:	be 01       	movw	r22, r28
    3a9e:	6f 5f       	subi	r22, 0xFF	; 255
    3aa0:	7f 4f       	sbci	r23, 0xFF	; 255
    3aa2:	90 e0       	ldi	r25, 0x00	; 0
    3aa4:	0e 94 60 26 	call	0x4cc0	; 0x4cc0 <__itoa_ncheck>
	LCD_puts (buffer);
    3aa8:	ce 01       	movw	r24, r28
    3aaa:	01 96       	adiw	r24, 0x01	; 1
    3aac:	0e 94 5d 0e 	call	0x1cba	; 0x1cba <LCD_puts>
	itoa(te[2],buffer,10);
    3ab0:	f8 01       	movw	r30, r16
    3ab2:	82 81       	ldd	r24, Z+2	; 0x02
    3ab4:	4a e0       	ldi	r20, 0x0A	; 10
    3ab6:	be 01       	movw	r22, r28
    3ab8:	6f 5f       	subi	r22, 0xFF	; 255
    3aba:	7f 4f       	sbci	r23, 0xFF	; 255
    3abc:	90 e0       	ldi	r25, 0x00	; 0
    3abe:	0e 94 60 26 	call	0x4cc0	; 0x4cc0 <__itoa_ncheck>
	LCD_puts (buffer);
    3ac2:	ce 01       	movw	r24, r28
    3ac4:	01 96       	adiw	r24, 0x01	; 1
    3ac6:	0e 94 5d 0e 	call	0x1cba	; 0x1cba <LCD_puts>
	itoa(te[3],buffer,10);
    3aca:	f8 01       	movw	r30, r16
    3acc:	83 81       	ldd	r24, Z+3	; 0x03
    3ace:	4a e0       	ldi	r20, 0x0A	; 10
    3ad0:	be 01       	movw	r22, r28
    3ad2:	6f 5f       	subi	r22, 0xFF	; 255
    3ad4:	7f 4f       	sbci	r23, 0xFF	; 255
    3ad6:	90 e0       	ldi	r25, 0x00	; 0
    3ad8:	0e 94 60 26 	call	0x4cc0	; 0x4cc0 <__itoa_ncheck>
	LCD_puts (buffer);
    3adc:	ce 01       	movw	r24, r28
    3ade:	01 96       	adiw	r24, 0x01	; 1
    3ae0:	0e 94 5d 0e 	call	0x1cba	; 0x1cba <LCD_puts>
	itoa(te[4],buffer,10);
    3ae4:	f8 01       	movw	r30, r16
    3ae6:	84 81       	ldd	r24, Z+4	; 0x04
    3ae8:	4a e0       	ldi	r20, 0x0A	; 10
    3aea:	be 01       	movw	r22, r28
    3aec:	6f 5f       	subi	r22, 0xFF	; 255
    3aee:	7f 4f       	sbci	r23, 0xFF	; 255
    3af0:	90 e0       	ldi	r25, 0x00	; 0
    3af2:	0e 94 60 26 	call	0x4cc0	; 0x4cc0 <__itoa_ncheck>
	LCD_puts (buffer);
    3af6:	ce 01       	movw	r24, r28
    3af8:	01 96       	adiw	r24, 0x01	; 1
    3afa:	0e 94 5d 0e 	call	0x1cba	; 0x1cba <LCD_puts>
	
	
	position++;
    3afe:	80 91 94 09 	lds	r24, 0x0994	; 0x800994 <position>
    3b02:	8f 5f       	subi	r24, 0xFF	; 255
	if(position==6)
    3b04:	86 30       	cpi	r24, 0x06	; 6
    3b06:	21 f0       	breq	.+8      	; 0x3b10 <Fct_pid_te_change+0x112>
	LCD_puts (buffer);
	itoa(te[4],buffer,10);
	LCD_puts (buffer);
	
	
	position++;
    3b08:	80 93 94 09 	sts	0x0994, r24	; 0x800994 <position>
		Usart_Tx_String("\n");
		
		OSRetirerCB_TIMER(IDCB_Clignotement_ti);
		return FCT_PID_TE;
	}
	else return ST_PID_TE_CHANGE;
    3b0c:	86 e6       	ldi	r24, 0x66	; 102
    3b0e:	4a c0       	rjmp	.+148    	; 0x3ba4 <Fct_pid_te_change+0x1a6>
	
	
	position++;
	if(position==6)
	{
		position=0;
    3b10:	10 92 94 09 	sts	0x0994, r1	; 0x800994 <position>
		EEPROM_save_te();
    3b14:	0e 94 bc 09 	call	0x1378	; 0x1378 <EEPROM_save_te>
		te_int = (int)te[4]+(10*((int)te[3]))+(100*((int)te[2]))+(1000*((int)te[1]))+(10000*((int)te[0]));
    3b18:	e3 e5       	ldi	r30, 0x53	; 83
    3b1a:	fa e0       	ldi	r31, 0x0A	; 10
    3b1c:	24 81       	ldd	r18, Z+4	; 0x04
    3b1e:	83 81       	ldd	r24, Z+3	; 0x03
    3b20:	90 e0       	ldi	r25, 0x00	; 0
    3b22:	ac 01       	movw	r20, r24
    3b24:	44 0f       	add	r20, r20
    3b26:	55 1f       	adc	r21, r21
    3b28:	88 0f       	add	r24, r24
    3b2a:	99 1f       	adc	r25, r25
    3b2c:	88 0f       	add	r24, r24
    3b2e:	99 1f       	adc	r25, r25
    3b30:	88 0f       	add	r24, r24
    3b32:	99 1f       	adc	r25, r25
    3b34:	84 0f       	add	r24, r20
    3b36:	95 1f       	adc	r25, r21
    3b38:	82 0f       	add	r24, r18
    3b3a:	91 1d       	adc	r25, r1
    3b3c:	22 81       	ldd	r18, Z+2	; 0x02
    3b3e:	34 e6       	ldi	r19, 0x64	; 100
    3b40:	23 9f       	mul	r18, r19
    3b42:	80 0d       	add	r24, r0
    3b44:	91 1d       	adc	r25, r1
    3b46:	11 24       	eor	r1, r1
    3b48:	61 81       	ldd	r22, Z+1	; 0x01
    3b4a:	48 ee       	ldi	r20, 0xE8	; 232
    3b4c:	53 e0       	ldi	r21, 0x03	; 3
    3b4e:	64 9f       	mul	r22, r20
    3b50:	90 01       	movw	r18, r0
    3b52:	65 9f       	mul	r22, r21
    3b54:	30 0d       	add	r19, r0
    3b56:	11 24       	eor	r1, r1
    3b58:	82 0f       	add	r24, r18
    3b5a:	93 1f       	adc	r25, r19
    3b5c:	60 81       	ld	r22, Z
    3b5e:	40 e1       	ldi	r20, 0x10	; 16
    3b60:	57 e2       	ldi	r21, 0x27	; 39
    3b62:	64 9f       	mul	r22, r20
    3b64:	90 01       	movw	r18, r0
    3b66:	65 9f       	mul	r22, r21
    3b68:	30 0d       	add	r19, r0
    3b6a:	11 24       	eor	r1, r1
    3b6c:	82 0f       	add	r24, r18
    3b6e:	93 1f       	adc	r25, r19
    3b70:	90 93 83 09 	sts	0x0983, r25	; 0x800983 <te_int+0x1>
    3b74:	80 93 82 09 	sts	0x0982, r24	; 0x800982 <te_int>
    3b78:	4a e0       	ldi	r20, 0x0A	; 10
    3b7a:	be 01       	movw	r22, r28
    3b7c:	6f 5f       	subi	r22, 0xFF	; 255
    3b7e:	7f 4f       	sbci	r23, 0xFF	; 255
    3b80:	0e 94 60 26 	call	0x4cc0	; 0x4cc0 <__itoa_ncheck>
		itoa(te_int,buffer,10);
		Usart_Tx_String("Periode echantillon:");
    3b84:	8b e1       	ldi	r24, 0x1B	; 27
    3b86:	98 e0       	ldi	r25, 0x08	; 8
    3b88:	0e 94 36 26 	call	0x4c6c	; 0x4c6c <Usart_Tx_String>
		Usart_Tx_String(buffer);
    3b8c:	ce 01       	movw	r24, r28
    3b8e:	01 96       	adiw	r24, 0x01	; 1
    3b90:	0e 94 36 26 	call	0x4c6c	; 0x4c6c <Usart_Tx_String>
		Usart_Tx_String("\n");
    3b94:	84 e4       	ldi	r24, 0x44	; 68
    3b96:	99 e0       	ldi	r25, 0x09	; 9
    3b98:	0e 94 36 26 	call	0x4c6c	; 0x4c6c <Usart_Tx_String>
		
		OSRetirerCB_TIMER(IDCB_Clignotement_ti);
    3b9c:	80 91 20 0b 	lds	r24, 0x0B20	; 0x800b20 <IDCB_Clignotement_ti>
    3ba0:	0c d6       	rcall	.+3096   	; 0x47ba <OSRetirerCB_TIMER>
		return FCT_PID_TE;
    3ba2:	83 e4       	ldi	r24, 0x43	; 67
	}
	else return ST_PID_TE_CHANGE;
	
	
}
    3ba4:	64 96       	adiw	r28, 0x14	; 20
    3ba6:	0f b6       	in	r0, 0x3f	; 63
    3ba8:	f8 94       	cli
    3baa:	de bf       	out	0x3e, r29	; 62
    3bac:	0f be       	out	0x3f, r0	; 63
    3bae:	cd bf       	out	0x3d, r28	; 61
    3bb0:	df 91       	pop	r29
    3bb2:	cf 91       	pop	r28
    3bb4:	1f 91       	pop	r17
    3bb6:	0f 91       	pop	r16
    3bb8:	08 95       	ret

00003bba <Fct_pid_out0>:


char Fct_pid_out0(char input)
{
    3bba:	0f 93       	push	r16
    3bbc:	1f 93       	push	r17
    3bbe:	cf 93       	push	r28
    3bc0:	df 93       	push	r29
    3bc2:	cd b7       	in	r28, 0x3d	; 61
    3bc4:	de b7       	in	r29, 0x3e	; 62
    3bc6:	64 97       	sbiw	r28, 0x14	; 20
    3bc8:	0f b6       	in	r0, 0x3f	; 63
    3bca:	f8 94       	cli
    3bcc:	de bf       	out	0x3e, r29	; 62
    3bce:	0f be       	out	0x3f, r0	; 63
    3bd0:	cd bf       	out	0x3d, r28	; 61
	EEPROM_read_out0();
    3bd2:	0e 94 34 05 	call	0xa68	; 0xa68 <EEPROM_read_out0>
	char buffer[20];
	LCD_clr();
    3bd6:	0e 94 f3 0d 	call	0x1be6	; 0x1be6 <LCD_clr>
	LCD_setCursorXY(5,0);
    3bda:	60 e0       	ldi	r22, 0x00	; 0
    3bdc:	85 e0       	ldi	r24, 0x05	; 5
    3bde:	0e 94 94 0d 	call	0x1b28	; 0x1b28 <LCD_setCursorXY>
	LCD_puts ((uint8_t*)"Commande residuelle");
    3be2:	80 e3       	ldi	r24, 0x30	; 48
    3be4:	98 e0       	ldi	r25, 0x08	; 8
    3be6:	0e 94 5d 0e 	call	0x1cba	; 0x1cba <LCD_puts>
	LCD_setCursorXY(0,20);
    3bea:	64 e1       	ldi	r22, 0x14	; 20
    3bec:	80 e0       	ldi	r24, 0x00	; 0
    3bee:	0e 94 94 0d 	call	0x1b28	; 0x1b28 <LCD_setCursorXY>
	itoa(out0[0],buffer,10);
    3bf2:	00 e5       	ldi	r16, 0x50	; 80
    3bf4:	1a e0       	ldi	r17, 0x0A	; 10
    3bf6:	f8 01       	movw	r30, r16
    3bf8:	80 81       	ld	r24, Z
    3bfa:	4a e0       	ldi	r20, 0x0A	; 10
    3bfc:	be 01       	movw	r22, r28
    3bfe:	6f 5f       	subi	r22, 0xFF	; 255
    3c00:	7f 4f       	sbci	r23, 0xFF	; 255
    3c02:	90 e0       	ldi	r25, 0x00	; 0
    3c04:	0e 94 60 26 	call	0x4cc0	; 0x4cc0 <__itoa_ncheck>
	LCD_puts (buffer);
    3c08:	ce 01       	movw	r24, r28
    3c0a:	01 96       	adiw	r24, 0x01	; 1
    3c0c:	0e 94 5d 0e 	call	0x1cba	; 0x1cba <LCD_puts>
	LCD_puts ((uint8_t*)".");
    3c10:	80 e5       	ldi	r24, 0x50	; 80
    3c12:	91 e0       	ldi	r25, 0x01	; 1
    3c14:	0e 94 5d 0e 	call	0x1cba	; 0x1cba <LCD_puts>
	itoa(out0[1],buffer,10);
    3c18:	f8 01       	movw	r30, r16
    3c1a:	81 81       	ldd	r24, Z+1	; 0x01
    3c1c:	4a e0       	ldi	r20, 0x0A	; 10
    3c1e:	be 01       	movw	r22, r28
    3c20:	6f 5f       	subi	r22, 0xFF	; 255
    3c22:	7f 4f       	sbci	r23, 0xFF	; 255
    3c24:	90 e0       	ldi	r25, 0x00	; 0
    3c26:	0e 94 60 26 	call	0x4cc0	; 0x4cc0 <__itoa_ncheck>
	LCD_puts (buffer);
    3c2a:	ce 01       	movw	r24, r28
    3c2c:	01 96       	adiw	r24, 0x01	; 1
    3c2e:	0e 94 5d 0e 	call	0x1cba	; 0x1cba <LCD_puts>
	itoa(out0[2],buffer,10);
    3c32:	f8 01       	movw	r30, r16
    3c34:	82 81       	ldd	r24, Z+2	; 0x02
    3c36:	4a e0       	ldi	r20, 0x0A	; 10
    3c38:	be 01       	movw	r22, r28
    3c3a:	6f 5f       	subi	r22, 0xFF	; 255
    3c3c:	7f 4f       	sbci	r23, 0xFF	; 255
    3c3e:	90 e0       	ldi	r25, 0x00	; 0
    3c40:	0e 94 60 26 	call	0x4cc0	; 0x4cc0 <__itoa_ncheck>
	LCD_puts (buffer);
    3c44:	ce 01       	movw	r24, r28
    3c46:	01 96       	adiw	r24, 0x01	; 1
    3c48:	0e 94 5d 0e 	call	0x1cba	; 0x1cba <LCD_puts>
	LCD_setCursorXY(3,40);
    3c4c:	68 e2       	ldi	r22, 0x28	; 40
    3c4e:	83 e0       	ldi	r24, 0x03	; 3
    3c50:	0e 94 94 0d 	call	0x1b28	; 0x1b28 <LCD_setCursorXY>
	LCD_puts ((uint8_t*)" A : Reglage");
    3c54:	85 ec       	ldi	r24, 0xC5	; 197
    3c56:	92 e0       	ldi	r25, 0x02	; 2
    3c58:	0e 94 5d 0e 	call	0x1cba	; 0x1cba <LCD_puts>
	LCD_setCursorXY(3,60);
    3c5c:	6c e3       	ldi	r22, 0x3C	; 60
    3c5e:	83 e0       	ldi	r24, 0x03	; 3
    3c60:	0e 94 94 0d 	call	0x1b28	; 0x1b28 <LCD_setCursorXY>
	LCD_puts ((uint8_t*)" B : BACK");
    3c64:	82 ed       	ldi	r24, 0xD2	; 210
    3c66:	92 e0       	ldi	r25, 0x02	; 2
    3c68:	0e 94 5d 0e 	call	0x1cba	; 0x1cba <LCD_puts>
	return ST_PID_OUT0;
}
    3c6c:	84 e4       	ldi	r24, 0x44	; 68
    3c6e:	64 96       	adiw	r28, 0x14	; 20
    3c70:	0f b6       	in	r0, 0x3f	; 63
    3c72:	f8 94       	cli
    3c74:	de bf       	out	0x3e, r29	; 62
    3c76:	0f be       	out	0x3f, r0	; 63
    3c78:	cd bf       	out	0x3d, r28	; 61
    3c7a:	df 91       	pop	r29
    3c7c:	cf 91       	pop	r28
    3c7e:	1f 91       	pop	r17
    3c80:	0f 91       	pop	r16
    3c82:	08 95       	ret

00003c84 <Fct_pid_out0_change>:


char Fct_pid_out0_change(char input)
{
    3c84:	0f 93       	push	r16
    3c86:	1f 93       	push	r17
    3c88:	cf 93       	push	r28
    3c8a:	df 93       	push	r29
    3c8c:	cd b7       	in	r28, 0x3d	; 61
    3c8e:	de b7       	in	r29, 0x3e	; 62
    3c90:	64 97       	sbiw	r28, 0x14	; 20
    3c92:	0f b6       	in	r0, 0x3f	; 63
    3c94:	f8 94       	cli
    3c96:	de bf       	out	0x3e, r29	; 62
    3c98:	0f be       	out	0x3f, r0	; 63
    3c9a:	cd bf       	out	0x3d, r28	; 61
	input=Previous_Button;
    3c9c:	10 91 21 0b 	lds	r17, 0x0B21	; 0x800b21 <Previous_Button>
    3ca0:	4a e0       	ldi	r20, 0x0A	; 10
    3ca2:	be 01       	movw	r22, r28
    3ca4:	6f 5f       	subi	r22, 0xFF	; 255
    3ca6:	7f 4f       	sbci	r23, 0xFF	; 255
    3ca8:	81 2f       	mov	r24, r17
    3caa:	90 e0       	ldi	r25, 0x00	; 0
    3cac:	0e 94 60 26 	call	0x4cc0	; 0x4cc0 <__itoa_ncheck>
	
	char buffer[20];
	itoa(input,buffer,10);
	Usart_Tx_String(buffer);
    3cb0:	ce 01       	movw	r24, r28
    3cb2:	01 96       	adiw	r24, 0x01	; 1
    3cb4:	db d7       	rcall	.+4022   	; 0x4c6c <Usart_Tx_String>
	Usart_Tx_String("\n");
    3cb6:	84 e4       	ldi	r24, 0x44	; 68
    3cb8:	99 e0       	ldi	r25, 0x09	; 9
    3cba:	d8 d7       	rcall	.+4016   	; 0x4c6c <Usart_Tx_String>
	if(position!=0)
    3cbc:	e0 91 94 09 	lds	r30, 0x0994	; 0x800994 <position>
    3cc0:	ee 23       	and	r30, r30
    3cc2:	31 f0       	breq	.+12     	; 0x3cd0 <Fct_pid_out0_change+0x4c>
	{
		out0[position-1]=input-1;
    3cc4:	f0 e0       	ldi	r31, 0x00	; 0
    3cc6:	e1 5b       	subi	r30, 0xB1	; 177
    3cc8:	f5 4f       	sbci	r31, 0xF5	; 245
    3cca:	11 50       	subi	r17, 0x01	; 1
    3ccc:	10 83       	st	Z, r17
    3cce:	07 c0       	rjmp	.+14     	; 0x3cde <Fct_pid_out0_change+0x5a>
	}
	else IDCB_Clignotement_consigne = OSEnregistrerCB_TIMER(clignotementconsigne,500);
    3cd0:	64 ef       	ldi	r22, 0xF4	; 244
    3cd2:	71 e0       	ldi	r23, 0x01	; 1
    3cd4:	81 e2       	ldi	r24, 0x21	; 33
    3cd6:	90 e1       	ldi	r25, 0x10	; 16
    3cd8:	44 d5       	rcall	.+2696   	; 0x4762 <OSEnregistrerCB_TIMER>
    3cda:	80 93 1b 0b 	sts	0x0B1B, r24	; 0x800b1b <IDCB_Clignotement_consigne>
	LCD_clr();
    3cde:	0e 94 f3 0d 	call	0x1be6	; 0x1be6 <LCD_clr>
	LCD_setCursorXY(5,0);
    3ce2:	60 e0       	ldi	r22, 0x00	; 0
    3ce4:	85 e0       	ldi	r24, 0x05	; 5
    3ce6:	0e 94 94 0d 	call	0x1b28	; 0x1b28 <LCD_setCursorXY>
	LCD_puts ((uint8_t*)"Commande residuelle:");
    3cea:	84 e4       	ldi	r24, 0x44	; 68
    3cec:	98 e0       	ldi	r25, 0x08	; 8
    3cee:	0e 94 5d 0e 	call	0x1cba	; 0x1cba <LCD_puts>
	LCD_setCursorXY(0,20);
    3cf2:	64 e1       	ldi	r22, 0x14	; 20
    3cf4:	80 e0       	ldi	r24, 0x00	; 0
    3cf6:	0e 94 94 0d 	call	0x1b28	; 0x1b28 <LCD_setCursorXY>
	itoa(out0[0],buffer,10);
    3cfa:	00 e5       	ldi	r16, 0x50	; 80
    3cfc:	1a e0       	ldi	r17, 0x0A	; 10
    3cfe:	f8 01       	movw	r30, r16
    3d00:	80 81       	ld	r24, Z
    3d02:	4a e0       	ldi	r20, 0x0A	; 10
    3d04:	be 01       	movw	r22, r28
    3d06:	6f 5f       	subi	r22, 0xFF	; 255
    3d08:	7f 4f       	sbci	r23, 0xFF	; 255
    3d0a:	90 e0       	ldi	r25, 0x00	; 0
    3d0c:	d9 d7       	rcall	.+4018   	; 0x4cc0 <__itoa_ncheck>
	LCD_puts (buffer);
    3d0e:	ce 01       	movw	r24, r28
    3d10:	01 96       	adiw	r24, 0x01	; 1
    3d12:	0e 94 5d 0e 	call	0x1cba	; 0x1cba <LCD_puts>
	LCD_puts ((uint8_t*)".");
    3d16:	80 e5       	ldi	r24, 0x50	; 80
    3d18:	91 e0       	ldi	r25, 0x01	; 1
    3d1a:	0e 94 5d 0e 	call	0x1cba	; 0x1cba <LCD_puts>
	itoa(out0[1],buffer,10);
    3d1e:	f8 01       	movw	r30, r16
    3d20:	81 81       	ldd	r24, Z+1	; 0x01
    3d22:	4a e0       	ldi	r20, 0x0A	; 10
    3d24:	be 01       	movw	r22, r28
    3d26:	6f 5f       	subi	r22, 0xFF	; 255
    3d28:	7f 4f       	sbci	r23, 0xFF	; 255
    3d2a:	90 e0       	ldi	r25, 0x00	; 0
    3d2c:	c9 d7       	rcall	.+3986   	; 0x4cc0 <__itoa_ncheck>
	LCD_puts (buffer);
    3d2e:	ce 01       	movw	r24, r28
    3d30:	01 96       	adiw	r24, 0x01	; 1
    3d32:	0e 94 5d 0e 	call	0x1cba	; 0x1cba <LCD_puts>
	itoa(out0[2],buffer,10);
    3d36:	f8 01       	movw	r30, r16
    3d38:	82 81       	ldd	r24, Z+2	; 0x02
    3d3a:	4a e0       	ldi	r20, 0x0A	; 10
    3d3c:	be 01       	movw	r22, r28
    3d3e:	6f 5f       	subi	r22, 0xFF	; 255
    3d40:	7f 4f       	sbci	r23, 0xFF	; 255
    3d42:	90 e0       	ldi	r25, 0x00	; 0
    3d44:	bd d7       	rcall	.+3962   	; 0x4cc0 <__itoa_ncheck>
	LCD_puts (buffer);
    3d46:	ce 01       	movw	r24, r28
    3d48:	01 96       	adiw	r24, 0x01	; 1
    3d4a:	0e 94 5d 0e 	call	0x1cba	; 0x1cba <LCD_puts>
	
	
	position++;
    3d4e:	80 91 94 09 	lds	r24, 0x0994	; 0x800994 <position>
    3d52:	8f 5f       	subi	r24, 0xFF	; 255
	if(position==4)
    3d54:	84 30       	cpi	r24, 0x04	; 4
    3d56:	21 f0       	breq	.+8      	; 0x3d60 <Fct_pid_out0_change+0xdc>
	LCD_puts (buffer);
	itoa(out0[2],buffer,10);
	LCD_puts (buffer);
	
	
	position++;
    3d58:	80 93 94 09 	sts	0x0994, r24	; 0x800994 <position>
		Usart_Tx_String("\n");
		
		OSRetirerCB_TIMER(IDCB_Clignotement_consigne);
		return FCT_PID_OUT0;
	}
	else return ST_PID_OUT0_CHANGE;
    3d5c:	88 e6       	ldi	r24, 0x68	; 104
    3d5e:	36 c0       	rjmp	.+108    	; 0x3dcc <Fct_pid_out0_change+0x148>
	
	
	position++;
	if(position==4)
	{
		position=0;
    3d60:	10 92 94 09 	sts	0x0994, r1	; 0x800994 <position>
		EEPROM_save_out0();
    3d64:	0e 94 d6 09 	call	0x13ac	; 0x13ac <EEPROM_save_out0>
		out0_int = (int)out0[2]+(10*((int)out0[1]))+(100*((int)out0[0]));
    3d68:	e0 e5       	ldi	r30, 0x50	; 80
    3d6a:	fa e0       	ldi	r31, 0x0A	; 10
    3d6c:	22 81       	ldd	r18, Z+2	; 0x02
    3d6e:	81 81       	ldd	r24, Z+1	; 0x01
    3d70:	90 e0       	ldi	r25, 0x00	; 0
    3d72:	ac 01       	movw	r20, r24
    3d74:	44 0f       	add	r20, r20
    3d76:	55 1f       	adc	r21, r21
    3d78:	88 0f       	add	r24, r24
    3d7a:	99 1f       	adc	r25, r25
    3d7c:	88 0f       	add	r24, r24
    3d7e:	99 1f       	adc	r25, r25
    3d80:	88 0f       	add	r24, r24
    3d82:	99 1f       	adc	r25, r25
    3d84:	84 0f       	add	r24, r20
    3d86:	95 1f       	adc	r25, r21
    3d88:	82 0f       	add	r24, r18
    3d8a:	91 1d       	adc	r25, r1
    3d8c:	20 81       	ld	r18, Z
    3d8e:	f4 e6       	ldi	r31, 0x64	; 100
    3d90:	2f 9f       	mul	r18, r31
    3d92:	80 0d       	add	r24, r0
    3d94:	91 1d       	adc	r25, r1
    3d96:	11 24       	eor	r1, r1
    3d98:	90 93 81 09 	sts	0x0981, r25	; 0x800981 <out0_int+0x1>
    3d9c:	80 93 80 09 	sts	0x0980, r24	; 0x800980 <out0_int>
    3da0:	4a e0       	ldi	r20, 0x0A	; 10
    3da2:	be 01       	movw	r22, r28
    3da4:	6f 5f       	subi	r22, 0xFF	; 255
    3da6:	7f 4f       	sbci	r23, 0xFF	; 255
    3da8:	80 91 82 09 	lds	r24, 0x0982	; 0x800982 <te_int>
    3dac:	90 91 83 09 	lds	r25, 0x0983	; 0x800983 <te_int+0x1>
    3db0:	87 d7       	rcall	.+3854   	; 0x4cc0 <__itoa_ncheck>
		itoa(te_int,buffer,10);
		Usart_Tx_String("Commande residuelle:");
    3db2:	84 e4       	ldi	r24, 0x44	; 68
    3db4:	98 e0       	ldi	r25, 0x08	; 8
    3db6:	5a d7       	rcall	.+3764   	; 0x4c6c <Usart_Tx_String>
		Usart_Tx_String(buffer);
    3db8:	ce 01       	movw	r24, r28
    3dba:	01 96       	adiw	r24, 0x01	; 1
    3dbc:	57 d7       	rcall	.+3758   	; 0x4c6c <Usart_Tx_String>
		Usart_Tx_String("\n");
    3dbe:	84 e4       	ldi	r24, 0x44	; 68
    3dc0:	99 e0       	ldi	r25, 0x09	; 9
    3dc2:	54 d7       	rcall	.+3752   	; 0x4c6c <Usart_Tx_String>
		
		OSRetirerCB_TIMER(IDCB_Clignotement_consigne);
    3dc4:	80 91 1b 0b 	lds	r24, 0x0B1B	; 0x800b1b <IDCB_Clignotement_consigne>
    3dc8:	f8 d4       	rcall	.+2544   	; 0x47ba <OSRetirerCB_TIMER>
		return FCT_PID_OUT0;
    3dca:	85 e4       	ldi	r24, 0x45	; 69
	}
	else return ST_PID_OUT0_CHANGE;
	
	
}
    3dcc:	64 96       	adiw	r28, 0x14	; 20
    3dce:	0f b6       	in	r0, 0x3f	; 63
    3dd0:	f8 94       	cli
    3dd2:	de bf       	out	0x3e, r29	; 62
    3dd4:	0f be       	out	0x3f, r0	; 63
    3dd6:	cd bf       	out	0x3d, r28	; 61
    3dd8:	df 91       	pop	r29
    3dda:	cf 91       	pop	r28
    3ddc:	1f 91       	pop	r17
    3dde:	0f 91       	pop	r16
    3de0:	08 95       	ret

00003de2 <Fct_hysteresis>:


char Fct_hysteresis(char input)
{
	LCD_clr();
    3de2:	0e 94 f3 0d 	call	0x1be6	; 0x1be6 <LCD_clr>
	LCD_setCursorXY(1,0);
    3de6:	60 e0       	ldi	r22, 0x00	; 0
    3de8:	81 e0       	ldi	r24, 0x01	; 1
    3dea:	0e 94 94 0d 	call	0x1b28	; 0x1b28 <LCD_setCursorXY>
	LCD_puts ((uint8_t*)"HYSTERESIS PARAMETERS");
    3dee:	89 e5       	ldi	r24, 0x59	; 89
    3df0:	98 e0       	ldi	r25, 0x08	; 8
    3df2:	0e 94 5d 0e 	call	0x1cba	; 0x1cba <LCD_puts>
	LCD_setCursorXY(3,10);
    3df6:	6a e0       	ldi	r22, 0x0A	; 10
    3df8:	83 e0       	ldi	r24, 0x03	; 3
    3dfa:	0e 94 94 0d 	call	0x1b28	; 0x1b28 <LCD_setCursorXY>
	LCD_puts ((uint8_t*)"1.SET HIGH");
    3dfe:	8f e6       	ldi	r24, 0x6F	; 111
    3e00:	98 e0       	ldi	r25, 0x08	; 8
    3e02:	0e 94 5d 0e 	call	0x1cba	; 0x1cba <LCD_puts>
	LCD_setCursorXY(3,20);
    3e06:	64 e1       	ldi	r22, 0x14	; 20
    3e08:	83 e0       	ldi	r24, 0x03	; 3
    3e0a:	0e 94 94 0d 	call	0x1b28	; 0x1b28 <LCD_setCursorXY>
	LCD_puts ((uint8_t*)"2.SET LOW");
    3e0e:	8a e7       	ldi	r24, 0x7A	; 122
    3e10:	98 e0       	ldi	r25, 0x08	; 8
    3e12:	0e 94 5d 0e 	call	0x1cba	; 0x1cba <LCD_puts>
	LCD_setCursorXY(3,60);
    3e16:	6c e3       	ldi	r22, 0x3C	; 60
    3e18:	83 e0       	ldi	r24, 0x03	; 3
    3e1a:	0e 94 94 0d 	call	0x1b28	; 0x1b28 <LCD_setCursorXY>
	LCD_puts ((uint8_t*)" B : BACK");
    3e1e:	82 ed       	ldi	r24, 0xD2	; 210
    3e20:	92 e0       	ldi	r25, 0x02	; 2
    3e22:	0e 94 5d 0e 	call	0x1cba	; 0x1cba <LCD_puts>
	return ST_HYSTERESIS;
}
    3e26:	84 e3       	ldi	r24, 0x34	; 52
    3e28:	08 95       	ret

00003e2a <Fct_hysteresis_high>:

char Fct_hysteresis_high(char input)
{
    3e2a:	0f 93       	push	r16
    3e2c:	1f 93       	push	r17
    3e2e:	cf 93       	push	r28
    3e30:	df 93       	push	r29
    3e32:	cd b7       	in	r28, 0x3d	; 61
    3e34:	de b7       	in	r29, 0x3e	; 62
    3e36:	64 97       	sbiw	r28, 0x14	; 20
    3e38:	0f b6       	in	r0, 0x3f	; 63
    3e3a:	f8 94       	cli
    3e3c:	de bf       	out	0x3e, r29	; 62
    3e3e:	0f be       	out	0x3f, r0	; 63
    3e40:	cd bf       	out	0x3d, r28	; 61
	EEPROM_read_hysteresis_high();
    3e42:	0e 94 b0 04 	call	0x960	; 0x960 <EEPROM_read_hysteresis_high>
	char buffer[20];
	LCD_clr();
    3e46:	0e 94 f3 0d 	call	0x1be6	; 0x1be6 <LCD_clr>
	LCD_setCursorXY(45,0);
    3e4a:	60 e0       	ldi	r22, 0x00	; 0
    3e4c:	8d e2       	ldi	r24, 0x2D	; 45
    3e4e:	0e 94 94 0d 	call	0x1b28	; 0x1b28 <LCD_setCursorXY>
	LCD_puts ((uint8_t*)"SET HIGH");
    3e52:	81 e7       	ldi	r24, 0x71	; 113
    3e54:	98 e0       	ldi	r25, 0x08	; 8
    3e56:	0e 94 5d 0e 	call	0x1cba	; 0x1cba <LCD_puts>
	LCD_setCursorXY(0,20);
    3e5a:	64 e1       	ldi	r22, 0x14	; 20
    3e5c:	80 e0       	ldi	r24, 0x00	; 0
    3e5e:	0e 94 94 0d 	call	0x1b28	; 0x1b28 <LCD_setCursorXY>
	itoa(hysteresis_high[0],buffer,10);
    3e62:	0d e4       	ldi	r16, 0x4D	; 77
    3e64:	1a e0       	ldi	r17, 0x0A	; 10
    3e66:	f8 01       	movw	r30, r16
    3e68:	80 81       	ld	r24, Z
    3e6a:	4a e0       	ldi	r20, 0x0A	; 10
    3e6c:	be 01       	movw	r22, r28
    3e6e:	6f 5f       	subi	r22, 0xFF	; 255
    3e70:	7f 4f       	sbci	r23, 0xFF	; 255
    3e72:	90 e0       	ldi	r25, 0x00	; 0
    3e74:	25 d7       	rcall	.+3658   	; 0x4cc0 <__itoa_ncheck>
	LCD_puts (buffer);
    3e76:	ce 01       	movw	r24, r28
    3e78:	01 96       	adiw	r24, 0x01	; 1
    3e7a:	0e 94 5d 0e 	call	0x1cba	; 0x1cba <LCD_puts>
	LCD_puts ((uint8_t*)".");
    3e7e:	80 e5       	ldi	r24, 0x50	; 80
    3e80:	91 e0       	ldi	r25, 0x01	; 1
    3e82:	0e 94 5d 0e 	call	0x1cba	; 0x1cba <LCD_puts>
	itoa(hysteresis_high[1],buffer,10);
    3e86:	f8 01       	movw	r30, r16
    3e88:	81 81       	ldd	r24, Z+1	; 0x01
    3e8a:	4a e0       	ldi	r20, 0x0A	; 10
    3e8c:	be 01       	movw	r22, r28
    3e8e:	6f 5f       	subi	r22, 0xFF	; 255
    3e90:	7f 4f       	sbci	r23, 0xFF	; 255
    3e92:	90 e0       	ldi	r25, 0x00	; 0
    3e94:	15 d7       	rcall	.+3626   	; 0x4cc0 <__itoa_ncheck>
	LCD_puts (buffer);
    3e96:	ce 01       	movw	r24, r28
    3e98:	01 96       	adiw	r24, 0x01	; 1
    3e9a:	0e 94 5d 0e 	call	0x1cba	; 0x1cba <LCD_puts>
	itoa(hysteresis_high[2],buffer,10);
    3e9e:	f8 01       	movw	r30, r16
    3ea0:	82 81       	ldd	r24, Z+2	; 0x02
    3ea2:	4a e0       	ldi	r20, 0x0A	; 10
    3ea4:	be 01       	movw	r22, r28
    3ea6:	6f 5f       	subi	r22, 0xFF	; 255
    3ea8:	7f 4f       	sbci	r23, 0xFF	; 255
    3eaa:	90 e0       	ldi	r25, 0x00	; 0
    3eac:	09 d7       	rcall	.+3602   	; 0x4cc0 <__itoa_ncheck>
	LCD_puts (buffer);
    3eae:	ce 01       	movw	r24, r28
    3eb0:	01 96       	adiw	r24, 0x01	; 1
    3eb2:	0e 94 5d 0e 	call	0x1cba	; 0x1cba <LCD_puts>
	LCD_setCursorXY(3,40);
    3eb6:	68 e2       	ldi	r22, 0x28	; 40
    3eb8:	83 e0       	ldi	r24, 0x03	; 3
    3eba:	0e 94 94 0d 	call	0x1b28	; 0x1b28 <LCD_setCursorXY>
	LCD_puts ((uint8_t*)" A : Reglage");
    3ebe:	85 ec       	ldi	r24, 0xC5	; 197
    3ec0:	92 e0       	ldi	r25, 0x02	; 2
    3ec2:	0e 94 5d 0e 	call	0x1cba	; 0x1cba <LCD_puts>
	LCD_setCursorXY(3,60);
    3ec6:	6c e3       	ldi	r22, 0x3C	; 60
    3ec8:	83 e0       	ldi	r24, 0x03	; 3
    3eca:	0e 94 94 0d 	call	0x1b28	; 0x1b28 <LCD_setCursorXY>
	LCD_puts ((uint8_t*)" B : BACK");
    3ece:	82 ed       	ldi	r24, 0xD2	; 210
    3ed0:	92 e0       	ldi	r25, 0x02	; 2
    3ed2:	0e 94 5d 0e 	call	0x1cba	; 0x1cba <LCD_puts>
	return ST_HYSTERESIS_HIGH;
}
    3ed6:	86 e3       	ldi	r24, 0x36	; 54
    3ed8:	64 96       	adiw	r28, 0x14	; 20
    3eda:	0f b6       	in	r0, 0x3f	; 63
    3edc:	f8 94       	cli
    3ede:	de bf       	out	0x3e, r29	; 62
    3ee0:	0f be       	out	0x3f, r0	; 63
    3ee2:	cd bf       	out	0x3d, r28	; 61
    3ee4:	df 91       	pop	r29
    3ee6:	cf 91       	pop	r28
    3ee8:	1f 91       	pop	r17
    3eea:	0f 91       	pop	r16
    3eec:	08 95       	ret

00003eee <Fct_hysteresis_high_change>:


char Fct_hysteresis_high_change(char input)
{
    3eee:	0f 93       	push	r16
    3ef0:	1f 93       	push	r17
    3ef2:	cf 93       	push	r28
    3ef4:	df 93       	push	r29
    3ef6:	cd b7       	in	r28, 0x3d	; 61
    3ef8:	de b7       	in	r29, 0x3e	; 62
    3efa:	64 97       	sbiw	r28, 0x14	; 20
    3efc:	0f b6       	in	r0, 0x3f	; 63
    3efe:	f8 94       	cli
    3f00:	de bf       	out	0x3e, r29	; 62
    3f02:	0f be       	out	0x3f, r0	; 63
    3f04:	cd bf       	out	0x3d, r28	; 61
	input=Previous_Button;
    3f06:	10 91 21 0b 	lds	r17, 0x0B21	; 0x800b21 <Previous_Button>
    3f0a:	4a e0       	ldi	r20, 0x0A	; 10
    3f0c:	be 01       	movw	r22, r28
    3f0e:	6f 5f       	subi	r22, 0xFF	; 255
    3f10:	7f 4f       	sbci	r23, 0xFF	; 255
    3f12:	81 2f       	mov	r24, r17
    3f14:	90 e0       	ldi	r25, 0x00	; 0
    3f16:	d4 d6       	rcall	.+3496   	; 0x4cc0 <__itoa_ncheck>
	
	char buffer[20];
	itoa(input,buffer,10);
	Usart_Tx_String(buffer);
    3f18:	ce 01       	movw	r24, r28
    3f1a:	01 96       	adiw	r24, 0x01	; 1
    3f1c:	a7 d6       	rcall	.+3406   	; 0x4c6c <Usart_Tx_String>
	Usart_Tx_String("\n");
    3f1e:	84 e4       	ldi	r24, 0x44	; 68
    3f20:	99 e0       	ldi	r25, 0x09	; 9
    3f22:	a4 d6       	rcall	.+3400   	; 0x4c6c <Usart_Tx_String>
	if(position!=0)
    3f24:	e0 91 94 09 	lds	r30, 0x0994	; 0x800994 <position>
    3f28:	ee 23       	and	r30, r30
    3f2a:	31 f0       	breq	.+12     	; 0x3f38 <Fct_hysteresis_high_change+0x4a>
	{
		hysteresis_high[position-1]=input-1;
    3f2c:	f0 e0       	ldi	r31, 0x00	; 0
    3f2e:	e4 5b       	subi	r30, 0xB4	; 180
    3f30:	f5 4f       	sbci	r31, 0xF5	; 245
    3f32:	11 50       	subi	r17, 0x01	; 1
    3f34:	10 83       	st	Z, r17
    3f36:	07 c0       	rjmp	.+14     	; 0x3f46 <Fct_hysteresis_high_change+0x58>
	}
	else IDCB_Clignotement_consigne = OSEnregistrerCB_TIMER(clignotementconsigne,500);
    3f38:	64 ef       	ldi	r22, 0xF4	; 244
    3f3a:	71 e0       	ldi	r23, 0x01	; 1
    3f3c:	81 e2       	ldi	r24, 0x21	; 33
    3f3e:	90 e1       	ldi	r25, 0x10	; 16
    3f40:	10 d4       	rcall	.+2080   	; 0x4762 <OSEnregistrerCB_TIMER>
    3f42:	80 93 1b 0b 	sts	0x0B1B, r24	; 0x800b1b <IDCB_Clignotement_consigne>
	LCD_clr();
    3f46:	0e 94 f3 0d 	call	0x1be6	; 0x1be6 <LCD_clr>
	LCD_setCursorXY(35,0);
    3f4a:	60 e0       	ldi	r22, 0x00	; 0
    3f4c:	83 e2       	ldi	r24, 0x23	; 35
    3f4e:	0e 94 94 0d 	call	0x1b28	; 0x1b28 <LCD_setCursorXY>
	LCD_puts ((uint8_t*)"SET HIGH:");
    3f52:	84 e8       	ldi	r24, 0x84	; 132
    3f54:	98 e0       	ldi	r25, 0x08	; 8
    3f56:	0e 94 5d 0e 	call	0x1cba	; 0x1cba <LCD_puts>
	LCD_setCursorXY(0,20);
    3f5a:	64 e1       	ldi	r22, 0x14	; 20
    3f5c:	80 e0       	ldi	r24, 0x00	; 0
    3f5e:	0e 94 94 0d 	call	0x1b28	; 0x1b28 <LCD_setCursorXY>
	itoa(hysteresis_high[0],buffer,10);
    3f62:	0d e4       	ldi	r16, 0x4D	; 77
    3f64:	1a e0       	ldi	r17, 0x0A	; 10
    3f66:	f8 01       	movw	r30, r16
    3f68:	80 81       	ld	r24, Z
    3f6a:	4a e0       	ldi	r20, 0x0A	; 10
    3f6c:	be 01       	movw	r22, r28
    3f6e:	6f 5f       	subi	r22, 0xFF	; 255
    3f70:	7f 4f       	sbci	r23, 0xFF	; 255
    3f72:	90 e0       	ldi	r25, 0x00	; 0
    3f74:	a5 d6       	rcall	.+3402   	; 0x4cc0 <__itoa_ncheck>
	LCD_puts (buffer);
    3f76:	ce 01       	movw	r24, r28
    3f78:	01 96       	adiw	r24, 0x01	; 1
    3f7a:	0e 94 5d 0e 	call	0x1cba	; 0x1cba <LCD_puts>
	LCD_puts ((uint8_t*)".");
    3f7e:	80 e5       	ldi	r24, 0x50	; 80
    3f80:	91 e0       	ldi	r25, 0x01	; 1
    3f82:	0e 94 5d 0e 	call	0x1cba	; 0x1cba <LCD_puts>
	itoa(hysteresis_high[1],buffer,10);
    3f86:	f8 01       	movw	r30, r16
    3f88:	81 81       	ldd	r24, Z+1	; 0x01
    3f8a:	4a e0       	ldi	r20, 0x0A	; 10
    3f8c:	be 01       	movw	r22, r28
    3f8e:	6f 5f       	subi	r22, 0xFF	; 255
    3f90:	7f 4f       	sbci	r23, 0xFF	; 255
    3f92:	90 e0       	ldi	r25, 0x00	; 0
    3f94:	95 d6       	rcall	.+3370   	; 0x4cc0 <__itoa_ncheck>
	LCD_puts (buffer);
    3f96:	ce 01       	movw	r24, r28
    3f98:	01 96       	adiw	r24, 0x01	; 1
    3f9a:	0e 94 5d 0e 	call	0x1cba	; 0x1cba <LCD_puts>
	itoa(hysteresis_high[2],buffer,10);
    3f9e:	f8 01       	movw	r30, r16
    3fa0:	82 81       	ldd	r24, Z+2	; 0x02
    3fa2:	4a e0       	ldi	r20, 0x0A	; 10
    3fa4:	be 01       	movw	r22, r28
    3fa6:	6f 5f       	subi	r22, 0xFF	; 255
    3fa8:	7f 4f       	sbci	r23, 0xFF	; 255
    3faa:	90 e0       	ldi	r25, 0x00	; 0
    3fac:	89 d6       	rcall	.+3346   	; 0x4cc0 <__itoa_ncheck>
	LCD_puts (buffer);
    3fae:	ce 01       	movw	r24, r28
    3fb0:	01 96       	adiw	r24, 0x01	; 1
    3fb2:	0e 94 5d 0e 	call	0x1cba	; 0x1cba <LCD_puts>
	
	
	position++;
    3fb6:	80 91 94 09 	lds	r24, 0x0994	; 0x800994 <position>
    3fba:	8f 5f       	subi	r24, 0xFF	; 255
	if(position==4)
    3fbc:	84 30       	cpi	r24, 0x04	; 4
    3fbe:	21 f0       	breq	.+8      	; 0x3fc8 <Fct_hysteresis_high_change+0xda>
	LCD_puts (buffer);
	itoa(hysteresis_high[2],buffer,10);
	LCD_puts (buffer);
	
	
	position++;
    3fc0:	80 93 94 09 	sts	0x0994, r24	; 0x800994 <position>
		Usart_Tx_String("\n");
		
		OSRetirerCB_TIMER(IDCB_Clignotement_consigne);
		return FCT_HYSTERESIS_HIGH;
	}
	else return ST_HYSTERESIS_HIGH_CHANGE;
    3fc4:	8a e6       	ldi	r24, 0x6A	; 106
    3fc6:	32 c0       	rjmp	.+100    	; 0x402c <Fct_hysteresis_high_change+0x13e>
	
	
	position++;
	if(position==4)
	{
		position=0;
    3fc8:	10 92 94 09 	sts	0x0994, r1	; 0x800994 <position>
		EEPROM_save_hysteresis_high();
    3fcc:	0e 94 52 09 	call	0x12a4	; 0x12a4 <EEPROM_save_hysteresis_high>
		hysteresis_high_int = (int)hysteresis_high[2]+(10*((int)hysteresis_high[1]))+(100*((int)hysteresis_high[0]));
    3fd0:	ed e4       	ldi	r30, 0x4D	; 77
    3fd2:	fa e0       	ldi	r31, 0x0A	; 10
    3fd4:	42 81       	ldd	r20, Z+2	; 0x02
    3fd6:	21 81       	ldd	r18, Z+1	; 0x01
    3fd8:	30 e0       	ldi	r19, 0x00	; 0
    3fda:	c9 01       	movw	r24, r18
    3fdc:	88 0f       	add	r24, r24
    3fde:	99 1f       	adc	r25, r25
    3fe0:	22 0f       	add	r18, r18
    3fe2:	33 1f       	adc	r19, r19
    3fe4:	22 0f       	add	r18, r18
    3fe6:	33 1f       	adc	r19, r19
    3fe8:	22 0f       	add	r18, r18
    3fea:	33 1f       	adc	r19, r19
    3fec:	82 0f       	add	r24, r18
    3fee:	93 1f       	adc	r25, r19
    3ff0:	84 0f       	add	r24, r20
    3ff2:	91 1d       	adc	r25, r1
    3ff4:	20 81       	ld	r18, Z
    3ff6:	f4 e6       	ldi	r31, 0x64	; 100
    3ff8:	2f 9f       	mul	r18, r31
    3ffa:	80 0d       	add	r24, r0
    3ffc:	91 1d       	adc	r25, r1
    3ffe:	11 24       	eor	r1, r1
    4000:	90 93 7f 09 	sts	0x097F, r25	; 0x80097f <hysteresis_high_int+0x1>
    4004:	80 93 7e 09 	sts	0x097E, r24	; 0x80097e <hysteresis_high_int>
    4008:	4a e0       	ldi	r20, 0x0A	; 10
    400a:	be 01       	movw	r22, r28
    400c:	6f 5f       	subi	r22, 0xFF	; 255
    400e:	7f 4f       	sbci	r23, 0xFF	; 255
    4010:	57 d6       	rcall	.+3246   	; 0x4cc0 <__itoa_ncheck>
		itoa(hysteresis_high_int,buffer,10);
		Usart_Tx_String("Hysteresis haut:");
    4012:	8e e8       	ldi	r24, 0x8E	; 142
    4014:	98 e0       	ldi	r25, 0x08	; 8
    4016:	2a d6       	rcall	.+3156   	; 0x4c6c <Usart_Tx_String>
		Usart_Tx_String(buffer);
    4018:	ce 01       	movw	r24, r28
    401a:	01 96       	adiw	r24, 0x01	; 1
    401c:	27 d6       	rcall	.+3150   	; 0x4c6c <Usart_Tx_String>
		Usart_Tx_String("\n");
    401e:	84 e4       	ldi	r24, 0x44	; 68
    4020:	99 e0       	ldi	r25, 0x09	; 9
    4022:	24 d6       	rcall	.+3144   	; 0x4c6c <Usart_Tx_String>
		
		OSRetirerCB_TIMER(IDCB_Clignotement_consigne);
    4024:	80 91 1b 0b 	lds	r24, 0x0B1B	; 0x800b1b <IDCB_Clignotement_consigne>
    4028:	c8 d3       	rcall	.+1936   	; 0x47ba <OSRetirerCB_TIMER>
		return FCT_HYSTERESIS_HIGH;
    402a:	87 e3       	ldi	r24, 0x37	; 55
	}
	else return ST_HYSTERESIS_HIGH_CHANGE;
	
	
}
    402c:	64 96       	adiw	r28, 0x14	; 20
    402e:	0f b6       	in	r0, 0x3f	; 63
    4030:	f8 94       	cli
    4032:	de bf       	out	0x3e, r29	; 62
    4034:	0f be       	out	0x3f, r0	; 63
    4036:	cd bf       	out	0x3d, r28	; 61
    4038:	df 91       	pop	r29
    403a:	cf 91       	pop	r28
    403c:	1f 91       	pop	r17
    403e:	0f 91       	pop	r16
    4040:	08 95       	ret

00004042 <Fct_hysteresis_low>:


char Fct_hysteresis_low(char input)
{
    4042:	0f 93       	push	r16
    4044:	1f 93       	push	r17
    4046:	cf 93       	push	r28
    4048:	df 93       	push	r29
    404a:	cd b7       	in	r28, 0x3d	; 61
    404c:	de b7       	in	r29, 0x3e	; 62
    404e:	64 97       	sbiw	r28, 0x14	; 20
    4050:	0f b6       	in	r0, 0x3f	; 63
    4052:	f8 94       	cli
    4054:	de bf       	out	0x3e, r29	; 62
    4056:	0f be       	out	0x3f, r0	; 63
    4058:	cd bf       	out	0x3d, r28	; 61
	EEPROM_read_hysteresis_low();
    405a:	0e 94 c2 04 	call	0x984	; 0x984 <EEPROM_read_hysteresis_low>
	char buffer[20];
	LCD_clr();
    405e:	0e 94 f3 0d 	call	0x1be6	; 0x1be6 <LCD_clr>
	LCD_setCursorXY(45,0);
    4062:	60 e0       	ldi	r22, 0x00	; 0
    4064:	8d e2       	ldi	r24, 0x2D	; 45
    4066:	0e 94 94 0d 	call	0x1b28	; 0x1b28 <LCD_setCursorXY>
	LCD_puts ((uint8_t*)"SET LOW");
    406a:	8c e7       	ldi	r24, 0x7C	; 124
    406c:	98 e0       	ldi	r25, 0x08	; 8
    406e:	0e 94 5d 0e 	call	0x1cba	; 0x1cba <LCD_puts>
	LCD_setCursorXY(0,20);
    4072:	64 e1       	ldi	r22, 0x14	; 20
    4074:	80 e0       	ldi	r24, 0x00	; 0
    4076:	0e 94 94 0d 	call	0x1b28	; 0x1b28 <LCD_setCursorXY>
	itoa(hysteresis_low[0],buffer,10);
    407a:	0a e4       	ldi	r16, 0x4A	; 74
    407c:	1a e0       	ldi	r17, 0x0A	; 10
    407e:	f8 01       	movw	r30, r16
    4080:	80 81       	ld	r24, Z
    4082:	4a e0       	ldi	r20, 0x0A	; 10
    4084:	be 01       	movw	r22, r28
    4086:	6f 5f       	subi	r22, 0xFF	; 255
    4088:	7f 4f       	sbci	r23, 0xFF	; 255
    408a:	90 e0       	ldi	r25, 0x00	; 0
    408c:	19 d6       	rcall	.+3122   	; 0x4cc0 <__itoa_ncheck>
	LCD_puts (buffer);
    408e:	ce 01       	movw	r24, r28
    4090:	01 96       	adiw	r24, 0x01	; 1
    4092:	0e 94 5d 0e 	call	0x1cba	; 0x1cba <LCD_puts>
	LCD_puts ((uint8_t*)".");
    4096:	80 e5       	ldi	r24, 0x50	; 80
    4098:	91 e0       	ldi	r25, 0x01	; 1
    409a:	0e 94 5d 0e 	call	0x1cba	; 0x1cba <LCD_puts>
	itoa(hysteresis_low[1],buffer,10);
    409e:	f8 01       	movw	r30, r16
    40a0:	81 81       	ldd	r24, Z+1	; 0x01
    40a2:	4a e0       	ldi	r20, 0x0A	; 10
    40a4:	be 01       	movw	r22, r28
    40a6:	6f 5f       	subi	r22, 0xFF	; 255
    40a8:	7f 4f       	sbci	r23, 0xFF	; 255
    40aa:	90 e0       	ldi	r25, 0x00	; 0
    40ac:	09 d6       	rcall	.+3090   	; 0x4cc0 <__itoa_ncheck>
	LCD_puts (buffer);
    40ae:	ce 01       	movw	r24, r28
    40b0:	01 96       	adiw	r24, 0x01	; 1
    40b2:	0e 94 5d 0e 	call	0x1cba	; 0x1cba <LCD_puts>
	itoa(hysteresis_low[2],buffer,10);
    40b6:	f8 01       	movw	r30, r16
    40b8:	82 81       	ldd	r24, Z+2	; 0x02
    40ba:	4a e0       	ldi	r20, 0x0A	; 10
    40bc:	be 01       	movw	r22, r28
    40be:	6f 5f       	subi	r22, 0xFF	; 255
    40c0:	7f 4f       	sbci	r23, 0xFF	; 255
    40c2:	90 e0       	ldi	r25, 0x00	; 0
    40c4:	fd d5       	rcall	.+3066   	; 0x4cc0 <__itoa_ncheck>
	LCD_puts (buffer);
    40c6:	ce 01       	movw	r24, r28
    40c8:	01 96       	adiw	r24, 0x01	; 1
    40ca:	0e 94 5d 0e 	call	0x1cba	; 0x1cba <LCD_puts>
	LCD_setCursorXY(3,40);
    40ce:	68 e2       	ldi	r22, 0x28	; 40
    40d0:	83 e0       	ldi	r24, 0x03	; 3
    40d2:	0e 94 94 0d 	call	0x1b28	; 0x1b28 <LCD_setCursorXY>
	LCD_puts ((uint8_t*)" A : Reglage");
    40d6:	85 ec       	ldi	r24, 0xC5	; 197
    40d8:	92 e0       	ldi	r25, 0x02	; 2
    40da:	0e 94 5d 0e 	call	0x1cba	; 0x1cba <LCD_puts>
	LCD_setCursorXY(3,60);
    40de:	6c e3       	ldi	r22, 0x3C	; 60
    40e0:	83 e0       	ldi	r24, 0x03	; 3
    40e2:	0e 94 94 0d 	call	0x1b28	; 0x1b28 <LCD_setCursorXY>
	LCD_puts ((uint8_t*)" B : BACK");
    40e6:	82 ed       	ldi	r24, 0xD2	; 210
    40e8:	92 e0       	ldi	r25, 0x02	; 2
    40ea:	0e 94 5d 0e 	call	0x1cba	; 0x1cba <LCD_puts>
	return ST_HYSTERESIS_LOW;
}
    40ee:	88 e3       	ldi	r24, 0x38	; 56
    40f0:	64 96       	adiw	r28, 0x14	; 20
    40f2:	0f b6       	in	r0, 0x3f	; 63
    40f4:	f8 94       	cli
    40f6:	de bf       	out	0x3e, r29	; 62
    40f8:	0f be       	out	0x3f, r0	; 63
    40fa:	cd bf       	out	0x3d, r28	; 61
    40fc:	df 91       	pop	r29
    40fe:	cf 91       	pop	r28
    4100:	1f 91       	pop	r17
    4102:	0f 91       	pop	r16
    4104:	08 95       	ret

00004106 <Fct_hysteresis_low_change>:


char Fct_hysteresis_low_change(char input)
{
    4106:	0f 93       	push	r16
    4108:	1f 93       	push	r17
    410a:	cf 93       	push	r28
    410c:	df 93       	push	r29
    410e:	cd b7       	in	r28, 0x3d	; 61
    4110:	de b7       	in	r29, 0x3e	; 62
    4112:	64 97       	sbiw	r28, 0x14	; 20
    4114:	0f b6       	in	r0, 0x3f	; 63
    4116:	f8 94       	cli
    4118:	de bf       	out	0x3e, r29	; 62
    411a:	0f be       	out	0x3f, r0	; 63
    411c:	cd bf       	out	0x3d, r28	; 61
	input=Previous_Button;
    411e:	10 91 21 0b 	lds	r17, 0x0B21	; 0x800b21 <Previous_Button>
    4122:	4a e0       	ldi	r20, 0x0A	; 10
    4124:	be 01       	movw	r22, r28
    4126:	6f 5f       	subi	r22, 0xFF	; 255
    4128:	7f 4f       	sbci	r23, 0xFF	; 255
    412a:	81 2f       	mov	r24, r17
    412c:	90 e0       	ldi	r25, 0x00	; 0
    412e:	c8 d5       	rcall	.+2960   	; 0x4cc0 <__itoa_ncheck>
	
	char buffer[20];
	itoa(input,buffer,10);
	Usart_Tx_String(buffer);
    4130:	ce 01       	movw	r24, r28
    4132:	01 96       	adiw	r24, 0x01	; 1
    4134:	9b d5       	rcall	.+2870   	; 0x4c6c <Usart_Tx_String>
	Usart_Tx_String("\n");
    4136:	84 e4       	ldi	r24, 0x44	; 68
    4138:	99 e0       	ldi	r25, 0x09	; 9
    413a:	98 d5       	rcall	.+2864   	; 0x4c6c <Usart_Tx_String>
	if(position!=0)
    413c:	e0 91 94 09 	lds	r30, 0x0994	; 0x800994 <position>
    4140:	ee 23       	and	r30, r30
    4142:	31 f0       	breq	.+12     	; 0x4150 <Fct_hysteresis_low_change+0x4a>
	{
		hysteresis_low[position-1]=input-1;
    4144:	f0 e0       	ldi	r31, 0x00	; 0
    4146:	e7 5b       	subi	r30, 0xB7	; 183
    4148:	f5 4f       	sbci	r31, 0xF5	; 245
    414a:	11 50       	subi	r17, 0x01	; 1
    414c:	10 83       	st	Z, r17
    414e:	07 c0       	rjmp	.+14     	; 0x415e <Fct_hysteresis_low_change+0x58>
	}
	else IDCB_Clignotement_consigne = OSEnregistrerCB_TIMER(clignotementconsigne,500);
    4150:	64 ef       	ldi	r22, 0xF4	; 244
    4152:	71 e0       	ldi	r23, 0x01	; 1
    4154:	81 e2       	ldi	r24, 0x21	; 33
    4156:	90 e1       	ldi	r25, 0x10	; 16
    4158:	04 d3       	rcall	.+1544   	; 0x4762 <OSEnregistrerCB_TIMER>
    415a:	80 93 1b 0b 	sts	0x0B1B, r24	; 0x800b1b <IDCB_Clignotement_consigne>
	LCD_clr();
    415e:	0e 94 f3 0d 	call	0x1be6	; 0x1be6 <LCD_clr>
	LCD_setCursorXY(35,0);
    4162:	60 e0       	ldi	r22, 0x00	; 0
    4164:	83 e2       	ldi	r24, 0x23	; 35
    4166:	0e 94 94 0d 	call	0x1b28	; 0x1b28 <LCD_setCursorXY>
	LCD_puts ((uint8_t*)"SET LOW:");
    416a:	8f e9       	ldi	r24, 0x9F	; 159
    416c:	98 e0       	ldi	r25, 0x08	; 8
    416e:	0e 94 5d 0e 	call	0x1cba	; 0x1cba <LCD_puts>
	LCD_setCursorXY(0,20);
    4172:	64 e1       	ldi	r22, 0x14	; 20
    4174:	80 e0       	ldi	r24, 0x00	; 0
    4176:	0e 94 94 0d 	call	0x1b28	; 0x1b28 <LCD_setCursorXY>
	itoa(hysteresis_low[0],buffer,10);
    417a:	0a e4       	ldi	r16, 0x4A	; 74
    417c:	1a e0       	ldi	r17, 0x0A	; 10
    417e:	f8 01       	movw	r30, r16
    4180:	80 81       	ld	r24, Z
    4182:	4a e0       	ldi	r20, 0x0A	; 10
    4184:	be 01       	movw	r22, r28
    4186:	6f 5f       	subi	r22, 0xFF	; 255
    4188:	7f 4f       	sbci	r23, 0xFF	; 255
    418a:	90 e0       	ldi	r25, 0x00	; 0
    418c:	99 d5       	rcall	.+2866   	; 0x4cc0 <__itoa_ncheck>
	LCD_puts (buffer);
    418e:	ce 01       	movw	r24, r28
    4190:	01 96       	adiw	r24, 0x01	; 1
    4192:	0e 94 5d 0e 	call	0x1cba	; 0x1cba <LCD_puts>
	LCD_puts ((uint8_t*)".");
    4196:	80 e5       	ldi	r24, 0x50	; 80
    4198:	91 e0       	ldi	r25, 0x01	; 1
    419a:	0e 94 5d 0e 	call	0x1cba	; 0x1cba <LCD_puts>
	itoa(hysteresis_low[1],buffer,10);
    419e:	f8 01       	movw	r30, r16
    41a0:	81 81       	ldd	r24, Z+1	; 0x01
    41a2:	4a e0       	ldi	r20, 0x0A	; 10
    41a4:	be 01       	movw	r22, r28
    41a6:	6f 5f       	subi	r22, 0xFF	; 255
    41a8:	7f 4f       	sbci	r23, 0xFF	; 255
    41aa:	90 e0       	ldi	r25, 0x00	; 0
    41ac:	89 d5       	rcall	.+2834   	; 0x4cc0 <__itoa_ncheck>
	LCD_puts (buffer);
    41ae:	ce 01       	movw	r24, r28
    41b0:	01 96       	adiw	r24, 0x01	; 1
    41b2:	0e 94 5d 0e 	call	0x1cba	; 0x1cba <LCD_puts>
	itoa(hysteresis_low[2],buffer,10);
    41b6:	f8 01       	movw	r30, r16
    41b8:	82 81       	ldd	r24, Z+2	; 0x02
    41ba:	4a e0       	ldi	r20, 0x0A	; 10
    41bc:	be 01       	movw	r22, r28
    41be:	6f 5f       	subi	r22, 0xFF	; 255
    41c0:	7f 4f       	sbci	r23, 0xFF	; 255
    41c2:	90 e0       	ldi	r25, 0x00	; 0
    41c4:	7d d5       	rcall	.+2810   	; 0x4cc0 <__itoa_ncheck>
	LCD_puts (buffer);
    41c6:	ce 01       	movw	r24, r28
    41c8:	01 96       	adiw	r24, 0x01	; 1
    41ca:	0e 94 5d 0e 	call	0x1cba	; 0x1cba <LCD_puts>
	
	
	position++;
    41ce:	80 91 94 09 	lds	r24, 0x0994	; 0x800994 <position>
    41d2:	8f 5f       	subi	r24, 0xFF	; 255
	if(position==4)
    41d4:	84 30       	cpi	r24, 0x04	; 4
    41d6:	21 f0       	breq	.+8      	; 0x41e0 <Fct_hysteresis_low_change+0xda>
	LCD_puts (buffer);
	itoa(hysteresis_low[2],buffer,10);
	LCD_puts (buffer);
	
	
	position++;
    41d8:	80 93 94 09 	sts	0x0994, r24	; 0x800994 <position>
		Usart_Tx_String("\n");
		
		OSRetirerCB_TIMER(IDCB_Clignotement_consigne);
		return FCT_HYSTERESIS_LOW;
	}
	else return ST_HYSTERESIS_LOW_CHANGE;
    41dc:	8c e6       	ldi	r24, 0x6C	; 108
    41de:	32 c0       	rjmp	.+100    	; 0x4244 <Fct_hysteresis_low_change+0x13e>
	
	
	position++;
	if(position==4)
	{
		position=0;
    41e0:	10 92 94 09 	sts	0x0994, r1	; 0x800994 <position>
		EEPROM_save_hysteresis_low();
    41e4:	0e 94 64 09 	call	0x12c8	; 0x12c8 <EEPROM_save_hysteresis_low>
		hysteresis_low_int = (int)hysteresis_low[2]+(10*((int)hysteresis_low[1]))+(100*((int)hysteresis_low[0]));
    41e8:	ea e4       	ldi	r30, 0x4A	; 74
    41ea:	fa e0       	ldi	r31, 0x0A	; 10
    41ec:	42 81       	ldd	r20, Z+2	; 0x02
    41ee:	21 81       	ldd	r18, Z+1	; 0x01
    41f0:	30 e0       	ldi	r19, 0x00	; 0
    41f2:	c9 01       	movw	r24, r18
    41f4:	88 0f       	add	r24, r24
    41f6:	99 1f       	adc	r25, r25
    41f8:	22 0f       	add	r18, r18
    41fa:	33 1f       	adc	r19, r19
    41fc:	22 0f       	add	r18, r18
    41fe:	33 1f       	adc	r19, r19
    4200:	22 0f       	add	r18, r18
    4202:	33 1f       	adc	r19, r19
    4204:	82 0f       	add	r24, r18
    4206:	93 1f       	adc	r25, r19
    4208:	84 0f       	add	r24, r20
    420a:	91 1d       	adc	r25, r1
    420c:	20 81       	ld	r18, Z
    420e:	f4 e6       	ldi	r31, 0x64	; 100
    4210:	2f 9f       	mul	r18, r31
    4212:	80 0d       	add	r24, r0
    4214:	91 1d       	adc	r25, r1
    4216:	11 24       	eor	r1, r1
    4218:	90 93 7d 09 	sts	0x097D, r25	; 0x80097d <__data_end+0x1>
    421c:	80 93 7c 09 	sts	0x097C, r24	; 0x80097c <__data_end>
    4220:	4a e0       	ldi	r20, 0x0A	; 10
    4222:	be 01       	movw	r22, r28
    4224:	6f 5f       	subi	r22, 0xFF	; 255
    4226:	7f 4f       	sbci	r23, 0xFF	; 255
    4228:	4b d5       	rcall	.+2710   	; 0x4cc0 <__itoa_ncheck>
		itoa(hysteresis_low_int,buffer,10);
		Usart_Tx_String("Hysteresis bas:");
    422a:	88 ea       	ldi	r24, 0xA8	; 168
    422c:	98 e0       	ldi	r25, 0x08	; 8
    422e:	1e d5       	rcall	.+2620   	; 0x4c6c <Usart_Tx_String>
		Usart_Tx_String(buffer);
    4230:	ce 01       	movw	r24, r28
    4232:	01 96       	adiw	r24, 0x01	; 1
    4234:	1b d5       	rcall	.+2614   	; 0x4c6c <Usart_Tx_String>
		Usart_Tx_String("\n");
    4236:	84 e4       	ldi	r24, 0x44	; 68
    4238:	99 e0       	ldi	r25, 0x09	; 9
    423a:	18 d5       	rcall	.+2608   	; 0x4c6c <Usart_Tx_String>
		
		OSRetirerCB_TIMER(IDCB_Clignotement_consigne);
    423c:	80 91 1b 0b 	lds	r24, 0x0B1B	; 0x800b1b <IDCB_Clignotement_consigne>
    4240:	bc d2       	rcall	.+1400   	; 0x47ba <OSRetirerCB_TIMER>
		return FCT_HYSTERESIS_LOW;
    4242:	89 e3       	ldi	r24, 0x39	; 57
	}
	else return ST_HYSTERESIS_LOW_CHANGE;
	
	
}
    4244:	64 96       	adiw	r28, 0x14	; 20
    4246:	0f b6       	in	r0, 0x3f	; 63
    4248:	f8 94       	cli
    424a:	de bf       	out	0x3e, r29	; 62
    424c:	0f be       	out	0x3f, r0	; 63
    424e:	cd bf       	out	0x3d, r28	; 61
    4250:	df 91       	pop	r29
    4252:	cf 91       	pop	r28
    4254:	1f 91       	pop	r17
    4256:	0f 91       	pop	r16
    4258:	08 95       	ret

0000425a <Fct_time_date>:



char Fct_time_date(char input)
{
    425a:	0f 93       	push	r16
    425c:	1f 93       	push	r17
    425e:	cf 93       	push	r28
    4260:	df 93       	push	r29
    4262:	cd b7       	in	r28, 0x3d	; 61
    4264:	de b7       	in	r29, 0x3e	; 62
    4266:	64 97       	sbiw	r28, 0x14	; 20
    4268:	0f b6       	in	r0, 0x3f	; 63
    426a:	f8 94       	cli
    426c:	de bf       	out	0x3e, r29	; 62
    426e:	0f be       	out	0x3f, r0	; 63
    4270:	cd bf       	out	0x3d, r28	; 61
	LCD_clr();
    4272:	0e 94 f3 0d 	call	0x1be6	; 0x1be6 <LCD_clr>
	LCD_setCursorXY(10,0);
    4276:	60 e0       	ldi	r22, 0x00	; 0
    4278:	8a e0       	ldi	r24, 0x0A	; 10
    427a:	0e 94 94 0d 	call	0x1b28	; 0x1b28 <LCD_setCursorXY>
	char buffer[20];
	LCD_puts ((uint8_t*)"REGLAGE DATE HEURE");
    427e:	88 eb       	ldi	r24, 0xB8	; 184
    4280:	98 e0       	ldi	r25, 0x08	; 8
    4282:	0e 94 5d 0e 	call	0x1cba	; 0x1cba <LCD_puts>
	LCD_setCursorXY(0,20);
    4286:	64 e1       	ldi	r22, 0x14	; 20
    4288:	80 e0       	ldi	r24, 0x00	; 0
    428a:	0e 94 94 0d 	call	0x1b28	; 0x1b28 <LCD_setCursorXY>
	itoa(hour[0],buffer,10);
    428e:	01 e7       	ldi	r16, 0x71	; 113
    4290:	1a e0       	ldi	r17, 0x0A	; 10
    4292:	f8 01       	movw	r30, r16
    4294:	80 81       	ld	r24, Z
    4296:	4a e0       	ldi	r20, 0x0A	; 10
    4298:	be 01       	movw	r22, r28
    429a:	6f 5f       	subi	r22, 0xFF	; 255
    429c:	7f 4f       	sbci	r23, 0xFF	; 255
    429e:	90 e0       	ldi	r25, 0x00	; 0
    42a0:	0f d5       	rcall	.+2590   	; 0x4cc0 <__itoa_ncheck>
	LCD_puts (buffer);
    42a2:	ce 01       	movw	r24, r28
    42a4:	01 96       	adiw	r24, 0x01	; 1
    42a6:	0e 94 5d 0e 	call	0x1cba	; 0x1cba <LCD_puts>
	itoa(hour[1],buffer,10);
    42aa:	f8 01       	movw	r30, r16
    42ac:	81 81       	ldd	r24, Z+1	; 0x01
    42ae:	4a e0       	ldi	r20, 0x0A	; 10
    42b0:	be 01       	movw	r22, r28
    42b2:	6f 5f       	subi	r22, 0xFF	; 255
    42b4:	7f 4f       	sbci	r23, 0xFF	; 255
    42b6:	90 e0       	ldi	r25, 0x00	; 0
    42b8:	03 d5       	rcall	.+2566   	; 0x4cc0 <__itoa_ncheck>
	LCD_puts (buffer);
    42ba:	ce 01       	movw	r24, r28
    42bc:	01 96       	adiw	r24, 0x01	; 1
    42be:	0e 94 5d 0e 	call	0x1cba	; 0x1cba <LCD_puts>
	LCD_puts ((uint8_t*)":");
    42c2:	8b eb       	ldi	r24, 0xBB	; 187
    42c4:	94 e0       	ldi	r25, 0x04	; 4
    42c6:	0e 94 5d 0e 	call	0x1cba	; 0x1cba <LCD_puts>
	itoa(hour[2],buffer,10);
    42ca:	f8 01       	movw	r30, r16
    42cc:	82 81       	ldd	r24, Z+2	; 0x02
    42ce:	4a e0       	ldi	r20, 0x0A	; 10
    42d0:	be 01       	movw	r22, r28
    42d2:	6f 5f       	subi	r22, 0xFF	; 255
    42d4:	7f 4f       	sbci	r23, 0xFF	; 255
    42d6:	90 e0       	ldi	r25, 0x00	; 0
    42d8:	f3 d4       	rcall	.+2534   	; 0x4cc0 <__itoa_ncheck>
	LCD_puts (buffer);
    42da:	ce 01       	movw	r24, r28
    42dc:	01 96       	adiw	r24, 0x01	; 1
    42de:	0e 94 5d 0e 	call	0x1cba	; 0x1cba <LCD_puts>
	itoa(hour[3],buffer,10);
    42e2:	f8 01       	movw	r30, r16
    42e4:	83 81       	ldd	r24, Z+3	; 0x03
    42e6:	4a e0       	ldi	r20, 0x0A	; 10
    42e8:	be 01       	movw	r22, r28
    42ea:	6f 5f       	subi	r22, 0xFF	; 255
    42ec:	7f 4f       	sbci	r23, 0xFF	; 255
    42ee:	90 e0       	ldi	r25, 0x00	; 0
    42f0:	e7 d4       	rcall	.+2510   	; 0x4cc0 <__itoa_ncheck>
	LCD_puts (buffer);
    42f2:	ce 01       	movw	r24, r28
    42f4:	01 96       	adiw	r24, 0x01	; 1
    42f6:	0e 94 5d 0e 	call	0x1cba	; 0x1cba <LCD_puts>
	LCD_puts ((uint8_t*)":");
    42fa:	8b eb       	ldi	r24, 0xBB	; 187
    42fc:	94 e0       	ldi	r25, 0x04	; 4
    42fe:	0e 94 5d 0e 	call	0x1cba	; 0x1cba <LCD_puts>
	itoa(hour[4],buffer,10);
    4302:	f8 01       	movw	r30, r16
    4304:	84 81       	ldd	r24, Z+4	; 0x04
    4306:	4a e0       	ldi	r20, 0x0A	; 10
    4308:	be 01       	movw	r22, r28
    430a:	6f 5f       	subi	r22, 0xFF	; 255
    430c:	7f 4f       	sbci	r23, 0xFF	; 255
    430e:	90 e0       	ldi	r25, 0x00	; 0
    4310:	d7 d4       	rcall	.+2478   	; 0x4cc0 <__itoa_ncheck>
	LCD_puts (buffer);
    4312:	ce 01       	movw	r24, r28
    4314:	01 96       	adiw	r24, 0x01	; 1
    4316:	0e 94 5d 0e 	call	0x1cba	; 0x1cba <LCD_puts>
	itoa(hour[5],buffer,10);
    431a:	f8 01       	movw	r30, r16
    431c:	85 81       	ldd	r24, Z+5	; 0x05
    431e:	4a e0       	ldi	r20, 0x0A	; 10
    4320:	be 01       	movw	r22, r28
    4322:	6f 5f       	subi	r22, 0xFF	; 255
    4324:	7f 4f       	sbci	r23, 0xFF	; 255
    4326:	90 e0       	ldi	r25, 0x00	; 0
    4328:	cb d4       	rcall	.+2454   	; 0x4cc0 <__itoa_ncheck>
	LCD_puts (buffer);
    432a:	ce 01       	movw	r24, r28
    432c:	01 96       	adiw	r24, 0x01	; 1
    432e:	0e 94 5d 0e 	call	0x1cba	; 0x1cba <LCD_puts>
	
	LCD_setCursorXY(0,30);
    4332:	6e e1       	ldi	r22, 0x1E	; 30
    4334:	80 e0       	ldi	r24, 0x00	; 0
    4336:	0e 94 94 0d 	call	0x1b28	; 0x1b28 <LCD_setCursorXY>
	itoa(date[0],buffer,10);
    433a:	02 e0       	ldi	r16, 0x02	; 2
    433c:	11 e0       	ldi	r17, 0x01	; 1
    433e:	f8 01       	movw	r30, r16
    4340:	80 81       	ld	r24, Z
    4342:	4a e0       	ldi	r20, 0x0A	; 10
    4344:	be 01       	movw	r22, r28
    4346:	6f 5f       	subi	r22, 0xFF	; 255
    4348:	7f 4f       	sbci	r23, 0xFF	; 255
    434a:	90 e0       	ldi	r25, 0x00	; 0
    434c:	b9 d4       	rcall	.+2418   	; 0x4cc0 <__itoa_ncheck>
	LCD_puts (buffer);
    434e:	ce 01       	movw	r24, r28
    4350:	01 96       	adiw	r24, 0x01	; 1
    4352:	0e 94 5d 0e 	call	0x1cba	; 0x1cba <LCD_puts>
	itoa(date[1],buffer,10);
    4356:	f8 01       	movw	r30, r16
    4358:	81 81       	ldd	r24, Z+1	; 0x01
    435a:	4a e0       	ldi	r20, 0x0A	; 10
    435c:	be 01       	movw	r22, r28
    435e:	6f 5f       	subi	r22, 0xFF	; 255
    4360:	7f 4f       	sbci	r23, 0xFF	; 255
    4362:	90 e0       	ldi	r25, 0x00	; 0
    4364:	ad d4       	rcall	.+2394   	; 0x4cc0 <__itoa_ncheck>
	LCD_puts (buffer);
    4366:	ce 01       	movw	r24, r28
    4368:	01 96       	adiw	r24, 0x01	; 1
    436a:	0e 94 5d 0e 	call	0x1cba	; 0x1cba <LCD_puts>
	LCD_puts ((uint8_t*)"/");
    436e:	8b ec       	ldi	r24, 0xCB	; 203
    4370:	98 e0       	ldi	r25, 0x08	; 8
    4372:	0e 94 5d 0e 	call	0x1cba	; 0x1cba <LCD_puts>
	itoa(date[2],buffer,10);
    4376:	f8 01       	movw	r30, r16
    4378:	82 81       	ldd	r24, Z+2	; 0x02
    437a:	4a e0       	ldi	r20, 0x0A	; 10
    437c:	be 01       	movw	r22, r28
    437e:	6f 5f       	subi	r22, 0xFF	; 255
    4380:	7f 4f       	sbci	r23, 0xFF	; 255
    4382:	90 e0       	ldi	r25, 0x00	; 0
    4384:	9d d4       	rcall	.+2362   	; 0x4cc0 <__itoa_ncheck>
	LCD_puts (buffer);
    4386:	ce 01       	movw	r24, r28
    4388:	01 96       	adiw	r24, 0x01	; 1
    438a:	0e 94 5d 0e 	call	0x1cba	; 0x1cba <LCD_puts>
	itoa(date[3],buffer,10);
    438e:	f8 01       	movw	r30, r16
    4390:	83 81       	ldd	r24, Z+3	; 0x03
    4392:	4a e0       	ldi	r20, 0x0A	; 10
    4394:	be 01       	movw	r22, r28
    4396:	6f 5f       	subi	r22, 0xFF	; 255
    4398:	7f 4f       	sbci	r23, 0xFF	; 255
    439a:	90 e0       	ldi	r25, 0x00	; 0
    439c:	91 d4       	rcall	.+2338   	; 0x4cc0 <__itoa_ncheck>
	LCD_puts (buffer);
    439e:	ce 01       	movw	r24, r28
    43a0:	01 96       	adiw	r24, 0x01	; 1
    43a2:	0e 94 5d 0e 	call	0x1cba	; 0x1cba <LCD_puts>
	LCD_puts ((uint8_t*)"/");
    43a6:	8b ec       	ldi	r24, 0xCB	; 203
    43a8:	98 e0       	ldi	r25, 0x08	; 8
    43aa:	0e 94 5d 0e 	call	0x1cba	; 0x1cba <LCD_puts>
	itoa(date[4],buffer,10);
    43ae:	f8 01       	movw	r30, r16
    43b0:	84 81       	ldd	r24, Z+4	; 0x04
    43b2:	4a e0       	ldi	r20, 0x0A	; 10
    43b4:	be 01       	movw	r22, r28
    43b6:	6f 5f       	subi	r22, 0xFF	; 255
    43b8:	7f 4f       	sbci	r23, 0xFF	; 255
    43ba:	90 e0       	ldi	r25, 0x00	; 0
    43bc:	81 d4       	rcall	.+2306   	; 0x4cc0 <__itoa_ncheck>
	LCD_puts (buffer);
    43be:	ce 01       	movw	r24, r28
    43c0:	01 96       	adiw	r24, 0x01	; 1
    43c2:	0e 94 5d 0e 	call	0x1cba	; 0x1cba <LCD_puts>
	itoa(date[5],buffer,10);
    43c6:	f8 01       	movw	r30, r16
    43c8:	85 81       	ldd	r24, Z+5	; 0x05
    43ca:	4a e0       	ldi	r20, 0x0A	; 10
    43cc:	be 01       	movw	r22, r28
    43ce:	6f 5f       	subi	r22, 0xFF	; 255
    43d0:	7f 4f       	sbci	r23, 0xFF	; 255
    43d2:	90 e0       	ldi	r25, 0x00	; 0
    43d4:	75 d4       	rcall	.+2282   	; 0x4cc0 <__itoa_ncheck>
	LCD_puts (buffer);
    43d6:	ce 01       	movw	r24, r28
    43d8:	01 96       	adiw	r24, 0x01	; 1
    43da:	0e 94 5d 0e 	call	0x1cba	; 0x1cba <LCD_puts>
	itoa(date[6],buffer,10);
    43de:	f8 01       	movw	r30, r16
    43e0:	86 81       	ldd	r24, Z+6	; 0x06
    43e2:	4a e0       	ldi	r20, 0x0A	; 10
    43e4:	be 01       	movw	r22, r28
    43e6:	6f 5f       	subi	r22, 0xFF	; 255
    43e8:	7f 4f       	sbci	r23, 0xFF	; 255
    43ea:	90 e0       	ldi	r25, 0x00	; 0
    43ec:	69 d4       	rcall	.+2258   	; 0x4cc0 <__itoa_ncheck>
	LCD_puts (buffer);
    43ee:	ce 01       	movw	r24, r28
    43f0:	01 96       	adiw	r24, 0x01	; 1
    43f2:	0e 94 5d 0e 	call	0x1cba	; 0x1cba <LCD_puts>
	itoa(date[7],buffer,10);
    43f6:	f8 01       	movw	r30, r16
    43f8:	87 81       	ldd	r24, Z+7	; 0x07
    43fa:	4a e0       	ldi	r20, 0x0A	; 10
    43fc:	be 01       	movw	r22, r28
    43fe:	6f 5f       	subi	r22, 0xFF	; 255
    4400:	7f 4f       	sbci	r23, 0xFF	; 255
    4402:	90 e0       	ldi	r25, 0x00	; 0
    4404:	5d d4       	rcall	.+2234   	; 0x4cc0 <__itoa_ncheck>
	LCD_puts (buffer);
    4406:	ce 01       	movw	r24, r28
    4408:	01 96       	adiw	r24, 0x01	; 1
    440a:	0e 94 5d 0e 	call	0x1cba	; 0x1cba <LCD_puts>
	LCD_setCursorXY(3,40);
    440e:	68 e2       	ldi	r22, 0x28	; 40
    4410:	83 e0       	ldi	r24, 0x03	; 3
    4412:	0e 94 94 0d 	call	0x1b28	; 0x1b28 <LCD_setCursorXY>
	LCD_puts ((uint8_t*)" 1 : Reglage HEURE");
    4416:	8d ec       	ldi	r24, 0xCD	; 205
    4418:	98 e0       	ldi	r25, 0x08	; 8
    441a:	0e 94 5d 0e 	call	0x1cba	; 0x1cba <LCD_puts>
	LCD_setCursorXY(3,50);
    441e:	62 e3       	ldi	r22, 0x32	; 50
    4420:	83 e0       	ldi	r24, 0x03	; 3
    4422:	0e 94 94 0d 	call	0x1b28	; 0x1b28 <LCD_setCursorXY>
	LCD_puts ((uint8_t*)" 2 : Reglage DATE");
    4426:	80 ee       	ldi	r24, 0xE0	; 224
    4428:	98 e0       	ldi	r25, 0x08	; 8
    442a:	0e 94 5d 0e 	call	0x1cba	; 0x1cba <LCD_puts>
	LCD_setCursorXY(3,60);
    442e:	6c e3       	ldi	r22, 0x3C	; 60
    4430:	83 e0       	ldi	r24, 0x03	; 3
    4432:	0e 94 94 0d 	call	0x1b28	; 0x1b28 <LCD_setCursorXY>
	LCD_puts ((uint8_t*)" B : BACK");
    4436:	82 ed       	ldi	r24, 0xD2	; 210
    4438:	92 e0       	ldi	r25, 0x02	; 2
    443a:	0e 94 5d 0e 	call	0x1cba	; 0x1cba <LCD_puts>
	return ST_TIME_DATE;
}
    443e:	85 e2       	ldi	r24, 0x25	; 37
    4440:	64 96       	adiw	r28, 0x14	; 20
    4442:	0f b6       	in	r0, 0x3f	; 63
    4444:	f8 94       	cli
    4446:	de bf       	out	0x3e, r29	; 62
    4448:	0f be       	out	0x3f, r0	; 63
    444a:	cd bf       	out	0x3d, r28	; 61
    444c:	df 91       	pop	r29
    444e:	cf 91       	pop	r28
    4450:	1f 91       	pop	r17
    4452:	0f 91       	pop	r16
    4454:	08 95       	ret

00004456 <Fct_time_change>:

char Fct_time_change(char input)
{
    4456:	0f 93       	push	r16
    4458:	1f 93       	push	r17
    445a:	cf 93       	push	r28
    445c:	df 93       	push	r29
    445e:	cd b7       	in	r28, 0x3d	; 61
    4460:	de b7       	in	r29, 0x3e	; 62
    4462:	64 97       	sbiw	r28, 0x14	; 20
    4464:	0f b6       	in	r0, 0x3f	; 63
    4466:	f8 94       	cli
    4468:	de bf       	out	0x3e, r29	; 62
    446a:	0f be       	out	0x3f, r0	; 63
    446c:	cd bf       	out	0x3d, r28	; 61
	input=Previous_Button;
    446e:	10 91 21 0b 	lds	r17, 0x0B21	; 0x800b21 <Previous_Button>
    4472:	4a e0       	ldi	r20, 0x0A	; 10
    4474:	be 01       	movw	r22, r28
    4476:	6f 5f       	subi	r22, 0xFF	; 255
    4478:	7f 4f       	sbci	r23, 0xFF	; 255
    447a:	81 2f       	mov	r24, r17
    447c:	90 e0       	ldi	r25, 0x00	; 0
    447e:	20 d4       	rcall	.+2112   	; 0x4cc0 <__itoa_ncheck>
	
	char buffer[20];
	itoa(input,buffer,10);
	Usart_Tx_String(buffer); 
    4480:	ce 01       	movw	r24, r28
    4482:	01 96       	adiw	r24, 0x01	; 1
    4484:	f3 d3       	rcall	.+2022   	; 0x4c6c <Usart_Tx_String>
	Usart_Tx_String("\n"); 
    4486:	84 e4       	ldi	r24, 0x44	; 68
    4488:	99 e0       	ldi	r25, 0x09	; 9
    448a:	f0 d3       	rcall	.+2016   	; 0x4c6c <Usart_Tx_String>
	if(position!=0)
    448c:	e0 91 94 09 	lds	r30, 0x0994	; 0x800994 <position>
    4490:	ee 23       	and	r30, r30
    4492:	31 f0       	breq	.+12     	; 0x44a0 <Fct_time_change+0x4a>
	{
		hour[position-1]=input-1;
    4494:	f0 e0       	ldi	r31, 0x00	; 0
    4496:	e0 59       	subi	r30, 0x90	; 144
    4498:	f5 4f       	sbci	r31, 0xF5	; 245
    449a:	11 50       	subi	r17, 0x01	; 1
    449c:	10 83       	st	Z, r17
    449e:	07 c0       	rjmp	.+14     	; 0x44ae <Fct_time_change+0x58>
	}
	else IDCB_Clignotement_heure = OSEnregistrerCB_TIMER(clignotementheure,500);
    44a0:	64 ef       	ldi	r22, 0xF4	; 244
    44a2:	71 e0       	ldi	r23, 0x01	; 1
    44a4:	85 e7       	ldi	r24, 0x75	; 117
    44a6:	9f e0       	ldi	r25, 0x0F	; 15
    44a8:	5c d1       	rcall	.+696    	; 0x4762 <OSEnregistrerCB_TIMER>
    44aa:	80 93 1d 0b 	sts	0x0B1D, r24	; 0x800b1d <IDCB_Clignotement_heure>
	LCD_clr();
    44ae:	0e 94 f3 0d 	call	0x1be6	; 0x1be6 <LCD_clr>
	LCD_setCursorXY(10,0);
    44b2:	60 e0       	ldi	r22, 0x00	; 0
    44b4:	8a e0       	ldi	r24, 0x0A	; 10
    44b6:	0e 94 94 0d 	call	0x1b28	; 0x1b28 <LCD_setCursorXY>
	LCD_puts ((uint8_t*)"Entrer l'heure:");
    44ba:	82 ef       	ldi	r24, 0xF2	; 242
    44bc:	98 e0       	ldi	r25, 0x08	; 8
    44be:	0e 94 5d 0e 	call	0x1cba	; 0x1cba <LCD_puts>
	LCD_setCursorXY(0,20);
    44c2:	64 e1       	ldi	r22, 0x14	; 20
    44c4:	80 e0       	ldi	r24, 0x00	; 0
    44c6:	0e 94 94 0d 	call	0x1b28	; 0x1b28 <LCD_setCursorXY>
	itoa(hour[0],buffer,10);
    44ca:	01 e7       	ldi	r16, 0x71	; 113
    44cc:	1a e0       	ldi	r17, 0x0A	; 10
    44ce:	f8 01       	movw	r30, r16
    44d0:	80 81       	ld	r24, Z
    44d2:	4a e0       	ldi	r20, 0x0A	; 10
    44d4:	be 01       	movw	r22, r28
    44d6:	6f 5f       	subi	r22, 0xFF	; 255
    44d8:	7f 4f       	sbci	r23, 0xFF	; 255
    44da:	90 e0       	ldi	r25, 0x00	; 0
    44dc:	f1 d3       	rcall	.+2018   	; 0x4cc0 <__itoa_ncheck>
	LCD_puts (buffer);
    44de:	ce 01       	movw	r24, r28
    44e0:	01 96       	adiw	r24, 0x01	; 1
    44e2:	0e 94 5d 0e 	call	0x1cba	; 0x1cba <LCD_puts>
	itoa(hour[1],buffer,10);
    44e6:	f8 01       	movw	r30, r16
    44e8:	81 81       	ldd	r24, Z+1	; 0x01
    44ea:	4a e0       	ldi	r20, 0x0A	; 10
    44ec:	be 01       	movw	r22, r28
    44ee:	6f 5f       	subi	r22, 0xFF	; 255
    44f0:	7f 4f       	sbci	r23, 0xFF	; 255
    44f2:	90 e0       	ldi	r25, 0x00	; 0
    44f4:	e5 d3       	rcall	.+1994   	; 0x4cc0 <__itoa_ncheck>
	LCD_puts (buffer);
    44f6:	ce 01       	movw	r24, r28
    44f8:	01 96       	adiw	r24, 0x01	; 1
    44fa:	0e 94 5d 0e 	call	0x1cba	; 0x1cba <LCD_puts>
	LCD_puts ((uint8_t*)":");
    44fe:	8b eb       	ldi	r24, 0xBB	; 187
    4500:	94 e0       	ldi	r25, 0x04	; 4
    4502:	0e 94 5d 0e 	call	0x1cba	; 0x1cba <LCD_puts>
	itoa(hour[2],buffer,10);
    4506:	f8 01       	movw	r30, r16
    4508:	82 81       	ldd	r24, Z+2	; 0x02
    450a:	4a e0       	ldi	r20, 0x0A	; 10
    450c:	be 01       	movw	r22, r28
    450e:	6f 5f       	subi	r22, 0xFF	; 255
    4510:	7f 4f       	sbci	r23, 0xFF	; 255
    4512:	90 e0       	ldi	r25, 0x00	; 0
    4514:	d5 d3       	rcall	.+1962   	; 0x4cc0 <__itoa_ncheck>
	LCD_puts (buffer);
    4516:	ce 01       	movw	r24, r28
    4518:	01 96       	adiw	r24, 0x01	; 1
    451a:	0e 94 5d 0e 	call	0x1cba	; 0x1cba <LCD_puts>
	itoa(hour[3],buffer,10);
    451e:	f8 01       	movw	r30, r16
    4520:	83 81       	ldd	r24, Z+3	; 0x03
    4522:	4a e0       	ldi	r20, 0x0A	; 10
    4524:	be 01       	movw	r22, r28
    4526:	6f 5f       	subi	r22, 0xFF	; 255
    4528:	7f 4f       	sbci	r23, 0xFF	; 255
    452a:	90 e0       	ldi	r25, 0x00	; 0
    452c:	c9 d3       	rcall	.+1938   	; 0x4cc0 <__itoa_ncheck>
	LCD_puts (buffer);
    452e:	ce 01       	movw	r24, r28
    4530:	01 96       	adiw	r24, 0x01	; 1
    4532:	0e 94 5d 0e 	call	0x1cba	; 0x1cba <LCD_puts>
	LCD_puts ((uint8_t*)":");
    4536:	8b eb       	ldi	r24, 0xBB	; 187
    4538:	94 e0       	ldi	r25, 0x04	; 4
    453a:	0e 94 5d 0e 	call	0x1cba	; 0x1cba <LCD_puts>
	itoa(hour[4],buffer,10);
    453e:	f8 01       	movw	r30, r16
    4540:	84 81       	ldd	r24, Z+4	; 0x04
    4542:	4a e0       	ldi	r20, 0x0A	; 10
    4544:	be 01       	movw	r22, r28
    4546:	6f 5f       	subi	r22, 0xFF	; 255
    4548:	7f 4f       	sbci	r23, 0xFF	; 255
    454a:	90 e0       	ldi	r25, 0x00	; 0
    454c:	b9 d3       	rcall	.+1906   	; 0x4cc0 <__itoa_ncheck>
	LCD_puts (buffer);
    454e:	ce 01       	movw	r24, r28
    4550:	01 96       	adiw	r24, 0x01	; 1
    4552:	0e 94 5d 0e 	call	0x1cba	; 0x1cba <LCD_puts>
	itoa(hour[5],buffer,10);
    4556:	f8 01       	movw	r30, r16
    4558:	85 81       	ldd	r24, Z+5	; 0x05
    455a:	4a e0       	ldi	r20, 0x0A	; 10
    455c:	be 01       	movw	r22, r28
    455e:	6f 5f       	subi	r22, 0xFF	; 255
    4560:	7f 4f       	sbci	r23, 0xFF	; 255
    4562:	90 e0       	ldi	r25, 0x00	; 0
    4564:	ad d3       	rcall	.+1882   	; 0x4cc0 <__itoa_ncheck>
	LCD_puts (buffer);
    4566:	ce 01       	movw	r24, r28
    4568:	01 96       	adiw	r24, 0x01	; 1
    456a:	0e 94 5d 0e 	call	0x1cba	; 0x1cba <LCD_puts>
	
	position++;
    456e:	80 91 94 09 	lds	r24, 0x0994	; 0x800994 <position>
    4572:	8f 5f       	subi	r24, 0xFF	; 255
	if(position==7)
    4574:	87 30       	cpi	r24, 0x07	; 7
    4576:	21 f0       	breq	.+8      	; 0x4580 <Fct_time_change+0x12a>
	itoa(hour[4],buffer,10);
	LCD_puts (buffer);
	itoa(hour[5],buffer,10);
	LCD_puts (buffer);
	
	position++;
    4578:	80 93 94 09 	sts	0x0994, r24	; 0x800994 <position>
	{
		position=0;
		OSRetirerCB_TIMER(IDCB_Clignotement_heure);
		return FCT_TIME_DATE;
	} 
	else return ST_TIME_CHANGE;
    457c:	86 e2       	ldi	r24, 0x26	; 38
    457e:	06 c0       	rjmp	.+12     	; 0x458c <Fct_time_change+0x136>
	LCD_puts (buffer);
	
	position++;
	if(position==7)
	{
		position=0;
    4580:	10 92 94 09 	sts	0x0994, r1	; 0x800994 <position>
		OSRetirerCB_TIMER(IDCB_Clignotement_heure);
    4584:	80 91 1d 0b 	lds	r24, 0x0B1D	; 0x800b1d <IDCB_Clignotement_heure>
    4588:	18 d1       	rcall	.+560    	; 0x47ba <OSRetirerCB_TIMER>
		return FCT_TIME_DATE;
    458a:	84 e2       	ldi	r24, 0x24	; 36
	} 
	else return ST_TIME_CHANGE;
}
    458c:	64 96       	adiw	r28, 0x14	; 20
    458e:	0f b6       	in	r0, 0x3f	; 63
    4590:	f8 94       	cli
    4592:	de bf       	out	0x3e, r29	; 62
    4594:	0f be       	out	0x3f, r0	; 63
    4596:	cd bf       	out	0x3d, r28	; 61
    4598:	df 91       	pop	r29
    459a:	cf 91       	pop	r28
    459c:	1f 91       	pop	r17
    459e:	0f 91       	pop	r16
    45a0:	08 95       	ret

000045a2 <Fct_date_change>:

char Fct_date_change(char input)
{
    45a2:	ef 92       	push	r14
    45a4:	ff 92       	push	r15
    45a6:	0f 93       	push	r16
    45a8:	1f 93       	push	r17
    45aa:	cf 93       	push	r28
    45ac:	df 93       	push	r29
    45ae:	cd b7       	in	r28, 0x3d	; 61
    45b0:	de b7       	in	r29, 0x3e	; 62
    45b2:	64 97       	sbiw	r28, 0x14	; 20
    45b4:	0f b6       	in	r0, 0x3f	; 63
    45b6:	f8 94       	cli
    45b8:	de bf       	out	0x3e, r29	; 62
    45ba:	0f be       	out	0x3f, r0	; 63
    45bc:	cd bf       	out	0x3d, r28	; 61
	input=Previous_Button;
    45be:	10 91 21 0b 	lds	r17, 0x0B21	; 0x800b21 <Previous_Button>
    45c2:	4a e0       	ldi	r20, 0x0A	; 10
    45c4:	be 01       	movw	r22, r28
    45c6:	6f 5f       	subi	r22, 0xFF	; 255
    45c8:	7f 4f       	sbci	r23, 0xFF	; 255
    45ca:	81 2f       	mov	r24, r17
    45cc:	90 e0       	ldi	r25, 0x00	; 0
    45ce:	78 d3       	rcall	.+1776   	; 0x4cc0 <__itoa_ncheck>
	
	char buffer[20];
	itoa(input,buffer,10);
	Usart_Tx_String(buffer);
    45d0:	ce 01       	movw	r24, r28
    45d2:	01 96       	adiw	r24, 0x01	; 1
    45d4:	4b d3       	rcall	.+1686   	; 0x4c6c <Usart_Tx_String>
	Usart_Tx_String("\n");
    45d6:	84 e4       	ldi	r24, 0x44	; 68
    45d8:	99 e0       	ldi	r25, 0x09	; 9
    45da:	48 d3       	rcall	.+1680   	; 0x4c6c <Usart_Tx_String>
	if(position!=0)
    45dc:	e0 91 94 09 	lds	r30, 0x0994	; 0x800994 <position>
    45e0:	ee 23       	and	r30, r30
    45e2:	31 f0       	breq	.+12     	; 0x45f0 <Fct_date_change+0x4e>
	{
		date[position-1]=input-1;
    45e4:	f0 e0       	ldi	r31, 0x00	; 0
    45e6:	ef 5f       	subi	r30, 0xFF	; 255
    45e8:	fe 4f       	sbci	r31, 0xFE	; 254
    45ea:	11 50       	subi	r17, 0x01	; 1
    45ec:	10 83       	st	Z, r17
    45ee:	07 c0       	rjmp	.+14     	; 0x45fe <Fct_date_change+0x5c>
	}
	else IDCB_Clignotement_date = OSEnregistrerCB_TIMER(clignotementdate,500);
    45f0:	64 ef       	ldi	r22, 0xF4	; 244
    45f2:	71 e0       	ldi	r23, 0x01	; 1
    45f4:	87 ea       	ldi	r24, 0xA7	; 167
    45f6:	9f e0       	ldi	r25, 0x0F	; 15
    45f8:	b4 d0       	rcall	.+360    	; 0x4762 <OSEnregistrerCB_TIMER>
    45fa:	80 93 1a 0b 	sts	0x0B1A, r24	; 0x800b1a <IDCB_Clignotement_date>
	LCD_clr();
    45fe:	0e 94 f3 0d 	call	0x1be6	; 0x1be6 <LCD_clr>
	LCD_setCursorXY(10,0);
    4602:	60 e0       	ldi	r22, 0x00	; 0
    4604:	8a e0       	ldi	r24, 0x0A	; 10
    4606:	0e 94 94 0d 	call	0x1b28	; 0x1b28 <LCD_setCursorXY>
	LCD_puts ((uint8_t*)"Entrer la date:");
    460a:	82 e0       	ldi	r24, 0x02	; 2
    460c:	99 e0       	ldi	r25, 0x09	; 9
    460e:	0e 94 5d 0e 	call	0x1cba	; 0x1cba <LCD_puts>
	LCD_setCursorXY(0,20);
    4612:	64 e1       	ldi	r22, 0x14	; 20
    4614:	80 e0       	ldi	r24, 0x00	; 0
    4616:	0e 94 94 0d 	call	0x1b28	; 0x1b28 <LCD_setCursorXY>
	itoa(date[0],buffer,10);
    461a:	02 e0       	ldi	r16, 0x02	; 2
    461c:	11 e0       	ldi	r17, 0x01	; 1
    461e:	f8 01       	movw	r30, r16
    4620:	80 81       	ld	r24, Z
    4622:	4a e0       	ldi	r20, 0x0A	; 10
    4624:	be 01       	movw	r22, r28
    4626:	6f 5f       	subi	r22, 0xFF	; 255
    4628:	7f 4f       	sbci	r23, 0xFF	; 255
    462a:	90 e0       	ldi	r25, 0x00	; 0
    462c:	49 d3       	rcall	.+1682   	; 0x4cc0 <__itoa_ncheck>
	LCD_puts (buffer);
    462e:	ce 01       	movw	r24, r28
    4630:	01 96       	adiw	r24, 0x01	; 1
    4632:	0e 94 5d 0e 	call	0x1cba	; 0x1cba <LCD_puts>
	itoa(date[1],buffer,10);
    4636:	f8 01       	movw	r30, r16
    4638:	81 81       	ldd	r24, Z+1	; 0x01
    463a:	4a e0       	ldi	r20, 0x0A	; 10
    463c:	be 01       	movw	r22, r28
    463e:	6f 5f       	subi	r22, 0xFF	; 255
    4640:	7f 4f       	sbci	r23, 0xFF	; 255
    4642:	90 e0       	ldi	r25, 0x00	; 0
    4644:	3d d3       	rcall	.+1658   	; 0x4cc0 <__itoa_ncheck>
	LCD_puts (buffer);
    4646:	ce 01       	movw	r24, r28
    4648:	01 96       	adiw	r24, 0x01	; 1
    464a:	0e 94 5d 0e 	call	0x1cba	; 0x1cba <LCD_puts>
	LCD_puts ((uint8_t*)"/");
    464e:	8b ec       	ldi	r24, 0xCB	; 203
    4650:	98 e0       	ldi	r25, 0x08	; 8
    4652:	0e 94 5d 0e 	call	0x1cba	; 0x1cba <LCD_puts>
	itoa(date[2],buffer,10);
    4656:	f8 01       	movw	r30, r16
    4658:	82 81       	ldd	r24, Z+2	; 0x02
    465a:	4a e0       	ldi	r20, 0x0A	; 10
    465c:	be 01       	movw	r22, r28
    465e:	6f 5f       	subi	r22, 0xFF	; 255
    4660:	7f 4f       	sbci	r23, 0xFF	; 255
    4662:	90 e0       	ldi	r25, 0x00	; 0
    4664:	2d d3       	rcall	.+1626   	; 0x4cc0 <__itoa_ncheck>
	LCD_puts (buffer);
    4666:	ce 01       	movw	r24, r28
    4668:	01 96       	adiw	r24, 0x01	; 1
    466a:	0e 94 5d 0e 	call	0x1cba	; 0x1cba <LCD_puts>
	itoa(date[3],buffer,10);
    466e:	f8 01       	movw	r30, r16
    4670:	83 81       	ldd	r24, Z+3	; 0x03
    4672:	4a e0       	ldi	r20, 0x0A	; 10
    4674:	be 01       	movw	r22, r28
    4676:	6f 5f       	subi	r22, 0xFF	; 255
    4678:	7f 4f       	sbci	r23, 0xFF	; 255
    467a:	90 e0       	ldi	r25, 0x00	; 0
    467c:	21 d3       	rcall	.+1602   	; 0x4cc0 <__itoa_ncheck>
	LCD_puts (buffer);
    467e:	ce 01       	movw	r24, r28
    4680:	01 96       	adiw	r24, 0x01	; 1
    4682:	0e 94 5d 0e 	call	0x1cba	; 0x1cba <LCD_puts>
	LCD_puts ((uint8_t*)"/");
    4686:	8b ec       	ldi	r24, 0xCB	; 203
    4688:	98 e0       	ldi	r25, 0x08	; 8
    468a:	0e 94 5d 0e 	call	0x1cba	; 0x1cba <LCD_puts>
	itoa(date[4],buffer,10);
    468e:	f8 01       	movw	r30, r16
    4690:	84 81       	ldd	r24, Z+4	; 0x04
    4692:	4a e0       	ldi	r20, 0x0A	; 10
    4694:	be 01       	movw	r22, r28
    4696:	6f 5f       	subi	r22, 0xFF	; 255
    4698:	7f 4f       	sbci	r23, 0xFF	; 255
    469a:	90 e0       	ldi	r25, 0x00	; 0
    469c:	11 d3       	rcall	.+1570   	; 0x4cc0 <__itoa_ncheck>
	LCD_puts (buffer);
    469e:	ce 01       	movw	r24, r28
    46a0:	01 96       	adiw	r24, 0x01	; 1
    46a2:	0e 94 5d 0e 	call	0x1cba	; 0x1cba <LCD_puts>
	itoa(hour[5],buffer,10);
    46a6:	0f 2e       	mov	r0, r31
    46a8:	f1 e7       	ldi	r31, 0x71	; 113
    46aa:	ef 2e       	mov	r14, r31
    46ac:	fa e0       	ldi	r31, 0x0A	; 10
    46ae:	ff 2e       	mov	r15, r31
    46b0:	f0 2d       	mov	r31, r0
    46b2:	f7 01       	movw	r30, r14
    46b4:	85 81       	ldd	r24, Z+5	; 0x05
    46b6:	4a e0       	ldi	r20, 0x0A	; 10
    46b8:	be 01       	movw	r22, r28
    46ba:	6f 5f       	subi	r22, 0xFF	; 255
    46bc:	7f 4f       	sbci	r23, 0xFF	; 255
    46be:	90 e0       	ldi	r25, 0x00	; 0
    46c0:	ff d2       	rcall	.+1534   	; 0x4cc0 <__itoa_ncheck>
	LCD_puts (buffer);
    46c2:	ce 01       	movw	r24, r28
    46c4:	01 96       	adiw	r24, 0x01	; 1
    46c6:	0e 94 5d 0e 	call	0x1cba	; 0x1cba <LCD_puts>
	itoa(date[6],buffer,10);
    46ca:	f8 01       	movw	r30, r16
    46cc:	86 81       	ldd	r24, Z+6	; 0x06
    46ce:	4a e0       	ldi	r20, 0x0A	; 10
    46d0:	be 01       	movw	r22, r28
    46d2:	6f 5f       	subi	r22, 0xFF	; 255
    46d4:	7f 4f       	sbci	r23, 0xFF	; 255
    46d6:	90 e0       	ldi	r25, 0x00	; 0
    46d8:	f3 d2       	rcall	.+1510   	; 0x4cc0 <__itoa_ncheck>
	LCD_puts (buffer);
    46da:	ce 01       	movw	r24, r28
    46dc:	01 96       	adiw	r24, 0x01	; 1
    46de:	0e 94 5d 0e 	call	0x1cba	; 0x1cba <LCD_puts>
	itoa(hour[7],buffer,10);
    46e2:	f7 01       	movw	r30, r14
    46e4:	87 81       	ldd	r24, Z+7	; 0x07
    46e6:	4a e0       	ldi	r20, 0x0A	; 10
    46e8:	be 01       	movw	r22, r28
    46ea:	6f 5f       	subi	r22, 0xFF	; 255
    46ec:	7f 4f       	sbci	r23, 0xFF	; 255
    46ee:	90 e0       	ldi	r25, 0x00	; 0
    46f0:	e7 d2       	rcall	.+1486   	; 0x4cc0 <__itoa_ncheck>
	LCD_puts (buffer);
    46f2:	ce 01       	movw	r24, r28
    46f4:	01 96       	adiw	r24, 0x01	; 1
    46f6:	0e 94 5d 0e 	call	0x1cba	; 0x1cba <LCD_puts>
	
	position++;
    46fa:	80 91 94 09 	lds	r24, 0x0994	; 0x800994 <position>
    46fe:	8f 5f       	subi	r24, 0xFF	; 255
	if(position==9)
    4700:	89 30       	cpi	r24, 0x09	; 9
    4702:	21 f0       	breq	.+8      	; 0x470c <Fct_date_change+0x16a>
	itoa(date[6],buffer,10);
	LCD_puts (buffer);
	itoa(hour[7],buffer,10);
	LCD_puts (buffer);
	
	position++;
    4704:	80 93 94 09 	sts	0x0994, r24	; 0x800994 <position>
	{
		position=0;
		OSRetirerCB_TIMER(IDCB_Clignotement_date);
		return FCT_TIME_DATE;
	}
	else return ST_DATE_CHANGE;
    4708:	88 e2       	ldi	r24, 0x28	; 40
    470a:	06 c0       	rjmp	.+12     	; 0x4718 <Fct_date_change+0x176>
	LCD_puts (buffer);
	
	position++;
	if(position==9)
	{
		position=0;
    470c:	10 92 94 09 	sts	0x0994, r1	; 0x800994 <position>
		OSRetirerCB_TIMER(IDCB_Clignotement_date);
    4710:	80 91 1a 0b 	lds	r24, 0x0B1A	; 0x800b1a <IDCB_Clignotement_date>
    4714:	52 d0       	rcall	.+164    	; 0x47ba <OSRetirerCB_TIMER>
		return FCT_TIME_DATE;
    4716:	84 e2       	ldi	r24, 0x24	; 36
	}
	else return ST_DATE_CHANGE;
    4718:	64 96       	adiw	r28, 0x14	; 20
    471a:	0f b6       	in	r0, 0x3f	; 63
    471c:	f8 94       	cli
    471e:	de bf       	out	0x3e, r29	; 62
    4720:	0f be       	out	0x3f, r0	; 63
    4722:	cd bf       	out	0x3d, r28	; 61
    4724:	df 91       	pop	r29
    4726:	cf 91       	pop	r28
    4728:	1f 91       	pop	r17
    472a:	0f 91       	pop	r16
    472c:	ff 90       	pop	r15
    472e:	ef 90       	pop	r14
    4730:	08 95       	ret

00004732 <OSInitialiser>:

// ****************  Retirer fonction de rappel USART1 **********************

void OSRetirerCB_USART_RX(void)
{
	MaCBUSART = 0;
    4732:	e3 eb       	ldi	r30, 0xB3	; 179
    4734:	fb e0       	ldi	r31, 0x0B	; 11
    4736:	a4 e2       	ldi	r26, 0x24	; 36
    4738:	bb e0       	ldi	r27, 0x0B	; 11
    473a:	87 ec       	ldi	r24, 0xC7	; 199
    473c:	9b e0       	ldi	r25, 0x0B	; 11
    473e:	11 92       	st	Z+, r1
    4740:	11 92       	st	Z+, r1
    4742:	1d 92       	st	X+, r1
    4744:	1d 92       	st	X+, r1
    4746:	e8 17       	cp	r30, r24
    4748:	f9 07       	cpc	r31, r25
    474a:	c9 f7       	brne	.-14     	; 0x473e <OSInitialiser+0xc>
    474c:	10 92 b1 0b 	sts	0x0BB1, r1	; 0x800bb1 <MaCBButton+0x1>
    4750:	10 92 b0 0b 	sts	0x0BB0, r1	; 0x800bb0 <MaCBButton>
    4754:	10 92 c8 0b 	sts	0x0BC8, r1	; 0x800bc8 <MaCBUSART+0x1>
    4758:	10 92 c7 0b 	sts	0x0BC7, r1	; 0x800bc7 <MaCBUSART>
    475c:	10 92 b2 0b 	sts	0x0BB2, r1	; 0x800bb2 <USARTReception>
    4760:	08 95       	ret

00004762 <OSEnregistrerCB_TIMER>:
    4762:	20 91 b5 0b 	lds	r18, 0x0BB5	; 0x800bb5 <MaCB+0x2>
    4766:	30 91 b6 0b 	lds	r19, 0x0BB6	; 0x800bb6 <MaCB+0x3>
    476a:	23 2b       	or	r18, r19
    476c:	71 f0       	breq	.+28     	; 0x478a <OSEnregistrerCB_TIMER+0x28>
    476e:	e7 eb       	ldi	r30, 0xB7	; 183
    4770:	fb e0       	ldi	r31, 0x0B	; 11
    4772:	21 e0       	ldi	r18, 0x01	; 1
    4774:	30 e0       	ldi	r19, 0x00	; 0
    4776:	2f 5f       	subi	r18, 0xFF	; 255
    4778:	3f 4f       	sbci	r19, 0xFF	; 255
    477a:	41 91       	ld	r20, Z+
    477c:	51 91       	ld	r21, Z+
    477e:	45 2b       	or	r20, r21
    4780:	d1 f7       	brne	.-12     	; 0x4776 <OSEnregistrerCB_TIMER+0x14>
    4782:	2a 30       	cpi	r18, 0x0A	; 10
    4784:	31 05       	cpc	r19, r1
    4786:	18 f0       	brcs	.+6      	; 0x478e <OSEnregistrerCB_TIMER+0x2c>
    4788:	16 c0       	rjmp	.+44     	; 0x47b6 <OSEnregistrerCB_TIMER+0x54>
    478a:	21 e0       	ldi	r18, 0x01	; 1
    478c:	30 e0       	ldi	r19, 0x00	; 0
    478e:	a9 01       	movw	r20, r18
    4790:	44 0f       	add	r20, r20
    4792:	55 1f       	adc	r21, r21
    4794:	fa 01       	movw	r30, r20
    4796:	ed 54       	subi	r30, 0x4D	; 77
    4798:	f4 4f       	sbci	r31, 0xF4	; 244
    479a:	91 83       	std	Z+1, r25	; 0x01
    479c:	80 83       	st	Z, r24
    479e:	fa 01       	movw	r30, r20
    47a0:	ec 5d       	subi	r30, 0xDC	; 220
    47a2:	f4 4f       	sbci	r31, 0xF4	; 244
    47a4:	71 83       	std	Z+1, r23	; 0x01
    47a6:	60 83       	st	Z, r22
    47a8:	fa 01       	movw	r30, r20
    47aa:	e8 5c       	subi	r30, 0xC8	; 200
    47ac:	f4 4f       	sbci	r31, 0xF4	; 244
    47ae:	11 82       	std	Z+1, r1	; 0x01
    47b0:	10 82       	st	Z, r1
    47b2:	82 2f       	mov	r24, r18
    47b4:	08 95       	ret
    47b6:	8f ef       	ldi	r24, 0xFF	; 255
    47b8:	08 95       	ret

000047ba <OSRetirerCB_TIMER>:
    47ba:	8a 30       	cpi	r24, 0x0A	; 10
    47bc:	68 f4       	brcc	.+26     	; 0x47d8 <OSRetirerCB_TIMER+0x1e>
    47be:	90 e0       	ldi	r25, 0x00	; 0
    47c0:	88 0f       	add	r24, r24
    47c2:	99 1f       	adc	r25, r25
    47c4:	fc 01       	movw	r30, r24
    47c6:	ed 54       	subi	r30, 0x4D	; 77
    47c8:	f4 4f       	sbci	r31, 0xF4	; 244
    47ca:	11 82       	std	Z+1, r1	; 0x01
    47cc:	10 82       	st	Z, r1
    47ce:	fc 01       	movw	r30, r24
    47d0:	ec 5d       	subi	r30, 0xDC	; 220
    47d2:	f4 4f       	sbci	r31, 0xF4	; 244
    47d4:	11 82       	std	Z+1, r1	; 0x01
    47d6:	10 82       	st	Z, r1
    47d8:	08 95       	ret

000047da <StateMachine>:
		}
	}
}

unsigned char StateMachine(char state, unsigned char stimuli)
{
    47da:	0f 93       	push	r16
    47dc:	1f 93       	push	r17
    47de:	cf 93       	push	r28
    47e0:	df 93       	push	r29
    47e2:	18 2f       	mov	r17, r24
    47e4:	06 2f       	mov	r16, r22
	Usart_Tx_String("Dans la fonction state machine \n");
    47e6:	82 e1       	ldi	r24, 0x12	; 18
    47e8:	99 e0       	ldi	r25, 0x09	; 9
    47ea:	40 d2       	rcall	.+1152   	; 0x4c6c <Usart_Tx_String>
	unsigned char nextstate = state;    // Default stay in same state
	unsigned char i, j;
	for (i=0; ( j=pgm_read_byte(&menu_nextstate[i].state) ); i++ )
    47ec:	e5 e2       	ldi	r30, 0x25	; 37
    47ee:	f6 e0       	ldi	r31, 0x06	; 6
    47f0:	e4 91       	lpm	r30, Z
    47f2:	ee 23       	and	r30, r30
    47f4:	41 f1       	breq	.+80     	; 0x4846 <StateMachine+0x6c>
    47f6:	c0 e0       	ldi	r28, 0x00	; 0
    47f8:	d0 e0       	ldi	r29, 0x00	; 0
    47fa:	90 e0       	ldi	r25, 0x00	; 0
	{
		if ( j == state &&
    47fc:	1e 13       	cpse	r17, r30
    47fe:	16 c0       	rjmp	.+44     	; 0x482c <StateMachine+0x52>
		pgm_read_byte(&menu_nextstate[i].input) == stimuli)
    4800:	fe 01       	movw	r30, r28
    4802:	ee 0f       	add	r30, r30
    4804:	ff 1f       	adc	r31, r31
    4806:	ec 0f       	add	r30, r28
    4808:	fd 1f       	adc	r31, r29
    480a:	ea 5d       	subi	r30, 0xDA	; 218
    480c:	f9 4f       	sbci	r31, 0xF9	; 249
    480e:	e4 91       	lpm	r30, Z
	Usart_Tx_String("Dans la fonction state machine \n");
	unsigned char nextstate = state;    // Default stay in same state
	unsigned char i, j;
	for (i=0; ( j=pgm_read_byte(&menu_nextstate[i].state) ); i++ )
	{
		if ( j == state &&
    4810:	e0 13       	cpse	r30, r16
    4812:	0c c0       	rjmp	.+24     	; 0x482c <StateMachine+0x52>
		pgm_read_byte(&menu_nextstate[i].input) == stimuli)
		{
			// This is the one!
			Usart_Tx_String("This is the one! \n");
    4814:	83 e3       	ldi	r24, 0x33	; 51
    4816:	99 e0       	ldi	r25, 0x09	; 9
    4818:	29 d2       	rcall	.+1106   	; 0x4c6c <Usart_Tx_String>
			nextstate = pgm_read_byte(&menu_nextstate[i].nextstate);
    481a:	fe 01       	movw	r30, r28
    481c:	ee 0f       	add	r30, r30
    481e:	ff 1f       	adc	r31, r31
    4820:	ec 0f       	add	r30, r28
    4822:	fd 1f       	adc	r31, r29
    4824:	e9 5d       	subi	r30, 0xD9	; 217
    4826:	f9 4f       	sbci	r31, 0xF9	; 249
    4828:	14 91       	lpm	r17, Z
			break;
    482a:	0d c0       	rjmp	.+26     	; 0x4846 <StateMachine+0x6c>
unsigned char StateMachine(char state, unsigned char stimuli)
{
	Usart_Tx_String("Dans la fonction state machine \n");
	unsigned char nextstate = state;    // Default stay in same state
	unsigned char i, j;
	for (i=0; ( j=pgm_read_byte(&menu_nextstate[i].state) ); i++ )
    482c:	9f 5f       	subi	r25, 0xFF	; 255
    482e:	c9 2f       	mov	r28, r25
    4830:	d0 e0       	ldi	r29, 0x00	; 0
    4832:	fe 01       	movw	r30, r28
    4834:	ee 0f       	add	r30, r30
    4836:	ff 1f       	adc	r31, r31
    4838:	ec 0f       	add	r30, r28
    483a:	fd 1f       	adc	r31, r29
    483c:	eb 5d       	subi	r30, 0xDB	; 219
    483e:	f9 4f       	sbci	r31, 0xF9	; 249
    4840:	e4 91       	lpm	r30, Z
    4842:	e1 11       	cpse	r30, r1
    4844:	db cf       	rjmp	.-74     	; 0x47fc <StateMachine+0x22>
			nextstate = pgm_read_byte(&menu_nextstate[i].nextstate);
			break;
		}
	}
	return nextstate;
}
    4846:	81 2f       	mov	r24, r17
    4848:	df 91       	pop	r29
    484a:	cf 91       	pop	r28
    484c:	1f 91       	pop	r17
    484e:	0f 91       	pop	r16
    4850:	08 95       	ret

00004852 <OSStart>:
	char (*pStateFunc)(char); // pointeur d'une fonction
	unsigned char input = NONE;
	unsigned char i, j;
	
	// Initialisation des variables qui concernent la machine d'tats
	state = NULL;
    4852:	10 92 23 0b 	sts	0x0B23, r1	; 0x800b23 <state>
	nextstate = FCT_MENU;
	statetext = NULL;
	pStateFunc = NULL;

	//Cration, configuration et dmarrage de Timer pour gnrer une interruption toutes les mS
	TIMER1_Init_1ms();
    4856:	d7 d1       	rcall	.+942    	; 0x4c06 <TIMER1_Init_1ms>
	
	// Configuration de l'usart
	USART_Init_19200();
    4858:	e7 d1       	rcall	.+974    	; 0x4c28 <USART_Init_19200>
	
	// Initialisation des interruptions, on autorise toutes les interruptions
	// Pour les interruptions particulires, voir chaque fonction
	sei();
    485a:	78 94       	sei
	Usart_Tx_String("Demarrage OS \n");
    485c:	86 e4       	ldi	r24, 0x46	; 70
    485e:	99 e0       	ldi	r25, 0x09	; 9
    4860:	05 d2       	rcall	.+1034   	; 0x4c6c <Usart_Tx_String>
	
	// Initialisation des variables qui concernent la machine d'tats
	state = NULL;
	nextstate = FCT_MENU;
	statetext = NULL;
	pStateFunc = NULL;
    4862:	c1 2c       	mov	r12, r1
    4864:	d1 2c       	mov	r13, r1
	unsigned char input = NONE;
	unsigned char i, j;
	
	// Initialisation des variables qui concernent la machine d'tats
	state = NULL;
	nextstate = FCT_MENU;
    4866:	0f 2e       	mov	r0, r31
    4868:	fa e0       	ldi	r31, 0x0A	; 10
    486a:	5f 2e       	mov	r5, r31
    486c:	f0 2d       	mov	r31, r0
    486e:	0f 2e       	mov	r0, r31
    4870:	f5 eb       	ldi	r31, 0xB5	; 181
    4872:	af 2e       	mov	r10, r31
    4874:	fb e0       	ldi	r31, 0x0B	; 11
    4876:	bf 2e       	mov	r11, r31
    4878:	f0 2d       	mov	r31, r0
    487a:	0f 2e       	mov	r0, r31
    487c:	f4 e2       	ldi	r31, 0x24	; 36
    487e:	6f 2e       	mov	r6, r31
    4880:	fb e0       	ldi	r31, 0x0B	; 11
    4882:	7f 2e       	mov	r7, r31
    4884:	f0 2d       	mov	r31, r0
    4886:	33 24       	eor	r3, r3
    4888:	33 94       	inc	r3
    488a:	41 2c       	mov	r4, r1
		}
		if (nextstate != state)  // il y a changement d'tat
		{
			Usart_Tx_String("Changement d'etat \n");
			state = nextstate; // l'tat est maintenant le nouveau tat de la squence dfinie dans main.h
			for (i=0; (j=pgm_read_byte(&Menu_State[i].state)); i++)
    488c:	0f 2e       	mov	r0, r31
    488e:	f4 e5       	ldi	r31, 0x54	; 84
    4890:	8f 2e       	mov	r8, r31
    4892:	f4 e0       	ldi	r31, 0x04	; 4
    4894:	9f 2e       	mov	r9, r31
    4896:	f0 2d       	mov	r31, r0
    4898:	21 2c       	mov	r2, r1
    489a:	01 c0       	rjmp	.+2      	; 0x489e <OSStart+0x4c>
    489c:	5c 2e       	mov	r5, r28
    489e:	75 01       	movw	r14, r10
    48a0:	83 01       	movw	r16, r6
	unsigned char input = NONE;
	unsigned char i, j;
	
	// Initialisation des variables qui concernent la machine d'tats
	state = NULL;
	nextstate = FCT_MENU;
    48a2:	c3 2d       	mov	r28, r3
    48a4:	d4 2d       	mov	r29, r4
	while(1)
	{
		// Check les conditions pour rappeler les fonctions lies au temps
		for (idx = 1; idx < MAXCALLBACKCHRONO; idx++)
		{
			if (MaCB[idx]) //Si on a l'adresse d'une fonction CB  cet index
    48a6:	ce 01       	movw	r24, r28
    48a8:	d7 01       	movw	r26, r14
    48aa:	ed 91       	ld	r30, X+
    48ac:	fd 91       	ld	r31, X+
    48ae:	7d 01       	movw	r14, r26
    48b0:	30 97       	sbiw	r30, 0x00	; 0
    48b2:	c1 f0       	breq	.+48     	; 0x48e4 <OSStart+0x92>
			//Si on est arriv au nombre de mS demand, on appelle la fonction
			if (TickCB[idx] >= TempsCB[idx])
    48b4:	de 01       	movw	r26, r28
    48b6:	aa 0f       	add	r26, r26
    48b8:	bb 1f       	adc	r27, r27
    48ba:	a8 5c       	subi	r26, 0xC8	; 200
    48bc:	b4 4f       	sbci	r27, 0xF4	; 244
    48be:	4d 91       	ld	r20, X+
    48c0:	5c 91       	ld	r21, X
    48c2:	d8 01       	movw	r26, r16
    48c4:	12 96       	adiw	r26, 0x02	; 2
    48c6:	2d 91       	ld	r18, X+
    48c8:	3c 91       	ld	r19, X
    48ca:	13 97       	sbiw	r26, 0x03	; 3
    48cc:	42 17       	cp	r20, r18
    48ce:	53 07       	cpc	r21, r19
    48d0:	48 f0       	brcs	.+18     	; 0x48e4 <OSStart+0x92>
			{
				TickCB[idx] = 0;
    48d2:	88 0f       	add	r24, r24
    48d4:	99 1f       	adc	r25, r25
    48d6:	dc 01       	movw	r26, r24
    48d8:	a8 5c       	subi	r26, 0xC8	; 200
    48da:	b4 4f       	sbci	r27, 0xF4	; 244
    48dc:	11 96       	adiw	r26, 0x01	; 1
    48de:	1c 92       	st	X, r1
    48e0:	1e 92       	st	-X, r1
				MaCB[idx]();  //Rappel de la fonction enregistre!
    48e2:	09 95       	icall
    48e4:	21 96       	adiw	r28, 0x01	; 1
    48e6:	0e 5f       	subi	r16, 0xFE	; 254
    48e8:	1f 4f       	sbci	r17, 0xFF	; 255

	//Boucle principale de l'OS d'o on ne sort jamais
	while(1)
	{
		// Check les conditions pour rappeler les fonctions lies au temps
		for (idx = 1; idx < MAXCALLBACKCHRONO; idx++)
    48ea:	ca 30       	cpi	r28, 0x0A	; 10
    48ec:	d1 05       	cpc	r29, r1
    48ee:	d9 f6       	brne	.-74     	; 0x48a6 <OSStart+0x54>
			//Usart_Tx_String(strcpy_P(Message_LCD, statetext));
			statetext = NULL;
		}

		// Read buttons
		input = Button;
    48f0:	80 91 22 0b 	lds	r24, 0x0B22	; 0x800b22 <Button>
		if(Button !=NONE)Previous_Button=input;
    48f4:	90 91 22 0b 	lds	r25, 0x0B22	; 0x800b22 <Button>
    48f8:	91 11       	cpse	r25, r1
    48fa:	80 93 21 0b 	sts	0x0B21, r24	; 0x800b21 <Previous_Button>
		Button = NONE;
    48fe:	10 92 22 0b 	sts	0x0B22, r1	; 0x800b22 <Button>
		
		// When in this state, we must call the state function
		if (pStateFunc)
    4902:	c1 14       	cp	r12, r1
    4904:	d1 04       	cpc	r13, r1
    4906:	21 f0       	breq	.+8      	; 0x4910 <OSStart+0xbe>
		{
			nextstate = pStateFunc(input);
    4908:	f6 01       	movw	r30, r12
    490a:	09 95       	icall
    490c:	c8 2f       	mov	r28, r24
    490e:	0c c0       	rjmp	.+24     	; 0x4928 <OSStart+0xd6>
		}
		else
		{
			if (input != NONE)
    4910:	88 23       	and	r24, r24
    4912:	49 f0       	breq	.+18     	; 0x4926 <OSStart+0xd4>
			{
				nextstate = StateMachine(state, input);
    4914:	68 2f       	mov	r22, r24
    4916:	80 91 23 0b 	lds	r24, 0x0B23	; 0x800b23 <state>
    491a:	5f df       	rcall	.-322    	; 0x47da <StateMachine>
    491c:	c8 2f       	mov	r28, r24
				Usart_Tx_String("Appui sur bouton \n");
    491e:	85 e5       	ldi	r24, 0x55	; 85
    4920:	99 e0       	ldi	r25, 0x09	; 9
    4922:	a4 d1       	rcall	.+840    	; 0x4c6c <Usart_Tx_String>
    4924:	01 c0       	rjmp	.+2      	; 0x4928 <OSStart+0xd6>
    4926:	c5 2d       	mov	r28, r5
			}
		}
		if (nextstate != state)  // il y a changement d'tat
    4928:	50 90 23 0b 	lds	r5, 0x0B23	; 0x800b23 <state>
    492c:	c5 15       	cp	r28, r5
    492e:	09 f4       	brne	.+2      	; 0x4932 <OSStart+0xe0>
    4930:	b6 cf       	rjmp	.-148    	; 0x489e <OSStart+0x4c>
		{
			Usart_Tx_String("Changement d'etat \n");
    4932:	88 e6       	ldi	r24, 0x68	; 104
    4934:	99 e0       	ldi	r25, 0x09	; 9
    4936:	9a d1       	rcall	.+820    	; 0x4c6c <Usart_Tx_String>
			state = nextstate; // l'tat est maintenant le nouveau tat de la squence dfinie dans main.h
    4938:	c0 93 23 0b 	sts	0x0B23, r28	; 0x800b23 <state>
			for (i=0; (j=pgm_read_byte(&Menu_State[i].state)); i++)
    493c:	f4 01       	movw	r30, r8
    493e:	84 91       	lpm	r24, Z
    4940:	88 23       	and	r24, r24
    4942:	09 f4       	brne	.+2      	; 0x4946 <OSStart+0xf4>
    4944:	ab cf       	rjmp	.-170    	; 0x489c <OSStart+0x4a>
			{
				if (j == state)
    4946:	c8 17       	cp	r28, r24
    4948:	29 f0       	breq	.+10     	; 0x4954 <OSStart+0x102>
    494a:	20 e0       	ldi	r18, 0x00	; 0
    494c:	18 c0       	rjmp	.+48     	; 0x497e <OSStart+0x12c>
    494e:	ce 13       	cpse	r28, r30
    4950:	16 c0       	rjmp	.+44     	; 0x497e <OSStart+0x12c>
    4952:	02 c0       	rjmp	.+4      	; 0x4958 <OSStart+0x106>
		}
		if (nextstate != state)  // il y a changement d'tat
		{
			Usart_Tx_String("Changement d'etat \n");
			state = nextstate; // l'tat est maintenant le nouveau tat de la squence dfinie dans main.h
			for (i=0; (j=pgm_read_byte(&Menu_State[i].state)); i++)
    4954:	82 2d       	mov	r24, r2
    4956:	90 e0       	ldi	r25, 0x00	; 0
			{
				if (j == state)
				{
					statetext =  (PGM_P) pgm_read_word(&Menu_State[i].pText);
    4958:	fc 01       	movw	r30, r24
    495a:	ee 0f       	add	r30, r30
    495c:	ff 1f       	adc	r31, r31
    495e:	ee 0f       	add	r30, r30
    4960:	ff 1f       	adc	r31, r31
    4962:	8e 0f       	add	r24, r30
    4964:	9f 1f       	adc	r25, r31
    4966:	fc 01       	movw	r30, r24
    4968:	eb 5a       	subi	r30, 0xAB	; 171
    496a:	fb 4f       	sbci	r31, 0xFB	; 251
    496c:	25 91       	lpm	r18, Z+
    496e:	34 91       	lpm	r19, Z
					pStateFunc = (PGM_VOID_P) pgm_read_word(&Menu_State[i].pFunc);
    4970:	89 5a       	subi	r24, 0xA9	; 169
    4972:	9b 4f       	sbci	r25, 0xFB	; 251
    4974:	fc 01       	movw	r30, r24
    4976:	c5 90       	lpm	r12, Z+
    4978:	d4 90       	lpm	r13, Z
					break;
    497a:	5c 2e       	mov	r5, r28
    497c:	90 cf       	rjmp	.-224    	; 0x489e <OSStart+0x4c>
		}
		if (nextstate != state)  // il y a changement d'tat
		{
			Usart_Tx_String("Changement d'etat \n");
			state = nextstate; // l'tat est maintenant le nouveau tat de la squence dfinie dans main.h
			for (i=0; (j=pgm_read_byte(&Menu_State[i].state)); i++)
    497e:	2f 5f       	subi	r18, 0xFF	; 255
    4980:	82 2f       	mov	r24, r18
    4982:	90 e0       	ldi	r25, 0x00	; 0
    4984:	fc 01       	movw	r30, r24
    4986:	ee 0f       	add	r30, r30
    4988:	ff 1f       	adc	r31, r31
    498a:	ee 0f       	add	r30, r30
    498c:	ff 1f       	adc	r31, r31
    498e:	e8 0f       	add	r30, r24
    4990:	f9 1f       	adc	r31, r25
    4992:	ec 5a       	subi	r30, 0xAC	; 172
    4994:	fb 4f       	sbci	r31, 0xFB	; 251
    4996:	e4 91       	lpm	r30, Z
    4998:	e1 11       	cpse	r30, r1
    499a:	d9 cf       	rjmp	.-78     	; 0x494e <OSStart+0xfc>
    499c:	5c 2e       	mov	r5, r28
    499e:	7f cf       	rjmp	.-258    	; 0x489e <OSStart+0x4c>

000049a0 <__vector_15>:

// ISR ...

//Interruption TIMER1
ISR(TIMER1_OVF_vect)
{
    49a0:	1f 92       	push	r1
    49a2:	0f 92       	push	r0
    49a4:	0f b6       	in	r0, 0x3f	; 63
    49a6:	0f 92       	push	r0
    49a8:	11 24       	eor	r1, r1
    49aa:	0b b6       	in	r0, 0x3b	; 59
    49ac:	0f 92       	push	r0
    49ae:	2f 93       	push	r18
    49b0:	3f 93       	push	r19
    49b2:	8f 93       	push	r24
    49b4:	9f 93       	push	r25
    49b6:	ef 93       	push	r30
    49b8:	ff 93       	push	r31
	// Rinitialisation TIMER1
	// POUR 1 MHz
	//TCNT1H = 0xFC;
	//TCNT1L = 0x17;
	// POUR 8 MHz
	TCNT1H = 0xE0;
    49ba:	80 ee       	ldi	r24, 0xE0	; 224
    49bc:	80 93 85 00 	sts	0x0085, r24	; 0x800085 <__TEXT_REGION_LENGTH__+0x7e0085>
	TCNT1L = 0xC0;
    49c0:	80 ec       	ldi	r24, 0xC0	; 192
    49c2:	80 93 84 00 	sts	0x0084, r24	; 0x800084 <__TEXT_REGION_LENGTH__+0x7e0084>
    49c6:	80 e0       	ldi	r24, 0x00	; 0
    49c8:	90 e0       	ldi	r25, 0x00	; 0
	// Incrmenter tous les ticks
	unsigned char i;
	for (i = 0; i < MAXCALLBACKCHRONO; i++) TickCB[i]++;
    49ca:	fc 01       	movw	r30, r24
    49cc:	ee 0f       	add	r30, r30
    49ce:	ff 1f       	adc	r31, r31
    49d0:	e8 5c       	subi	r30, 0xC8	; 200
    49d2:	f4 4f       	sbci	r31, 0xF4	; 244
    49d4:	20 81       	ld	r18, Z
    49d6:	31 81       	ldd	r19, Z+1	; 0x01
    49d8:	2f 5f       	subi	r18, 0xFF	; 255
    49da:	3f 4f       	sbci	r19, 0xFF	; 255
    49dc:	31 83       	std	Z+1, r19	; 0x01
    49de:	20 83       	st	Z, r18
    49e0:	01 96       	adiw	r24, 0x01	; 1
    49e2:	8a 30       	cpi	r24, 0x0A	; 10
    49e4:	91 05       	cpc	r25, r1
    49e6:	89 f7       	brne	.-30     	; 0x49ca <__vector_15+0x2a>
}
    49e8:	ff 91       	pop	r31
    49ea:	ef 91       	pop	r30
    49ec:	9f 91       	pop	r25
    49ee:	8f 91       	pop	r24
    49f0:	3f 91       	pop	r19
    49f2:	2f 91       	pop	r18
    49f4:	0f 90       	pop	r0
    49f6:	0b be       	out	0x3b, r0	; 59
    49f8:	0f 90       	pop	r0
    49fa:	0f be       	out	0x3f, r0	; 63
    49fc:	0f 90       	pop	r0
    49fe:	1f 90       	pop	r1
    4a00:	18 95       	reti

00004a02 <__vector_5>:

//Interruption Touches
ISR (PCINT1_vect){
    4a02:	1f 92       	push	r1
    4a04:	0f 92       	push	r0
    4a06:	0f b6       	in	r0, 0x3f	; 63
    4a08:	0f 92       	push	r0
    4a0a:	11 24       	eor	r1, r1
    4a0c:	0b b6       	in	r0, 0x3b	; 59
    4a0e:	0f 92       	push	r0
    4a10:	2f 93       	push	r18
    4a12:	3f 93       	push	r19
    4a14:	4f 93       	push	r20
    4a16:	5f 93       	push	r21
    4a18:	6f 93       	push	r22
    4a1a:	7f 93       	push	r23
    4a1c:	8f 93       	push	r24
    4a1e:	9f 93       	push	r25
    4a20:	af 93       	push	r26
    4a22:	bf 93       	push	r27
    4a24:	ef 93       	push	r30
    4a26:	ff 93       	push	r31
	PCICR &=~(1<<PCIE1);
    4a28:	e8 e6       	ldi	r30, 0x68	; 104
    4a2a:	f0 e0       	ldi	r31, 0x00	; 0
    4a2c:	80 81       	ld	r24, Z
    4a2e:	8d 7f       	andi	r24, 0xFD	; 253
    4a30:	80 83       	st	Z, r24

	//Button = NONE;
	
	/*Check 1st Column */
	
	cbiBF(PORTB,0);
    4a32:	28 98       	cbi	0x05, 0	; 5
	sbiBF(PORTB,1);
    4a34:	29 9a       	sbi	0x05, 1	; 5
	sbiBF(PORTB,2);
    4a36:	2a 9a       	sbi	0x05, 2	; 5
	sbiBF(PORTB,3);
    4a38:	2b 9a       	sbi	0x05, 3	; 5
	if(~PINB & 0b10000000)  Button=BOUTON_7;
    4a3a:	1f 99       	sbic	0x03, 7	; 3
    4a3c:	03 c0       	rjmp	.+6      	; 0x4a44 <__vector_5+0x42>
    4a3e:	88 e0       	ldi	r24, 0x08	; 8
    4a40:	80 93 22 0b 	sts	0x0B22, r24	; 0x800b22 <Button>
	if(~PINB & 0b01000000)  Button=BOUTON_4;
    4a44:	1e 99       	sbic	0x03, 6	; 3
    4a46:	03 c0       	rjmp	.+6      	; 0x4a4e <__vector_5+0x4c>
    4a48:	85 e0       	ldi	r24, 0x05	; 5
    4a4a:	80 93 22 0b 	sts	0x0B22, r24	; 0x800b22 <Button>
	if(~PINB & 0b00100000)  Button=BOUTON_1;
    4a4e:	1d 99       	sbic	0x03, 5	; 3
    4a50:	03 c0       	rjmp	.+6      	; 0x4a58 <__vector_5+0x56>
    4a52:	82 e0       	ldi	r24, 0x02	; 2
    4a54:	80 93 22 0b 	sts	0x0B22, r24	; 0x800b22 <Button>
	if(~PINB & 0b00010000)	Button=BOUTON_etoile;
    4a58:	1c 99       	sbic	0x03, 4	; 3
    4a5a:	03 c0       	rjmp	.+6      	; 0x4a62 <__vector_5+0x60>
    4a5c:	8f e0       	ldi	r24, 0x0F	; 15
    4a5e:	80 93 22 0b 	sts	0x0B22, r24	; 0x800b22 <Button>

	/*Check 2st Column */
	sbiBF(PORTB,0);
    4a62:	28 9a       	sbi	0x05, 0	; 5
	cbiBF(PORTB,1);
    4a64:	29 98       	cbi	0x05, 1	; 5
	if(~PINB & 0b10000000)	Button=BOUTON_8;
    4a66:	1f 99       	sbic	0x03, 7	; 3
    4a68:	03 c0       	rjmp	.+6      	; 0x4a70 <__vector_5+0x6e>
    4a6a:	89 e0       	ldi	r24, 0x09	; 9
    4a6c:	80 93 22 0b 	sts	0x0B22, r24	; 0x800b22 <Button>
	if(~PINB & 0b10000000)	Button=BOUTON_8;
    4a70:	1f 99       	sbic	0x03, 7	; 3
    4a72:	03 c0       	rjmp	.+6      	; 0x4a7a <__vector_5+0x78>
    4a74:	89 e0       	ldi	r24, 0x09	; 9
    4a76:	80 93 22 0b 	sts	0x0B22, r24	; 0x800b22 <Button>
	if(~PINB & 0b01000000)  Button=BOUTON_5;
    4a7a:	1e 99       	sbic	0x03, 6	; 3
    4a7c:	03 c0       	rjmp	.+6      	; 0x4a84 <__vector_5+0x82>
    4a7e:	86 e0       	ldi	r24, 0x06	; 6
    4a80:	80 93 22 0b 	sts	0x0B22, r24	; 0x800b22 <Button>
	if(~PINB & 0b00100000)  Button=BOUTON_2;
    4a84:	1d 99       	sbic	0x03, 5	; 3
    4a86:	03 c0       	rjmp	.+6      	; 0x4a8e <__vector_5+0x8c>
    4a88:	83 e0       	ldi	r24, 0x03	; 3
    4a8a:	80 93 22 0b 	sts	0x0B22, r24	; 0x800b22 <Button>
	if(~PINB & 0b00010000)  Button=BOUTON_0;
    4a8e:	1c 99       	sbic	0x03, 4	; 3
    4a90:	03 c0       	rjmp	.+6      	; 0x4a98 <__vector_5+0x96>
    4a92:	81 e0       	ldi	r24, 0x01	; 1
    4a94:	80 93 22 0b 	sts	0x0B22, r24	; 0x800b22 <Button>
	
	/*Check 3st Column */
	sbiBF(PORTB,1);
    4a98:	29 9a       	sbi	0x05, 1	; 5
	cbiBF (PORTB,2);
    4a9a:	2a 98       	cbi	0x05, 2	; 5
	if(~PINB & 0b10000000)	Button=BOUTON_9;
    4a9c:	1f 99       	sbic	0x03, 7	; 3
    4a9e:	03 c0       	rjmp	.+6      	; 0x4aa6 <__vector_5+0xa4>
    4aa0:	8a e0       	ldi	r24, 0x0A	; 10
    4aa2:	80 93 22 0b 	sts	0x0B22, r24	; 0x800b22 <Button>
	if(~PINB & 0b10000000)	Button=BOUTON_9;
    4aa6:	1f 99       	sbic	0x03, 7	; 3
    4aa8:	03 c0       	rjmp	.+6      	; 0x4ab0 <__vector_5+0xae>
    4aaa:	8a e0       	ldi	r24, 0x0A	; 10
    4aac:	80 93 22 0b 	sts	0x0B22, r24	; 0x800b22 <Button>
	if(~PINB & 0b01000000)  Button=BOUTON_6;
    4ab0:	1e 99       	sbic	0x03, 6	; 3
    4ab2:	03 c0       	rjmp	.+6      	; 0x4aba <__vector_5+0xb8>
    4ab4:	87 e0       	ldi	r24, 0x07	; 7
    4ab6:	80 93 22 0b 	sts	0x0B22, r24	; 0x800b22 <Button>
	if(~PINB & 0b00100000)  Button=BOUTON_3;
    4aba:	1d 99       	sbic	0x03, 5	; 3
    4abc:	03 c0       	rjmp	.+6      	; 0x4ac4 <__vector_5+0xc2>
    4abe:	84 e0       	ldi	r24, 0x04	; 4
    4ac0:	80 93 22 0b 	sts	0x0B22, r24	; 0x800b22 <Button>
	if(~PINB & 0b00010000)  Button=BOUTON_dieze;
    4ac4:	1c 99       	sbic	0x03, 4	; 3
    4ac6:	03 c0       	rjmp	.+6      	; 0x4ace <__vector_5+0xcc>
    4ac8:	80 e1       	ldi	r24, 0x10	; 16
    4aca:	80 93 22 0b 	sts	0x0B22, r24	; 0x800b22 <Button>
	
	/*Check 4st Column */
	sbiBF(PORTB,2);
    4ace:	2a 9a       	sbi	0x05, 2	; 5
	cbiBF (PORTB,3);
    4ad0:	2b 98       	cbi	0x05, 3	; 5
	if(~PINB & 0b10000000)	Button=BOUTON_A;
    4ad2:	1f 99       	sbic	0x03, 7	; 3
    4ad4:	03 c0       	rjmp	.+6      	; 0x4adc <__vector_5+0xda>
    4ad6:	8b e0       	ldi	r24, 0x0B	; 11
    4ad8:	80 93 22 0b 	sts	0x0B22, r24	; 0x800b22 <Button>
	if(~PINB & 0b10000000)	Button=BOUTON_A;
    4adc:	1f 99       	sbic	0x03, 7	; 3
    4ade:	03 c0       	rjmp	.+6      	; 0x4ae6 <__vector_5+0xe4>
    4ae0:	8b e0       	ldi	r24, 0x0B	; 11
    4ae2:	80 93 22 0b 	sts	0x0B22, r24	; 0x800b22 <Button>
	if(~PINB & 0b01000000)  Button=BOUTON_B;
    4ae6:	1e 99       	sbic	0x03, 6	; 3
    4ae8:	03 c0       	rjmp	.+6      	; 0x4af0 <__vector_5+0xee>
    4aea:	8c e0       	ldi	r24, 0x0C	; 12
    4aec:	80 93 22 0b 	sts	0x0B22, r24	; 0x800b22 <Button>
	if(~PINB & 0b00100000)  Button=BOUTON_C;
    4af0:	1d 99       	sbic	0x03, 5	; 3
    4af2:	03 c0       	rjmp	.+6      	; 0x4afa <__vector_5+0xf8>
    4af4:	8d e0       	ldi	r24, 0x0D	; 13
    4af6:	80 93 22 0b 	sts	0x0B22, r24	; 0x800b22 <Button>
	if(~PINB & 0b00010000)  Button=BOUTON_D;
    4afa:	1c 99       	sbic	0x03, 4	; 3
    4afc:	03 c0       	rjmp	.+6      	; 0x4b04 <__vector_5+0x102>
    4afe:	8e e0       	ldi	r24, 0x0E	; 14
    4b00:	80 93 22 0b 	sts	0x0B22, r24	; 0x800b22 <Button>
	
	/*Port  zro */
	cbiBF (PORTB, 0);
    4b04:	28 98       	cbi	0x05, 0	; 5
	cbiBF (PORTB, 1);
    4b06:	29 98       	cbi	0x05, 1	; 5
	cbiBF (PORTB, 2);
    4b08:	2a 98       	cbi	0x05, 2	; 5
	//cbiBF (PORTB, 3);
	IDCB_Desactivation_boutton = OSEnregistrerCB_TIMER(Desactivation_boutton, 50);
    4b0a:	62 e3       	ldi	r22, 0x32	; 50
    4b0c:	70 e0       	ldi	r23, 0x00	; 0
    4b0e:	88 e9       	ldi	r24, 0x98	; 152
    4b10:	90 e1       	ldi	r25, 0x10	; 16
    4b12:	27 de       	rcall	.-946    	; 0x4762 <OSEnregistrerCB_TIMER>
    4b14:	80 93 1c 0b 	sts	0x0B1C, r24	; 0x800b1c <IDCB_Desactivation_boutton>
}
    4b18:	ff 91       	pop	r31
    4b1a:	ef 91       	pop	r30
    4b1c:	bf 91       	pop	r27
    4b1e:	af 91       	pop	r26
    4b20:	9f 91       	pop	r25
    4b22:	8f 91       	pop	r24
    4b24:	7f 91       	pop	r23
    4b26:	6f 91       	pop	r22
    4b28:	5f 91       	pop	r21
    4b2a:	4f 91       	pop	r20
    4b2c:	3f 91       	pop	r19
    4b2e:	2f 91       	pop	r18
    4b30:	0f 90       	pop	r0
    4b32:	0b be       	out	0x3b, r0	; 59
    4b34:	0f 90       	pop	r0
    4b36:	0f be       	out	0x3f, r0	; 63
    4b38:	0f 90       	pop	r0
    4b3a:	1f 90       	pop	r1
    4b3c:	18 95       	reti

00004b3e <__vector_20>:
// *************************
// INTERRUPTION USART en RX (TERMINAL PC)
// *************************

ISR(USART0_RX_vect)
{
    4b3e:	1f 92       	push	r1
    4b40:	0f 92       	push	r0
    4b42:	0f b6       	in	r0, 0x3f	; 63
    4b44:	0f 92       	push	r0
    4b46:	11 24       	eor	r1, r1
    4b48:	0b b6       	in	r0, 0x3b	; 59
    4b4a:	0f 92       	push	r0
    4b4c:	2f 93       	push	r18
    4b4e:	3f 93       	push	r19
    4b50:	4f 93       	push	r20
    4b52:	5f 93       	push	r21
    4b54:	6f 93       	push	r22
    4b56:	7f 93       	push	r23
    4b58:	8f 93       	push	r24
    4b5a:	9f 93       	push	r25
    4b5c:	af 93       	push	r26
    4b5e:	bf 93       	push	r27
    4b60:	ef 93       	push	r30
    4b62:	ff 93       	push	r31
	bufRS232[idxbufRS232] = UDR0;		 //Lire le registre de rception, le charger dans le buffer
    4b64:	e0 91 77 0a 	lds	r30, 0x0A77	; 0x800a77 <idxbufRS232>
    4b68:	f0 e0       	ldi	r31, 0x00	; 0
    4b6a:	80 91 c6 00 	lds	r24, 0x00C6	; 0x8000c6 <__TEXT_REGION_LENGTH__+0x7e00c6>
    4b6e:	e4 5b       	subi	r30, 0xB4	; 180
    4b70:	f4 4f       	sbci	r31, 0xF4	; 244
    4b72:	80 83       	st	Z, r24
	if ((bufRS232[idxbufRS232]=='\r') || (bufRS232[idxbufRS232]==0))
    4b74:	e0 91 77 0a 	lds	r30, 0x0A77	; 0x800a77 <idxbufRS232>
    4b78:	f0 e0       	ldi	r31, 0x00	; 0
    4b7a:	e4 5b       	subi	r30, 0xB4	; 180
    4b7c:	f4 4f       	sbci	r31, 0xF4	; 244
    4b7e:	80 81       	ld	r24, Z
    4b80:	8d 30       	cpi	r24, 0x0D	; 13
    4b82:	41 f0       	breq	.+16     	; 0x4b94 <__vector_20+0x56>
    4b84:	e0 91 77 0a 	lds	r30, 0x0A77	; 0x800a77 <idxbufRS232>
    4b88:	f0 e0       	ldi	r31, 0x00	; 0
    4b8a:	e4 5b       	subi	r30, 0xB4	; 180
    4b8c:	f4 4f       	sbci	r31, 0xF4	; 244
    4b8e:	80 81       	ld	r24, Z
    4b90:	81 11       	cpse	r24, r1
    4b92:	15 c0       	rjmp	.+42     	; 0x4bbe <__vector_20+0x80>
	{
		bufRS232[idxbufRS232] = 0;
    4b94:	e0 91 77 0a 	lds	r30, 0x0A77	; 0x800a77 <idxbufRS232>
    4b98:	f0 e0       	ldi	r31, 0x00	; 0
    4b9a:	e4 5b       	subi	r30, 0xB4	; 180
    4b9c:	f4 4f       	sbci	r31, 0xF4	; 244
    4b9e:	10 82       	st	Z, r1
		USARTReception = TRUE;
    4ba0:	81 e0       	ldi	r24, 0x01	; 1
    4ba2:	80 93 b2 0b 	sts	0x0BB2, r24	; 0x800bb2 <USARTReception>
		idxbufRS232 = 0;
    4ba6:	10 92 77 0a 	sts	0x0A77, r1	; 0x800a77 <idxbufRS232>
		//Transmettre retour chariot ('\r' + '\n' pour Win32 !!!)
		Usart_Tx('\r');
    4baa:	8d e0       	ldi	r24, 0x0D	; 13
    4bac:	90 e0       	ldi	r25, 0x00	; 0
    4bae:	57 d0       	rcall	.+174    	; 0x4c5e <Usart_Tx>
		Usart_Tx('\n');
    4bb0:	8a e0       	ldi	r24, 0x0A	; 10
    4bb2:	90 e0       	ldi	r25, 0x00	; 0
    4bb4:	54 d0       	rcall	.+168    	; 0x4c5e <Usart_Tx>
		Usart_Tx('>');  // Transmettre un prompt
    4bb6:	8e e3       	ldi	r24, 0x3E	; 62
    4bb8:	90 e0       	ldi	r25, 0x00	; 0
    4bba:	51 d0       	rcall	.+162    	; 0x4c5e <Usart_Tx>

ISR(USART0_RX_vect)
{
	bufRS232[idxbufRS232] = UDR0;		 //Lire le registre de rception, le charger dans le buffer
	if ((bufRS232[idxbufRS232]=='\r') || (bufRS232[idxbufRS232]==0))
	{
    4bbc:	11 c0       	rjmp	.+34     	; 0x4be0 <__vector_20+0xa2>
		Usart_Tx('>');  // Transmettre un prompt
	}
	else
	{
		//Transmettre le caractre en retour
		Usart_Tx(bufRS232[idxbufRS232]);
    4bbe:	e0 91 77 0a 	lds	r30, 0x0A77	; 0x800a77 <idxbufRS232>
    4bc2:	f0 e0       	ldi	r31, 0x00	; 0
    4bc4:	e4 5b       	subi	r30, 0xB4	; 180
    4bc6:	f4 4f       	sbci	r31, 0xF4	; 244
    4bc8:	80 81       	ld	r24, Z
    4bca:	90 e0       	ldi	r25, 0x00	; 0
    4bcc:	48 d0       	rcall	.+144    	; 0x4c5e <Usart_Tx>
		//Si on arrive au maximum du buffer, remettre  zro
		if (++idxbufRS232 >= MAXBUFRS232) idxbufRS232 = 0;
    4bce:	80 91 77 0a 	lds	r24, 0x0A77	; 0x800a77 <idxbufRS232>
    4bd2:	8f 5f       	subi	r24, 0xFF	; 255
    4bd4:	80 93 77 0a 	sts	0x0A77, r24	; 0x800a77 <idxbufRS232>
    4bd8:	84 36       	cpi	r24, 0x64	; 100
    4bda:	10 f0       	brcs	.+4      	; 0x4be0 <__vector_20+0xa2>
    4bdc:	10 92 77 0a 	sts	0x0A77, r1	; 0x800a77 <idxbufRS232>
	}
    4be0:	ff 91       	pop	r31
    4be2:	ef 91       	pop	r30
    4be4:	bf 91       	pop	r27
    4be6:	af 91       	pop	r26
    4be8:	9f 91       	pop	r25
    4bea:	8f 91       	pop	r24
    4bec:	7f 91       	pop	r23
    4bee:	6f 91       	pop	r22
    4bf0:	5f 91       	pop	r21
    4bf2:	4f 91       	pop	r20
    4bf4:	3f 91       	pop	r19
    4bf6:	2f 91       	pop	r18
    4bf8:	0f 90       	pop	r0
    4bfa:	0b be       	out	0x3b, r0	; 59
    4bfc:	0f 90       	pop	r0
    4bfe:	0f be       	out	0x3f, r0	; 63
    4c00:	0f 90       	pop	r0
    4c02:	1f 90       	pop	r1
    4c04:	18 95       	reti

00004c06 <TIMER1_Init_1ms>:
	//fOSC = 8 Mhz
	//Si diviseur par 1 -> 8000000/1 = 8000 Khz
	// Une priode = 0.125S
	// Si je compte jusque 8000 --> 8000 X 0.125s = 1 ms
	
	TCCR1A = 0x00;
    4c06:	10 92 80 00 	sts	0x0080, r1	; 0x800080 <__TEXT_REGION_LENGTH__+0x7e0080>
	TCCR1B |= (0<<CS12)|(0<<CS11)|(1<<CS10);
    4c0a:	e1 e8       	ldi	r30, 0x81	; 129
    4c0c:	f0 e0       	ldi	r31, 0x00	; 0
    4c0e:	80 81       	ld	r24, Z
    4c10:	81 60       	ori	r24, 0x01	; 1
    4c12:	80 83       	st	Z, r24
	// Pour fOSC = 1 MHZ --> Valeur initiale du compteur = 65536 - 1000 = 64536
	TCNT1H = 0xFC;
    4c14:	8c ef       	ldi	r24, 0xFC	; 252
    4c16:	80 93 85 00 	sts	0x0085, r24	; 0x800085 <__TEXT_REGION_LENGTH__+0x7e0085>
	TCNT1L = 0x17;
    4c1a:	87 e1       	ldi	r24, 0x17	; 23
    4c1c:	80 93 84 00 	sts	0x0084, r24	; 0x800084 <__TEXT_REGION_LENGTH__+0x7e0084>
	// Pour fOSC = 8 MHZ --> Valeur initiale du compteur = 65536 - 8000 = 57536
	//TCNT1H = 0xE0;
	//TCNT1L = 0xC0;
	// Autorisation de l'interruption en cas d'overflow
	TIMSK1 = (1<<TOIE1);
    4c20:	81 e0       	ldi	r24, 0x01	; 1
    4c22:	80 93 6f 00 	sts	0x006F, r24	; 0x80006f <__TEXT_REGION_LENGTH__+0x7e006f>
    4c26:	08 95       	ret

00004c28 <USART_Init_19200>:

void USART_Init_19200()
{
	// frquence horloge = 8MHz, Si Baudrate = 19200 alors UBRR = 51
	//1xspeed  U2X0 = 1
	UCSR0A |= (1<<U2X0);
    4c28:	e0 ec       	ldi	r30, 0xC0	; 192
    4c2a:	f0 e0       	ldi	r31, 0x00	; 0
    4c2c:	80 81       	ld	r24, Z
    4c2e:	82 60       	ori	r24, 0x02	; 2
    4c30:	80 83       	st	Z, r24

	// 19200 baud
	UBRR0H = 0;
    4c32:	10 92 c5 00 	sts	0x00C5, r1	; 0x8000c5 <__TEXT_REGION_LENGTH__+0x7e00c5>
	UBRR0L = 51;
    4c36:	83 e3       	ldi	r24, 0x33	; 51
    4c38:	80 93 c4 00 	sts	0x00C4, r24	; 0x8000c4 <__TEXT_REGION_LENGTH__+0x7e00c4>
	

	// Configuration USART
	UCSR0B |= (1<<RXCIE0)|(0<<TXCIE0)|(0<<UDRIE0)|(1<<RXEN0)|(1<<TXEN0)|(0<<UCSZ02)|(0<<RXB80)|(0<<TXB80);
    4c3c:	e1 ec       	ldi	r30, 0xC1	; 193
    4c3e:	f0 e0       	ldi	r31, 0x00	; 0
    4c40:	80 81       	ld	r24, Z
    4c42:	88 69       	ori	r24, 0x98	; 152
    4c44:	80 83       	st	Z, r24

	// Async. mode, 8 bits, 1 bit de stop, pas de contrle de parit
	UCSR0C |= (0<<UMSEL00)|(0<<UPM01)|(0<<UPM00)|(0<<USBS0)|(1<<UCSZ01)|(1<<UCSZ00)|(0<<UCPOL0);
    4c46:	e2 ec       	ldi	r30, 0xC2	; 194
    4c48:	f0 e0       	ldi	r31, 0x00	; 0
    4c4a:	80 81       	ld	r24, Z
    4c4c:	86 60       	ori	r24, 0x06	; 6
    4c4e:	80 83       	st	Z, r24
    4c50:	08 95       	ret

00004c52 <USART_Delay>:
	
}

void USART_Delay()
{
	while(!(UCSR0A & (1<<UDRE0)));
    4c52:	e0 ec       	ldi	r30, 0xC0	; 192
    4c54:	f0 e0       	ldi	r31, 0x00	; 0
    4c56:	80 81       	ld	r24, Z
    4c58:	85 ff       	sbrs	r24, 5
    4c5a:	fd cf       	rjmp	.-6      	; 0x4c56 <USART_Delay+0x4>
    4c5c:	08 95       	ret

00004c5e <Usart_Tx>:


//CONTENU FONCTIONS EXTERNES

void Usart_Tx(char data)
{
    4c5e:	cf 93       	push	r28
    4c60:	c8 2f       	mov	r28, r24
	// UDRE Flag , is the transmit buffer UDR) ready to receive new data ?
	// if UDRE0 =1 the buffer is empty
	USART_Delay();
    4c62:	f7 df       	rcall	.-18     	; 0x4c52 <USART_Delay>
	UDR0 = data;
    4c64:	c0 93 c6 00 	sts	0x00C6, r28	; 0x8000c6 <__TEXT_REGION_LENGTH__+0x7e00c6>
}
    4c68:	cf 91       	pop	r28
    4c6a:	08 95       	ret

00004c6c <Usart_Tx_String>:


void Usart_Tx_String(char *String)
{
    4c6c:	ef 92       	push	r14
    4c6e:	ff 92       	push	r15
    4c70:	0f 93       	push	r16
    4c72:	1f 93       	push	r17
    4c74:	cf 93       	push	r28
    4c76:	8c 01       	movw	r16, r24
void Usart_Tx(char data)
{
	// UDRE Flag , is the transmit buffer UDR) ready to receive new data ?
	// if UDRE0 =1 the buffer is empty
	USART_Delay();
	UDR0 = data;
    4c78:	0f 2e       	mov	r0, r31
    4c7a:	f6 ec       	ldi	r31, 0xC6	; 198
    4c7c:	ef 2e       	mov	r14, r31
    4c7e:	f1 2c       	mov	r15, r1
    4c80:	f0 2d       	mov	r31, r0
    4c82:	03 c0       	rjmp	.+6      	; 0x4c8a <Usart_Tx_String+0x1e>

void Usart_Tx(char data)
{
	// UDRE Flag , is the transmit buffer UDR) ready to receive new data ?
	// if UDRE0 =1 the buffer is empty
	USART_Delay();
    4c84:	e6 df       	rcall	.-52     	; 0x4c52 <USART_Delay>
	UDR0 = data;
    4c86:	f7 01       	movw	r30, r14
    4c88:	c0 83       	st	Z, r28
void Usart_Tx_String(char *String)
{
	char Continue = TRUE;
	while (Continue)
	{
		if(*String==0) Continue = FALSE;
    4c8a:	f8 01       	movw	r30, r16
    4c8c:	c1 91       	ld	r28, Z+
    4c8e:	8f 01       	movw	r16, r30
    4c90:	c1 11       	cpse	r28, r1
    4c92:	f8 cf       	rjmp	.-16     	; 0x4c84 <Usart_Tx_String+0x18>
		else
		{
			Usart_Tx(*String++);
		}
	}
}
    4c94:	cf 91       	pop	r28
    4c96:	1f 91       	pop	r17
    4c98:	0f 91       	pop	r16
    4c9a:	ff 90       	pop	r15
    4c9c:	ef 90       	pop	r14
    4c9e:	08 95       	ret

00004ca0 <__tablejump2__>:
    4ca0:	ee 0f       	add	r30, r30
    4ca2:	ff 1f       	adc	r31, r31
    4ca4:	00 24       	eor	r0, r0
    4ca6:	00 1c       	adc	r0, r0
    4ca8:	0b be       	out	0x3b, r0	; 59
    4caa:	07 90       	elpm	r0, Z+
    4cac:	f6 91       	elpm	r31, Z
    4cae:	e0 2d       	mov	r30, r0
    4cb0:	09 94       	ijmp

00004cb2 <strcpy>:
    4cb2:	fb 01       	movw	r30, r22
    4cb4:	dc 01       	movw	r26, r24
    4cb6:	01 90       	ld	r0, Z+
    4cb8:	0d 92       	st	X+, r0
    4cba:	00 20       	and	r0, r0
    4cbc:	e1 f7       	brne	.-8      	; 0x4cb6 <strcpy+0x4>
    4cbe:	08 95       	ret

00004cc0 <__itoa_ncheck>:
    4cc0:	bb 27       	eor	r27, r27
    4cc2:	4a 30       	cpi	r20, 0x0A	; 10
    4cc4:	31 f4       	brne	.+12     	; 0x4cd2 <__itoa_ncheck+0x12>
    4cc6:	99 23       	and	r25, r25
    4cc8:	22 f4       	brpl	.+8      	; 0x4cd2 <__itoa_ncheck+0x12>
    4cca:	bd e2       	ldi	r27, 0x2D	; 45
    4ccc:	90 95       	com	r25
    4cce:	81 95       	neg	r24
    4cd0:	9f 4f       	sbci	r25, 0xFF	; 255
    4cd2:	01 c0       	rjmp	.+2      	; 0x4cd6 <__utoa_common>

00004cd4 <__utoa_ncheck>:
    4cd4:	bb 27       	eor	r27, r27

00004cd6 <__utoa_common>:
    4cd6:	fb 01       	movw	r30, r22
    4cd8:	55 27       	eor	r21, r21
    4cda:	aa 27       	eor	r26, r26
    4cdc:	88 0f       	add	r24, r24
    4cde:	99 1f       	adc	r25, r25
    4ce0:	aa 1f       	adc	r26, r26
    4ce2:	a4 17       	cp	r26, r20
    4ce4:	10 f0       	brcs	.+4      	; 0x4cea <__utoa_common+0x14>
    4ce6:	a4 1b       	sub	r26, r20
    4ce8:	83 95       	inc	r24
    4cea:	50 51       	subi	r21, 0x10	; 16
    4cec:	b9 f7       	brne	.-18     	; 0x4cdc <__utoa_common+0x6>
    4cee:	a0 5d       	subi	r26, 0xD0	; 208
    4cf0:	aa 33       	cpi	r26, 0x3A	; 58
    4cf2:	08 f0       	brcs	.+2      	; 0x4cf6 <__utoa_common+0x20>
    4cf4:	a9 5d       	subi	r26, 0xD9	; 217
    4cf6:	a1 93       	st	Z+, r26
    4cf8:	00 97       	sbiw	r24, 0x00	; 0
    4cfa:	79 f7       	brne	.-34     	; 0x4cda <__utoa_common+0x4>
    4cfc:	b1 11       	cpse	r27, r1
    4cfe:	b1 93       	st	Z+, r27
    4d00:	11 92       	st	Z+, r1
    4d02:	cb 01       	movw	r24, r22
    4d04:	00 c0       	rjmp	.+0      	; 0x4d06 <strrev>

00004d06 <strrev>:
    4d06:	dc 01       	movw	r26, r24
    4d08:	fc 01       	movw	r30, r24
    4d0a:	67 2f       	mov	r22, r23
    4d0c:	71 91       	ld	r23, Z+
    4d0e:	77 23       	and	r23, r23
    4d10:	e1 f7       	brne	.-8      	; 0x4d0a <strrev+0x4>
    4d12:	32 97       	sbiw	r30, 0x02	; 2
    4d14:	04 c0       	rjmp	.+8      	; 0x4d1e <strrev+0x18>
    4d16:	7c 91       	ld	r23, X
    4d18:	6d 93       	st	X+, r22
    4d1a:	70 83       	st	Z, r23
    4d1c:	62 91       	ld	r22, -Z
    4d1e:	ae 17       	cp	r26, r30
    4d20:	bf 07       	cpc	r27, r31
    4d22:	c8 f3       	brcs	.-14     	; 0x4d16 <strrev+0x10>
    4d24:	08 95       	ret

00004d26 <_exit>:
    4d26:	f8 94       	cli

00004d28 <__stop_program>:
    4d28:	ff cf       	rjmp	.-2      	; 0x4d28 <__stop_program>
